

Microchip MPLAB XC8 Assembler V2.32 build 20210201212658 
                                                                                               Sat Oct 02 13:36:50 2021

Microchip MPLAB XC8 C Compiler v2.32 (Free license) build 20210201212658 Og1 
     1                           	processor	18F26Q84
     2                           	fnconf	rparam,??,?,0
     3                           	pagewidth 120
     4                           	opt	flic
     5                           	psect	idataCOMRAM,global,class=CODE,delta=1,noexec
     6                           	psect	smallconst,global,reloc=2,class=SMALLCONST,delta=1,noexec
     7                           	psect	nvCOMRAM,global,class=COMRAM,space=1,delta=1,lowdata,noexec
     8                           	psect	cinit,global,reloc=2,class=CODE,delta=1
     9                           	psect	bssCOMRAM,global,class=COMRAM,space=1,delta=1,lowdata,noexec
    10                           	psect	dataCOMRAM,global,class=COMRAM,space=1,delta=1,lowdata,noexec
    11                           	psect	cstackCOMRAM,global,class=COMRAM,space=1,delta=1,lowdata,noexec
    12                           	psect	text0,global,reloc=2,class=CODE,delta=1
    13                           	psect	text1,global,reloc=2,class=CODE,delta=1
    14                           	psect	text2,global,reloc=2,class=CODE,delta=1
    15                           	psect	text3,global,reloc=2,class=CODE,delta=1
    16                           	psect	text4,global,reloc=2,class=CODE,delta=1
    17                           	psect	text5,global,reloc=2,class=CODE,delta=1
    18                           	psect	text6,global,reloc=2,class=CODE,delta=1
    19                           	psect	text7,global,reloc=2,class=CODE,delta=1
    20                           	psect	text8,global,reloc=2,class=CODE,delta=1
    21                           	psect	text9,global,reloc=2,class=CODE,delta=1
    22                           	psect	text10,global,reloc=2,class=CODE,delta=1
    23                           	psect	text11,global,reloc=2,class=CODE,delta=1
    24                           	psect	text12,global,reloc=2,class=CODE,delta=1
    25                           	psect	text13,global,reloc=2,class=CODE,delta=1
    26                           	psect	text14,global,reloc=2,class=CODE,delta=1
    27                           	psect	text15,global,reloc=2,class=CODE,delta=1
    28                           	psect	text16,global,reloc=2,class=CODE,delta=1
    29                           	psect	text17,global,reloc=2,class=CODE,delta=1
    30                           	psect	text18,global,reloc=2,class=CODE,delta=1
    31                           	psect	text19,global,reloc=2,class=CODE,delta=1
    32                           	psect	text20,global,reloc=2,class=CODE,delta=1
    33                           	psect	text21,global,reloc=2,class=CODE,delta=1
    34                           	psect	text22,global,reloc=2,class=CODE,delta=1
    35                           	psect	text23,global,reloc=2,class=CODE,delta=1
    36                           	psect	text24,global,reloc=2,class=CODE,delta=1,group=1
    37                           	psect	text25,global,reloc=2,class=CODE,delta=1
    38                           	psect	text26,global,reloc=2,class=CODE,delta=1,group=1
    39                           	psect	text27,global,reloc=2,class=CODE,delta=1,group=1
    40                           	psect	text28,global,reloc=2,class=CODE,delta=1
    41                           	psect	text29,global,reloc=2,class=CODE,delta=1
    42                           	psect	text30,global,reloc=2,class=CODE,delta=1
    43                           	psect	text31,global,reloc=2,class=CODE,delta=1
    44                           	psect	text32,global,reloc=2,class=CODE,delta=1
    45                           	psect	text33,global,reloc=2,class=CODE,delta=1
    46                           	psect	text34,global,reloc=2,class=CODE,delta=1
    47                           	psect	text35,global,reloc=2,class=CODE,delta=1
    48                           	psect	text36,global,reloc=2,class=CODE,delta=1
    49                           	psect	text37,global,reloc=2,class=CODE,delta=1
    50                           	psect	text38,global,reloc=2,class=CODE,delta=1
    51                           	psect	text39,global,reloc=2,class=CODE,delta=1
    52                           	psect	text40,global,reloc=2,class=CODE,delta=1
    53                           	psect	text41,global,reloc=2,class=CODE,delta=1
    54                           	psect	text42,global,reloc=2,class=CODE,delta=1
    55                           	psect	text43,global,reloc=2,class=CODE,delta=1
    56                           	psect	text44,global,reloc=2,class=CODE,delta=1
    57                           	psect	text45,global,reloc=2,class=CODE,delta=1
    58                           	psect	text46,global,reloc=2,class=CODE,delta=1
    59                           	psect	text47,global,reloc=2,class=CODE,delta=1
    60                           	psect	ivt0x8,global,reloc=2,class=CODE,delta=1,noexec,keep,optim=
    61                           	psect	intsave_regs,global,class=BIGRAM,space=1,delta=1,noexec
    62                           	psect	text48,global,reloc=2,class=CODE,delta=1
    63                           	psect	rparam,global,class=COMRAM,space=1,delta=1,noexec
    64                           	psect	idloc,global,abs,ovrld,class=IDLOC,space=5,delta=1,noexec
    65                           	psect	config,global,abs,ovrld,class=CONFIG,space=4,delta=1,noexec
    66  0000                     
    67                           ; Version 2.35
    68                           ; Generated 04/06/2021 GMT
    69                           ; 
    70                           ; Copyright © 2021, Microchip Technology Inc. and its subsidiaries ("Microchip")
    71                           ; All rights reserved.
    72                           ; 
    73                           ; This software is developed by Microchip Technology Inc. and its subsidiaries ("Microch
      +                          ip").
    74                           ; 
    75                           ; Redistribution and use in source and binary forms, with or without modification, are
    76                           ; permitted provided that the following conditions are met:
    77                           ; 
    78                           ;     1. Redistributions of source code must retain the above copyright notice, this lis
      +                          t of
    79                           ;        conditions and the following disclaimer.
    80                           ; 
    81                           ;     2. Redistributions in binary form must reproduce the above copyright notice, this 
      +                          list
    82                           ;        of conditions and the following disclaimer in the documentation and/or other
    83                           ;        materials provided with the distribution. Publication is not required when
    84                           ;        this file is used in an embedded application.
    85                           ; 
    86                           ;     3. Microchip's name may not be used to endorse or promote products derived from th
      +                          is
    87                           ;        software without specific prior written permission.
    88                           ; 
    89                           ; THIS SOFTWARE IS PROVIDED BY MICROCHIP "AS IS" AND ANY EXPRESS OR IMPLIED WARRANTIES,
    90                           ; INCLUDING, BUT NOT LIMITED TO, THE IMPLIED WARRANTIES OF MERCHANTABILITY AND FITNESS F
      +                          OR
    91                           ; PURPOSE ARE DISCLAIMED.  IN NO EVENT SHALL MICROCHIP BE LIABLE FOR ANY DIRECT, INDIREC
      +                          T,
    92                           ; INCIDENTAL, SPECIAL, EXEMPLARY, OR CONSEQUENTIAL DAMAGES (INCLUDING BUT NOT LIMITED TO
    93                           ; PROCUREMENT OF SUBSTITUTE GOODS OR SERVICES; LOSS OF USE, DATA OR PROFITS; OR BUSINESS
    94                           ; INTERRUPTION) HOWSOEVER CAUSED AND ON ANY THEORY OF LIABILITY, WHETHER IN CONTRACT, ST
      +                          RICT
    95                           ; LIABILITY, OR TORT (INCLUDING NEGLIGENCE OR OTHERWISE) ARISING IN ANY WAY OUT OF THE U
      +                          SE OF
    96                           ; THIS SOFTWARE, EVEN IF ADVISED OF THE POSSIBILITY OF SUCH DAMAGE.
    97                           ; 
    98                           ; 
    99                           ; Code-generator required, PIC18F26Q84 Definitions
   100                           ; 
   101                           ; SFR Addresses
   102  0000                     
   103 ;; Function _rd1RegCompleteHandler is unused but had its address taken
   104  0000                     
   105 ;; Function _rd2RegCompleteHandler is unused but had its address taken
   106  0000                     
   107 ;; Function _wr1RegCompleteHandler is unused but had its address taken
   108  0000                     
   109 ;; Function _wr2RegCompleteHandler is unused but had its address taken
   110  0000                     
   111 ;; Function _rdBlkRegCompleteHandler is unused but had its address taken
   112  0000                     
   113 ;; Function _ADC_DefaultADI_ISR is unused but had its address taken
   114  0000                     
   115 ;; Function _ADC_DefaultContext1Threshold_ISR is unused but had its address taken
   116  0000                     
   117 ;; Function _ADC_DefaultActiveClockTuning_ISR is unused but had its address taken
   118  0000                     
   119 ;; Function _I2C1_DO_IDLE is unused but had its address taken
   120  0000                     
   121 ;; Function _I2C1_DO_SEND_ADR_READ is unused but had its address taken
   122  0000                     
   123 ;; Function _I2C1_DO_SEND_ADR_WRITE is unused but had its address taken
   124  0000                     
   125 ;; Function _I2C1_DO_TX is unused but had its address taken
   126  0000                     
   127 ;; Function _I2C1_DO_RX is unused but had its address taken
   128  0000                     
   129 ;; Function _I2C1_DO_TX_EMPTY is unused but had its address taken
   130  0000                     
   131 ;; Function _I2C1_DO_RX_EMPTY is unused but had its address taken
   132  0000                     
   133 ;; Function _I2C1_DO_SEND_RESTART_READ is unused but had its address taken
   134  0000                     
   135 ;; Function _I2C1_DO_SEND_RESTART_WRITE is unused but had its address taken
   136  0000                     
   137 ;; Function _I2C1_DO_SEND_RESTART is unused but had its address taken
   138  0000                     
   139 ;; Function _I2C1_DO_SEND_STOP is unused but had its address taken
   140  0000                     
   141 ;; Function _I2C1_DO_RX_ACK is unused but had its address taken
   142  0000                     
   143 ;; Function _I2C1_DO_TX_ACK is unused but had its address taken
   144  0000                     
   145 ;; Function _I2C1_DO_RX_NACK_STOP is unused but had its address taken
   146  0000                     
   147 ;; Function _I2C1_DO_RX_NACK_RESTART is unused but had its address taken
   148  0000                     
   149 ;; Function _I2C1_DO_RESET is unused but had its address taken
   150  0000                     
   151 ;; Function _I2C1_DO_ADDRESS_NACK is unused but had its address taken
   152  0000                     
   153 ;; Function _I2C1_DO_BUS_COLLISION is unused but had its address taken
   154  0000                     
   155 ;; Function _I2C1_DO_BUS_ERROR is unused but had its address taken
   156  0000                     
   157 ;; Function _I2C1_CallbackReturnStop is unused but had its address taken
   158  0000                     
   159 ;; Function _I2C1_CallbackReturnReset is unused but had its address taken
   160  0000                     
   161                           	psect	idataCOMRAM
   162  002EE8                     __pidataCOMRAM:
   163                           	callstack 0
   164                           
   165                           ;initializer for _ucWheelID
   166  002EE8  01                 	db	1
   167                           
   168                           	psect	smallconst
   169  002600                     __psmallconst:
   170                           	callstack 0
   171  002600  00                 	db	0
   172  002601                     _i2c1_fsmStateTable:
   173                           	callstack 0
   174  002601  00                 	db	0
   175  002602  00                 	db	0
   176  002603  00                 	db	0
   177  002604  00                 	db	0
   178  002605  00                 	db	0
   179  002606  00                 	db	0
   180  002607  00                 	db	0
   181  002608  00                 	db	0
   182  002609  00                 	db	0
   183  00260A  00                 	db	0
   184  00260B  00                 	db	0
   185  00260C  00                 	db	0
   186  00260D  00                 	db	0
   187  00260E  00                 	db	0
   188  00260F  00                 	db	0
   189  002610  00                 	db	0
   190  002611  00                 	db	0
   191  002612  00                 	db	0
   192  002613  00                 	db	0
   193  002614  00                 	db	0
   194  002615  00                 	db	0
   195  002616  00                 	db	0
   196  002617  00                 	db	0
   197  002618  00                 	db	0
   198  002619  00                 	db	0
   199  00261A  00                 	db	0
   200  00261B  00                 	db	0
   201  00261C  00                 	db	0
   202  00261D  00                 	db	0
   203  00261E  00                 	db	0
   204  00261F  00                 	db	0
   205  002620  00                 	db	0
   206  002621  00                 	db	0
   207  002622  00                 	db	0
   208  002623  00                 	db	0
   209  002624  00                 	db	0
   210  002625  00                 	db	0
   211  002626  00                 	db	0
   212  002627                     __end_of_i2c1_fsmStateTable:
   213                           	callstack 0
   214  002627  00                 	db	0
   215  002628  01                 	db	1
   216  002629  02                 	db	2
   217  00262A  03                 	db	3
   218  00262B  04                 	db	4
   219  00262C  05                 	db	5
   220  00262D  06                 	db	6
   221  00262E  07                 	db	7
   222  00262F  08                 	db	8
   223  002630                     __end_of_DLC_BYTES:
   224                           	callstack 0
   225  002630  50                 	db	80
   226  002631  01                 	db	1
   227  002632                     __end_of_FIFO:
   228                           	callstack 0
   229  002632  00                 	db	0	; dummy byte at the end
   230  0000                     
   231                           	psect	nvCOMRAM
   232  000547                     __pnvCOMRAM:
   233                           	callstack 0
   234  000547                     _TMR0_InterruptHandler:
   235                           	callstack 0
   236  000547                     	ds	2
   237  000549                     _TMR1_InterruptHandler:
   238                           	callstack 0
   239  000549                     	ds	2
   240  00054B                     _timer1ReloadVal:
   241                           	callstack 0
   242  00054B                     	ds	2
   243  00054D                     _INT2_InterruptHandler:
   244                           	callstack 0
   245  00054D                     	ds	2
   246  00054F                     _INT1_InterruptHandler:
   247                           	callstack 0
   248  00054F                     	ds	2
   249  000551                     _INT0_InterruptHandler:
   250                           	callstack 0
   251  000551                     	ds	2
   252  000553                     _ADC_ActiveClockTuning_ISR:
   253                           	callstack 0
   254  000553                     	ds	2
   255  000555                     _ADC_Context1Thereshld_ISR:
   256                           	callstack 0
   257  000555                     	ds	2
   258  000557                     _ADC_ConversionComplete_ISR:
   259                           	callstack 0
   260  000557                     	ds	2
   261  0000                     _PMD8	set	104
   262  0000                     _PMD7	set	103
   263  0000                     _PMD6	set	102
   264  0000                     _PMD5	set	101
   265  0000                     _PMD4	set	100
   266  0000                     _PMD3	set	99
   267  0000                     _PMD2	set	98
   268  0000                     _PMD1	set	97
   269  0000                     _PMD0	set	96
   270  0000                     _OSCTUNE	set	176
   271  0000                     _OSCFRQ	set	177
   272  0000                     _OSCEN	set	179
   273  0000                     _OSCCON3	set	175
   274  0000                     _OSCCON1	set	173
   275  0000                     _C1FIFOBA	set	332
   276  0000                     _C1INTTbits	set	287
   277  0000                     _C1INTHbits	set	285
   278  0000                     _C1TRECUbits	set	310
   279  0000                     _C1CONUbits	set	258
   280  0000                     _C1CONTbits	set	259
   281  0000                     _C1CONU	set	258
   282  0000                     _C1CONH	set	257
   283  0000                     _C1CONL	set	256
   284  0000                     _C1CONHbits	set	257
   285  0000                     _C1NBTCFGT	set	263
   286  0000                     _C1NBTCFGU	set	262
   287  0000                     _C1NBTCFGH	set	261
   288  0000                     _C1NBTCFGL	set	260
   289  0000                     _I2C1PIEbits	set	667
   290  0000                     _I2C1PIRbits	set	666
   291  0000                     _I2C1ERRbits	set	663
   292  0000                     _I2C1CON1bits	set	661
   293  0000                     _I2C1TXB	set	651
   294  0000                     _I2C1RXB	set	650
   295  0000                     _I2C1STAT1bits	set	665
   296  0000                     _I2C1CON0bits	set	660
   297  0000                     _I2C1BAUD	set	669
   298  0000                     _I2C1CNTH	set	653
   299  0000                     _I2C1CNTL	set	652
   300  0000                     _I2C1ERR	set	663
   301  0000                     _I2C1PIE	set	667
   302  0000                     _I2C1PIR	set	666
   303  0000                     _I2C1CLK	set	670
   304  0000                     _I2C1CON2	set	662
   305  0000                     _I2C1CON1	set	661
   306  0000                     _I2C1CON0	set	660
   307  0000                     _I2C1SCLPPS	set	625
   308  0000                     _INT1PPS	set	575
   309  0000                     _INT2PPS	set	576
   310  0000                     _RB4PPS	set	525
   311  0000                     _CANRXPPS	set	573
   312  0000                     _RC4PPS	set	533
   313  0000                     _INT0PPS	set	574
   314  0000                     _RC3PPS	set	532
   315  0000                     _I2C1SDAPPS	set	624
   316  0000                     _ADACTPPS	set	617
   317  0000                     _T0CON0bits	set	794
   318  0000                     _T0CON0	set	794
   319  0000                     _TMR0L	set	792
   320  0000                     _TMR0H	set	793
   321  0000                     _T0CON1	set	795
   322  0000                     _T1GCONbits	set	799
   323  0000                     _T1CONbits	set	798
   324  0000                     _T1CON	set	798
   325  0000                     _TMR1L	set	796
   326  0000                     _TMR1H	set	797
   327  0000                     _T1CLK	set	801
   328  0000                     _T1GATE	set	800
   329  0000                     _T1GCON	set	799
   330  0000                     _ADCPbits	set	984
   331  0000                     _ADCON1bits	set	1012
   332  0000                     _ADERRL	set	989
   333  0000                     _ADERRH	set	990
   334  0000                     _ADPREVL	set	1000
   335  0000                     _ADPREVH	set	1001
   336  0000                     _ADFLTRL	set	993
   337  0000                     _ADFLTRH	set	994
   338  0000                     _ADSTATbits	set	1015
   339  0000                     _ADCON2bits	set	1013
   340  0000                     _ADCON3bits	set	1014
   341  0000                     _ADCSEL1bits	set	1020
   342  0000                     _ADCON0bits	set	1011
   343  0000                     _ADCSEL1	set	1020
   344  0000                     _ADREF	set	1016
   345  0000                     _ADSTAT	set	1015
   346  0000                     _ADCON3	set	1014
   347  0000                     _ADCON2	set	1013
   348  0000                     _ADCON1	set	1012
   349  0000                     _ADCON0	set	1011
   350  0000                     _ADPREH	set	1010
   351  0000                     _ADPREL	set	1009
   352  0000                     _ADCAP	set	1008
   353  0000                     _ADACQH	set	1007
   354  0000                     _ADACQL	set	1006
   355  0000                     _ADPCH	set	1004
   356  0000                     _ADRESH	set	1003
   357  0000                     _ADRESL	set	1002
   358  0000                     _ADRPT	set	999
   359  0000                     _ADCNT	set	998
   360  0000                     _ADACCU	set	997
   361  0000                     _ADACCH	set	996
   362  0000                     _ADACCL	set	995
   363  0000                     _ADSTPTH	set	992
   364  0000                     _ADSTPTL	set	991
   365  0000                     _ADUTHH	set	988
   366  0000                     _ADUTHL	set	987
   367  0000                     _ADLTHH	set	986
   368  0000                     _ADLTHL	set	985
   369  0000                     _ADCTX	set	1019
   370  0000                     _ADCP	set	984
   371  0000                     _ADCLK	set	1018
   372  0000                     _ADACT	set	1017
   373  0000                     _INLVLE	set	1060
   374  0000                     _INLVLC	set	1044
   375  0000                     _INLVLB	set	1036
   376  0000                     _INLVLA	set	1028
   377  0000                     _SLRCONC	set	1043
   378  0000                     _SLRCONB	set	1035
   379  0000                     _SLRCONA	set	1027
   380  0000                     _ODCONC	set	1042
   381  0000                     _ODCONB	set	1034
   382  0000                     _ODCONA	set	1026
   383  0000                     _WPUC	set	1041
   384  0000                     _WPUA	set	1025
   385  0000                     _WPUB	set	1033
   386  0000                     _WPUE	set	1057
   387  0000                     _ANSELA	set	1024
   388  0000                     _ANSELB	set	1032
   389  0000                     _ANSELC	set	1040
   390  0000                     _TRISAbits	set	1222
   391  0000                     _TRISBbits	set	1223
   392  0000                     _LATAbits	set	1214
   393  0000                     _PIR7bits	set	1205
   394  0000                     _PIE7bits	set	1189
   395  0000                     _TRISC	set	1224
   396  0000                     _TRISB	set	1223
   397  0000                     _TRISA	set	1222
   398  0000                     _TRISE	set	1226
   399  0000                     _LATC	set	1216
   400  0000                     _LATB	set	1215
   401  0000                     _LATA	set	1214
   402  0000                     _PIR2bits	set	1200
   403  0000                     _PIR10bits	set	1208
   404  0000                     _PIE10bits	set	1192
   405  0000                     _PIR6bits	set	1204
   406  0000                     _PIE6bits	set	1188
   407  0000                     _PIR1bits	set	1199
   408  0000                     _PIE1bits	set	1183
   409  0000                     _PIR3bits	set	1201
   410  0000                     _PIE3bits	set	1185
   411  0000                     _INTCON0bits	set	1238
   412                           
   413                           ; #config settings
   414                           
   415                           	psect	cinit
   416  002BB2                     __pcinit:
   417                           	callstack 0
   418  002BB2                     start_initialization:
   419                           	callstack 0
   420  002BB2                     __initialization:
   421                           	callstack 0
   422                           
   423                           ; Initialize objects allocated to COMRAM (1 bytes)
   424                           ; load TBLPTR registers with __pidataCOMRAM
   425  002BB2  0EE8               	movlw	low __pidataCOMRAM
   426  002BB4  6EF6               	movwf	tblptrl,c
   427  002BB6  0E2E               	movlw	high __pidataCOMRAM
   428  002BB8  6EF7               	movwf	tblptrh,c
   429  002BBA  0E00               	movlw	low (__pidataCOMRAM shr (0+16))
   430  002BBC  6EF8               	movwf	tblptru,c
   431  002BBE  0009               	tblrd		*+	;fetch initializer
   432  002BC0  0061 F3D4  F559    	movff	tablat,__pdataCOMRAM
   433                           
   434                           ; Clear objects allocated to COMRAM (50 bytes)
   435  002BC6  EE01  F101         	lfsr	0,__pbssCOMRAM
   436  002BCA  0E32               	movlw	50
   437  002BCC                     clear_0:
   438  002BCC  6AEE               	clrf	postinc0,c
   439  002BCE  06E8               	decf	wreg,f,c
   440  002BD0  E1FD               	bnz	clear_0
   441                           
   442                           ;
   443                           ; Setup IVTBASE
   444                           ;
   445  002BD2  0104               	movlb	4
   446  002BD4  0E08               	movlw	(ivt0x8_base shr 0)& (0+255)
   447  002BD6  6F5D               	movwf	93,b
   448  002BD8  0E00               	movlw	(ivt0x8_base shr (0+8))& (0+255)
   449  002BDA  6F5E               	movwf	94,b
   450  002BDC  0E00               	movlw	(ivt0x8_base shr (0+16))& (0+255)
   451  002BDE  6F5F               	movwf	95,b
   452  002BE0                     end_of_initialization:
   453                           	callstack 0
   454  002BE0                     __end_of__initialization:
   455                           	callstack 0
   456  002BE0  0100               	movlb	0
   457  002BE2  EF84  F015         	goto	_main	;jump to C main() function
   458                           
   459                           	psect	bssCOMRAM
   460  000501                     __pbssCOMRAM:
   461                           	callstack 0
   462  000501                     _I2C1_Status:
   463                           	callstack 0
   464  000501                     	ds	36
   465  000525                     TMR0_ISR@CountCallBack:
   466                           	callstack 0
   467  000525                     	ds	2
   468  000527                     TMR1_ISR@CountCallBack:
   469                           	callstack 0
   470  000527                     	ds	2
   471  000529                     _uiKmeterPerHour:
   472                           	callstack 0
   473  000529                     	ds	2
   474  00052B                     _uiMeterPerSecond:
   475                           	callstack 0
   476  00052B                     	ds	2
   477  00052D                     _ucReluctorState:
   478                           	callstack 0
   479  00052D                     	ds	1
   480  00052E                     _ucKPHData2:
   481                           	callstack 0
   482  00052E                     	ds	1
   483  00052F                     _ucKPHData1:
   484                           	callstack 0
   485  00052F                     	ds	1
   486  000530                     _ucCountVueltaRueda:
   487                           	callstack 0
   488  000530                     	ds	1
   489  000531                     _ucCountPos:
   490                           	callstack 0
   491  000531                     	ds	1
   492  000532                     _ucCountFreq:
   493                           	callstack 0
   494  000532                     	ds	1
   495                           
   496                           	psect	dataCOMRAM
   497  000559                     __pdataCOMRAM:
   498                           	callstack 0
   499  000559                     _ucWheelID:
   500                           	callstack 0
   501  000559                     	ds	1
   502                           
   503                           	psect	cstackCOMRAM
   504  000533                     __pcstackCOMRAM:
   505                           	callstack 0
   506  000533                     TMR1_WriteTimer@timerVal:
   507                           	callstack 0
   508                           
   509                           ; 2 bytes @ 0x0
   510  000533                     	ds	2
   511  000535                     ?___wmul:
   512                           	callstack 0
   513  000535                     CAN1_OperationModeSet@opMode:
   514                           	callstack 0
   515  000535                     ADC_SetADIInterruptHandler@InterruptHandler:
   516                           	callstack 0
   517  000535                     ADC_SetContext1ThresholdInterruptHandler@InterruptHandler:
   518                           	callstack 0
   519  000535                     ADC_SetActiveClockTuningInterruptHandler@InterruptHandler:
   520                           	callstack 0
   521  000535                     INT0_SetInterruptHandler@InterruptHandler:
   522                           	callstack 0
   523  000535                     INT1_SetInterruptHandler@InterruptHandler:
   524                           	callstack 0
   525  000535                     INT2_SetInterruptHandler@InterruptHandler:
   526                           	callstack 0
   527  000535                     DELAY_milliseconds@milliseconds:
   528                           	callstack 0
   529  000535                     TMR1_SetInterruptHandler@InterruptHandler:
   530                           	callstack 0
   531  000535                     TMR0_SetInterruptHandler@InterruptHandler:
   532                           	callstack 0
   533  000535                     ___wmul@multiplier:
   534                           	callstack 0
   535                           
   536                           ; 2 bytes @ 0x2
   537  000535                     	ds	1
   538  000536                     CAN1_OperationModeSet@status:
   539                           	callstack 0
   540                           
   541                           ; 1 bytes @ 0x3
   542  000536                     	ds	1
   543  000537                     ??_TMR1_Initialize:
   544  000537                     ??_DELAY_milliseconds:
   545  000537                     CAN1_OperationModeSet@requestMode:
   546                           	callstack 0
   547  000537                     ___wmul@multiplicand:
   548                           	callstack 0
   549                           
   550                           ; 2 bytes @ 0x4
   551  000537                     	ds	1
   552  000538                     
   553                           ; 1 bytes @ 0x5
   554  000538                     	ds	1
   555  000539                     ___wmul@product:
   556                           	callstack 0
   557                           
   558                           ; 2 bytes @ 0x6
   559  000539                     	ds	2
   560  00053B                     ?___awdiv:
   561                           	callstack 0
   562  00053B                     ?___lwdiv:
   563                           	callstack 0
   564  00053B                     ___awdiv@dividend:
   565                           	callstack 0
   566  00053B                     ___lwdiv@dividend:
   567                           	callstack 0
   568                           
   569                           ; 2 bytes @ 0x8
   570  00053B                     	ds	2
   571  00053D                     ___awdiv@divisor:
   572                           	callstack 0
   573  00053D                     ___lwdiv@divisor:
   574                           	callstack 0
   575                           
   576                           ; 2 bytes @ 0xA
   577  00053D                     	ds	2
   578  00053F                     ___awdiv@counter:
   579                           	callstack 0
   580  00053F                     ___lwdiv@quotient:
   581                           	callstack 0
   582                           
   583                           ; 2 bytes @ 0xC
   584  00053F                     	ds	1
   585  000540                     ___awdiv@sign:
   586                           	callstack 0
   587                           
   588                           ; 1 bytes @ 0xD
   589  000540                     	ds	1
   590  000541                     ___lwdiv@counter:
   591                           	callstack 0
   592  000541                     ___awdiv@quotient:
   593                           	callstack 0
   594                           
   595                           ; 2 bytes @ 0xE
   596  000541                     	ds	1
   597  000542                     
   598                           ; 1 bytes @ 0xF
   599  000542                     	ds	1
   600  000543                     ?_ReluctorPosRead:
   601                           	callstack 0
   602                           
   603                           ; 2 bytes @ 0x10
   604  000543                     	ds	2
   605  000545                     ??_ReluctorPosRead:
   606                           
   607                           ; 1 bytes @ 0x12
   608  000545                     	ds	2
   609  000547                     
   610                           ; 1 bytes @ 0x14
   611 ;;
   612 ;;Main: autosize = 0, tempsize = 0, incstack = 0, save=0
   613 ;;
   614 ;; *************** function _main *****************
   615 ;; Defined at:
   616 ;;		line 53 in file "main.c"
   617 ;; Parameters:    Size  Location     Type
   618 ;;		None
   619 ;; Auto vars:     Size  Location     Type
   620 ;;  variable        2    0        unsigned int 
   621 ;; Return value:  Size  Location     Type
   622 ;;                  1    wreg      void 
   623 ;; Registers used:
   624 ;;		wreg, status,2, status,0, prodl, prodh, cstack
   625 ;; Tracked objects:
   626 ;;		On entry : 0/0
   627 ;;		On exit  : 0/0
   628 ;;		Unchanged: 0/0
   629 ;; Data sizes:     COMRAM   BANK5   BANK6   BANK7   BANK8   BANK9  BANK10  BANK11  BANK12  BANK13  BANK14  BANK15  BANK1
      +6  BANK17  BANK18  BANK19  BANK20  BANK21  BANK22  BANK23  BANK24  BANK25  BANK26  BANK27  BANK28  BANK29  BANK30  BANK3
      +1  BANK32  BANK33  BANK34  BANK35  BANK36  BANK37
   630 ;;      Params:         0       0       0       0       0       0       0       0       0       0       0       0       
      +0       0       0       0       0       0       0       0       0       0       0       0       0       0       0       
      +0       0       0       0       0       0       0
   631 ;;      Locals:         0       0       0       0       0       0       0       0       0       0       0       0       
      +0       0       0       0       0       0       0       0       0       0       0       0       0       0       0       
      +0       0       0       0       0       0       0
   632 ;;      Temps:          0       0       0       0       0       0       0       0       0       0       0       0       
      +0       0       0       0       0       0       0       0       0       0       0       0       0       0       0       
      +0       0       0       0       0       0       0
   633 ;;      Totals:         0       0       0       0       0       0       0       0       0       0       0       0       
      +0       0       0       0       0       0       0       0       0       0       0       0       0       0       0       
      +0       0       0       0       0       0       0
   634 ;;Total ram usage:        0 bytes
   635 ;; Hardware stack levels required when called: 8
   636 ;; This function calls:
   637 ;;		_DELAY_milliseconds
   638 ;;		_ReluctorFreqRead
   639 ;;		_ReluctorPosRead
   640 ;;		_SYSTEM_Initialize
   641 ;; This function is called by:
   642 ;;		Startup code after reset
   643 ;; This function uses a non-reentrant model
   644 ;;
   645                           
   646                           	psect	text0
   647  002B08                     __ptext0:
   648                           	callstack 0
   649  002B08                     _main:
   650                           	callstack 119
   651  002B08                     
   652                           ;main.c: 56:     SYSTEM_Initialize();
   653  002B08  ECA9  F016         	call	_SYSTEM_Initialize	;wreg free
   654  002B0C                     
   655                           ;main.c: 63:     (INTCON0bits.GIE = 1);
   656  002B0C  8ED6               	bsf	214,7,c	;volatile
   657  002B0E  98BE               	bcf	190,4,c	;volatile
   658  002B10  82C7               	bsf	199,1,c	;volatile
   659  002B12  98C6               	bcf	198,4,c	;volatile
   660  002B14                     l3504:
   661  002B14  88BE               	bsf	190,4,c	;volatile
   662  002B16                     
   663                           ;main.c: 79:         DELAY_milliseconds(1000);
   664  002B16  0E03               	movlw	3
   665  002B18  6E36               	movwf	(DELAY_milliseconds@milliseconds+1)^(0+1280),c
   666  002B1A  0EE8               	movlw	232
   667  002B1C  6E35               	movwf	DELAY_milliseconds@milliseconds^(0+1280),c
   668  002B1E  EC0D  F016         	call	_DELAY_milliseconds	;wreg free
   669  002B22                     
   670                           ;main.c: 80:         ReluctorFreqRead();
   671  002B22  EC2D  F014         	call	_ReluctorFreqRead	;wreg free
   672  002B26  98BE               	bcf	190,4,c	;volatile
   673  002B28                     
   674                           ;main.c: 82:         DELAY_milliseconds(1000);
   675  002B28  0E03               	movlw	3
   676  002B2A  6E36               	movwf	(DELAY_milliseconds@milliseconds+1)^(0+1280),c
   677  002B2C  0EE8               	movlw	232
   678  002B2E  6E35               	movwf	DELAY_milliseconds@milliseconds^(0+1280),c
   679  002B30  EC0D  F016         	call	_DELAY_milliseconds	;wreg free
   680                           
   681                           ;main.c: 83:         ReluctorFreqRead();
   682  002B34  EC2D  F014         	call	_ReluctorFreqRead	;wreg free
   683  002B38  EC18  F015         	call	_ReluctorPosRead	;wreg free
   684  002B3C  EF8A  F015         	goto	l3504
   685  002B40  EF0D  F000         	goto	start
   686  002B44                     __end_of_main:
   687                           	callstack 0
   688                           
   689 ;; *************** function _SYSTEM_Initialize *****************
   690 ;; Defined at:
   691 ;;		line 50 in file "mcc_generated_files/mcc.c"
   692 ;; Parameters:    Size  Location     Type
   693 ;;		None
   694 ;; Auto vars:     Size  Location     Type
   695 ;;		None
   696 ;; Return value:  Size  Location     Type
   697 ;;                  1    wreg      void 
   698 ;; Registers used:
   699 ;;		wreg, status,2, status,0, cstack
   700 ;; Tracked objects:
   701 ;;		On entry : 0/0
   702 ;;		On exit  : 0/0
   703 ;;		Unchanged: 0/0
   704 ;; Data sizes:     COMRAM   BANK5   BANK6   BANK7   BANK8   BANK9  BANK10  BANK11  BANK12  BANK13  BANK14  BANK15  BANK1
      +6  BANK17  BANK18  BANK19  BANK20  BANK21  BANK22  BANK23  BANK24  BANK25  BANK26  BANK27  BANK28  BANK29  BANK30  BANK3
      +1  BANK32  BANK33  BANK34  BANK35  BANK36  BANK37
   705 ;;      Params:         0       0       0       0       0       0       0       0       0       0       0       0       
      +0       0       0       0       0       0       0       0       0       0       0       0       0       0       0       
      +0       0       0       0       0       0       0
   706 ;;      Locals:         0       0       0       0       0       0       0       0       0       0       0       0       
      +0       0       0       0       0       0       0       0       0       0       0       0       0       0       0       
      +0       0       0       0       0       0       0
   707 ;;      Temps:          0       0       0       0       0       0       0       0       0       0       0       0       
      +0       0       0       0       0       0       0       0       0       0       0       0       0       0       0       
      +0       0       0       0       0       0       0
   708 ;;      Totals:         0       0       0       0       0       0       0       0       0       0       0       0       
      +0       0       0       0       0       0       0       0       0       0       0       0       0       0       0       
      +0       0       0       0       0       0       0
   709 ;;Total ram usage:        0 bytes
   710 ;; Hardware stack levels used: 1
   711 ;; Hardware stack levels required when called: 7
   712 ;; This function calls:
   713 ;;		_ADC_Initialize
   714 ;;		_CAN1_Initialize
   715 ;;		_EXT_INT_Initialize
   716 ;;		_I2C1_Initialize
   717 ;;		_INTERRUPT_Initialize
   718 ;;		_OSCILLATOR_Initialize
   719 ;;		_PIN_MANAGER_Initialize
   720 ;;		_PMD_Initialize
   721 ;;		_TMR0_Initialize
   722 ;;		_TMR1_Initialize
   723 ;; This function is called by:
   724 ;;		_main
   725 ;; This function uses a non-reentrant model
   726 ;;
   727                           
   728                           	psect	text1
   729  002D52                     __ptext1:
   730                           	callstack 0
   731  002D52                     _SYSTEM_Initialize:
   732                           	callstack 119
   733  002D52                     
   734                           ;mcc_generated_files/mcc.c: 52:     INTERRUPT_Initialize();
   735  002D52  EC6B  F017         	call	_INTERRUPT_Initialize	;wreg free
   736  002D56                     
   737                           ;mcc_generated_files/mcc.c: 53:     PMD_Initialize();
   738  002D56  ECE8  F016         	call	_PMD_Initialize	;wreg free
   739  002D5A                     
   740                           ;mcc_generated_files/mcc.c: 54:     I2C1_Initialize();
   741  002D5A  EC3B  F016         	call	_I2C1_Initialize	;wreg free
   742  002D5E                     
   743                           ;mcc_generated_files/mcc.c: 55:     ADC_Initialize();
   744  002D5E  ECD7  F013         	call	_ADC_Initialize	;wreg free
   745  002D62                     
   746                           ;mcc_generated_files/mcc.c: 56:     PIN_MANAGER_Initialize();
   747  002D62  EC72  F014         	call	_PIN_MANAGER_Initialize	;wreg free
   748  002D66                     
   749                           ;mcc_generated_files/mcc.c: 57:     OSCILLATOR_Initialize();
   750  002D66  EC1C  F017         	call	_OSCILLATOR_Initialize	;wreg free
   751  002D6A                     
   752                           ;mcc_generated_files/mcc.c: 58:     TMR1_Initialize();
   753  002D6A  EC3F  F015         	call	_TMR1_Initialize	;wreg free
   754  002D6E                     
   755                           ;mcc_generated_files/mcc.c: 59:     EXT_INT_Initialize();
   756  002D6E  ECA2  F015         	call	_EXT_INT_Initialize	;wreg free
   757  002D72                     
   758                           ;mcc_generated_files/mcc.c: 60:     TMR0_Initialize();
   759  002D72  ECFC  F016         	call	_TMR0_Initialize	;wreg free
   760  002D76                     
   761                           ;mcc_generated_files/mcc.c: 61:     CAN1_Initialize();
   762  002D76  EC62  F015         	call	_CAN1_Initialize	;wreg free
   763  002D7A  0012               	return		;funcret
   764  002D7C                     __end_of_SYSTEM_Initialize:
   765                           	callstack 0
   766                           
   767 ;; *************** function _TMR1_Initialize *****************
   768 ;; Defined at:
   769 ;;		line 64 in file "mcc_generated_files/tmr1.c"
   770 ;; Parameters:    Size  Location     Type
   771 ;;		None
   772 ;; Auto vars:     Size  Location     Type
   773 ;;		None
   774 ;; Return value:  Size  Location     Type
   775 ;;                  1    wreg      void 
   776 ;; Registers used:
   777 ;;		wreg, status,2, status,0, cstack
   778 ;; Tracked objects:
   779 ;;		On entry : 0/0
   780 ;;		On exit  : 0/0
   781 ;;		Unchanged: 0/0
   782 ;; Data sizes:     COMRAM   BANK5   BANK6   BANK7   BANK8   BANK9  BANK10  BANK11  BANK12  BANK13  BANK14  BANK15  BANK1
      +6  BANK17  BANK18  BANK19  BANK20  BANK21  BANK22  BANK23  BANK24  BANK25  BANK26  BANK27  BANK28  BANK29  BANK30  BANK3
      +1  BANK32  BANK33  BANK34  BANK35  BANK36  BANK37
   783 ;;      Params:         0       0       0       0       0       0       0       0       0       0       0       0       
      +0       0       0       0       0       0       0       0       0       0       0       0       0       0       0       
      +0       0       0       0       0       0       0
   784 ;;      Locals:         0       0       0       0       0       0       0       0       0       0       0       0       
      +0       0       0       0       0       0       0       0       0       0       0       0       0       0       0       
      +0       0       0       0       0       0       0
   785 ;;      Temps:          2       0       0       0       0       0       0       0       0       0       0       0       
      +0       0       0       0       0       0       0       0       0       0       0       0       0       0       0       
      +0       0       0       0       0       0       0
   786 ;;      Totals:         2       0       0       0       0       0       0       0       0       0       0       0       
      +0       0       0       0       0       0       0       0       0       0       0       0       0       0       0       
      +0       0       0       0       0       0       0
   787 ;;Total ram usage:        2 bytes
   788 ;; Hardware stack levels used: 1
   789 ;; Hardware stack levels required when called: 5
   790 ;; This function calls:
   791 ;;		_TMR1_SetInterruptHandler
   792 ;; This function is called by:
   793 ;;		_SYSTEM_Initialize
   794 ;; This function uses a non-reentrant model
   795 ;;
   796                           
   797                           	psect	text2
   798  002A7E                     __ptext2:
   799                           	callstack 0
   800  002A7E                     _TMR1_Initialize:
   801                           	callstack 120
   802  002A7E                     
   803                           ;mcc_generated_files/tmr1.c: 69:     T1GCON = 0x00;
   804  002A7E  0E00               	movlw	0
   805  002A80  0103               	movlb	3	; () banked
   806  002A82  6F1F               	movwf	31,b	;volatile
   807                           
   808                           ;mcc_generated_files/tmr1.c: 72:     T1GATE = 0x00;
   809  002A84  0E00               	movlw	0
   810  002A86  6F20               	movwf	32,b	;volatile
   811                           
   812                           ;mcc_generated_files/tmr1.c: 75:     T1CLK = 0x01;
   813  002A88  0E01               	movlw	1
   814  002A8A  6F21               	movwf	33,b	;volatile
   815                           
   816                           ;mcc_generated_files/tmr1.c: 78:     TMR1H = 0x0B;
   817  002A8C  0E0B               	movlw	11
   818  002A8E  6F1D               	movwf	29,b	;volatile
   819                           
   820                           ;mcc_generated_files/tmr1.c: 81:     TMR1L = 0xDC;
   821  002A90  0EDC               	movlw	220
   822  002A92  6F1C               	movwf	28,b	;volatile
   823  002A94                     
   824                           ; BSR set to: 3
   825                           ;mcc_generated_files/tmr1.c: 84:     PIR3bits.TMR1IF = 0;
   826  002A94  98B1               	bcf	177,4,c	;volatile
   827  002A96                     
   828                           ; BSR set to: 3
   829                           ;mcc_generated_files/tmr1.c: 87:     timer1ReloadVal=(uint16_t)((TMR1H << 8) | TMR1L);
   830  002A96  511C               	movf	28,w,b	;volatile
   831  002A98  0060 FC74  F537    	movff	797,??_TMR1_Initialize	;volatile
   832  002A9E  6A38               	clrf	(??_TMR1_Initialize+1)^(0+1280),c
   833  002AA0  C537  F538         	movff	??_TMR1_Initialize,??_TMR1_Initialize+1
   834  002AA4  6A37               	clrf	??_TMR1_Initialize^(0+1280),c
   835  002AA6  1037               	iorwf	??_TMR1_Initialize^(0+1280),w,c
   836  002AA8  6E4B               	movwf	_timer1ReloadVal^(0+1280),c	;volatile
   837  002AAA  5038               	movf	(??_TMR1_Initialize+1)^(0+1280),w,c
   838  002AAC  6E4C               	movwf	(_timer1ReloadVal+1)^(0+1280),c	;volatile
   839  002AAE                     
   840                           ; BSR set to: 3
   841                           ;mcc_generated_files/tmr1.c: 90:     PIE3bits.TMR1IE = 1;
   842  002AAE  88A1               	bsf	161,4,c	;volatile
   843  002AB0                     
   844                           ; BSR set to: 3
   845                           ;mcc_generated_files/tmr1.c: 93:     TMR1_SetInterruptHandler(TMR1_DefaultInterruptHandl
      +                          er);
   846  002AB0  0EDE               	movlw	low _TMR1_DefaultInterruptHandler
   847  002AB2  6E35               	movwf	TMR1_SetInterruptHandler@InterruptHandler^(0+1280),c
   848  002AB4  0E2E               	movlw	high _TMR1_DefaultInterruptHandler
   849  002AB6  6E36               	movwf	(TMR1_SetInterruptHandler@InterruptHandler+1)^(0+1280),c
   850  002AB8  EC32  F017         	call	_TMR1_SetInterruptHandler	;wreg free
   851  002ABC                     
   852                           ;mcc_generated_files/tmr1.c: 96:     T1CON = 0x21;
   853  002ABC  0E21               	movlw	33
   854  002ABE  0103               	movlb	3	; () banked
   855  002AC0  6F1E               	movwf	30,b	;volatile
   856  002AC2                     
   857                           ; BSR set to: 3
   858  002AC2  0012               	return		;funcret
   859  002AC4                     __end_of_TMR1_Initialize:
   860                           	callstack 0
   861                           
   862 ;; *************** function _TMR1_SetInterruptHandler *****************
   863 ;; Defined at:
   864 ;;		line 192 in file "mcc_generated_files/tmr1.c"
   865 ;; Parameters:    Size  Location     Type
   866 ;;  InterruptHan    2    2[COMRAM] PTR FTN()void 
   867 ;;		 -> TMR1_DefaultInterruptHandler(1), 
   868 ;; Auto vars:     Size  Location     Type
   869 ;;		None
   870 ;; Return value:  Size  Location     Type
   871 ;;                  1    wreg      void 
   872 ;; Registers used:
   873 ;;		wreg, status,2, status,0
   874 ;; Tracked objects:
   875 ;;		On entry : 0/0
   876 ;;		On exit  : 0/0
   877 ;;		Unchanged: 0/0
   878 ;; Data sizes:     COMRAM   BANK5   BANK6   BANK7   BANK8   BANK9  BANK10  BANK11  BANK12  BANK13  BANK14  BANK15  BANK1
      +6  BANK17  BANK18  BANK19  BANK20  BANK21  BANK22  BANK23  BANK24  BANK25  BANK26  BANK27  BANK28  BANK29  BANK30  BANK3
      +1  BANK32  BANK33  BANK34  BANK35  BANK36  BANK37
   879 ;;      Params:         2       0       0       0       0       0       0       0       0       0       0       0       
      +0       0       0       0       0       0       0       0       0       0       0       0       0       0       0       
      +0       0       0       0       0       0       0
   880 ;;      Locals:         0       0       0       0       0       0       0       0       0       0       0       0       
      +0       0       0       0       0       0       0       0       0       0       0       0       0       0       0       
      +0       0       0       0       0       0       0
   881 ;;      Temps:          0       0       0       0       0       0       0       0       0       0       0       0       
      +0       0       0       0       0       0       0       0       0       0       0       0       0       0       0       
      +0       0       0       0       0       0       0
   882 ;;      Totals:         2       0       0       0       0       0       0       0       0       0       0       0       
      +0       0       0       0       0       0       0       0       0       0       0       0       0       0       0       
      +0       0       0       0       0       0       0
   883 ;;Total ram usage:        2 bytes
   884 ;; Hardware stack levels used: 1
   885 ;; Hardware stack levels required when called: 4
   886 ;; This function calls:
   887 ;;		Nothing
   888 ;; This function is called by:
   889 ;;		_TMR1_Initialize
   890 ;; This function uses a non-reentrant model
   891 ;;
   892                           
   893                           	psect	text3
   894  002E64                     __ptext3:
   895                           	callstack 0
   896  002E64                     _TMR1_SetInterruptHandler:
   897                           	callstack 120
   898  002E64                     
   899                           ;mcc_generated_files/tmr1.c: 193:     TMR1_InterruptHandler = InterruptHandler;
   900  002E64  C535  F549         	movff	TMR1_SetInterruptHandler@InterruptHandler,_TMR1_InterruptHandler
   901  002E68  C536  F54A         	movff	TMR1_SetInterruptHandler@InterruptHandler+1,_TMR1_InterruptHandler+1
   902  002E6C  0012               	return		;funcret
   903  002E6E                     __end_of_TMR1_SetInterruptHandler:
   904                           	callstack 0
   905                           
   906 ;; *************** function _TMR0_Initialize *****************
   907 ;; Defined at:
   908 ;;		line 62 in file "mcc_generated_files/tmr0.c"
   909 ;; Parameters:    Size  Location     Type
   910 ;;		None
   911 ;; Auto vars:     Size  Location     Type
   912 ;;		None
   913 ;; Return value:  Size  Location     Type
   914 ;;                  1    wreg      void 
   915 ;; Registers used:
   916 ;;		wreg, status,2, status,0, cstack
   917 ;; Tracked objects:
   918 ;;		On entry : 0/0
   919 ;;		On exit  : 0/0
   920 ;;		Unchanged: 0/0
   921 ;; Data sizes:     COMRAM   BANK5   BANK6   BANK7   BANK8   BANK9  BANK10  BANK11  BANK12  BANK13  BANK14  BANK15  BANK1
      +6  BANK17  BANK18  BANK19  BANK20  BANK21  BANK22  BANK23  BANK24  BANK25  BANK26  BANK27  BANK28  BANK29  BANK30  BANK3
      +1  BANK32  BANK33  BANK34  BANK35  BANK36  BANK37
   922 ;;      Params:         0       0       0       0       0       0       0       0       0       0       0       0       
      +0       0       0       0       0       0       0       0       0       0       0       0       0       0       0       
      +0       0       0       0       0       0       0
   923 ;;      Locals:         0       0       0       0       0       0       0       0       0       0       0       0       
      +0       0       0       0       0       0       0       0       0       0       0       0       0       0       0       
      +0       0       0       0       0       0       0
   924 ;;      Temps:          0       0       0       0       0       0       0       0       0       0       0       0       
      +0       0       0       0       0       0       0       0       0       0       0       0       0       0       0       
      +0       0       0       0       0       0       0
   925 ;;      Totals:         0       0       0       0       0       0       0       0       0       0       0       0       
      +0       0       0       0       0       0       0       0       0       0       0       0       0       0       0       
      +0       0       0       0       0       0       0
   926 ;;Total ram usage:        0 bytes
   927 ;; Hardware stack levels used: 1
   928 ;; Hardware stack levels required when called: 5
   929 ;; This function calls:
   930 ;;		_TMR0_SetInterruptHandler
   931 ;; This function is called by:
   932 ;;		_SYSTEM_Initialize
   933 ;; This function uses a non-reentrant model
   934 ;;
   935                           
   936                           	psect	text4
   937  002DF8                     __ptext4:
   938                           	callstack 0
   939  002DF8                     _TMR0_Initialize:
   940                           	callstack 120
   941  002DF8                     
   942                           ;mcc_generated_files/tmr0.c: 67:     T0CON1 = 0x47;
   943  002DF8  0E47               	movlw	71
   944  002DFA  0103               	movlb	3	; () banked
   945  002DFC  6F1B               	movwf	27,b	;volatile
   946                           
   947                           ;mcc_generated_files/tmr0.c: 70:     TMR0H = 0xC2;
   948  002DFE  0EC2               	movlw	194
   949  002E00  6F19               	movwf	25,b	;volatile
   950                           
   951                           ;mcc_generated_files/tmr0.c: 73:     TMR0L = 0x00;
   952  002E02  0E00               	movlw	0
   953  002E04  6F18               	movwf	24,b	;volatile
   954  002E06                     
   955                           ; BSR set to: 3
   956                           ;mcc_generated_files/tmr0.c: 76:     PIR3bits.TMR0IF = 0;
   957  002E06  9EB1               	bcf	177,7,c	;volatile
   958  002E08                     
   959                           ; BSR set to: 3
   960                           ;mcc_generated_files/tmr0.c: 79:     PIE3bits.TMR0IE = 1;
   961  002E08  8EA1               	bsf	161,7,c	;volatile
   962  002E0A                     
   963                           ; BSR set to: 3
   964                           ;mcc_generated_files/tmr0.c: 82:     TMR0_SetInterruptHandler(TMR0_DefaultInterruptHandl
      +                          er);
   965  002E0A  0EE0               	movlw	low _TMR0_DefaultInterruptHandler
   966  002E0C  6E35               	movwf	TMR0_SetInterruptHandler@InterruptHandler^(0+1280),c
   967  002E0E  0E2E               	movlw	high _TMR0_DefaultInterruptHandler
   968  002E10  6E36               	movwf	(TMR0_SetInterruptHandler@InterruptHandler+1)^(0+1280),c
   969  002E12  EC37  F017         	call	_TMR0_SetInterruptHandler	;wreg free
   970  002E16                     
   971                           ;mcc_generated_files/tmr0.c: 85:     T0CON0 = 0x80;
   972  002E16  0E80               	movlw	128
   973  002E18  0103               	movlb	3	; () banked
   974  002E1A  6F1A               	movwf	26,b	;volatile
   975  002E1C                     
   976                           ; BSR set to: 3
   977  002E1C  0012               	return		;funcret
   978  002E1E                     __end_of_TMR0_Initialize:
   979                           	callstack 0
   980                           
   981 ;; *************** function _TMR0_SetInterruptHandler *****************
   982 ;; Defined at:
   983 ;;		line 155 in file "mcc_generated_files/tmr0.c"
   984 ;; Parameters:    Size  Location     Type
   985 ;;  InterruptHan    2    2[COMRAM] PTR FTN()void 
   986 ;;		 -> TMR0_DefaultInterruptHandler(1), 
   987 ;; Auto vars:     Size  Location     Type
   988 ;;		None
   989 ;; Return value:  Size  Location     Type
   990 ;;                  1    wreg      void 
   991 ;; Registers used:
   992 ;;		wreg, status,2, status,0
   993 ;; Tracked objects:
   994 ;;		On entry : 0/0
   995 ;;		On exit  : 0/0
   996 ;;		Unchanged: 0/0
   997 ;; Data sizes:     COMRAM   BANK5   BANK6   BANK7   BANK8   BANK9  BANK10  BANK11  BANK12  BANK13  BANK14  BANK15  BANK1
      +6  BANK17  BANK18  BANK19  BANK20  BANK21  BANK22  BANK23  BANK24  BANK25  BANK26  BANK27  BANK28  BANK29  BANK30  BANK3
      +1  BANK32  BANK33  BANK34  BANK35  BANK36  BANK37
   998 ;;      Params:         2       0       0       0       0       0       0       0       0       0       0       0       
      +0       0       0       0       0       0       0       0       0       0       0       0       0       0       0       
      +0       0       0       0       0       0       0
   999 ;;      Locals:         0       0       0       0       0       0       0       0       0       0       0       0       
      +0       0       0       0       0       0       0       0       0       0       0       0       0       0       0       
      +0       0       0       0       0       0       0
  1000 ;;      Temps:          0       0       0       0       0       0       0       0       0       0       0       0       
      +0       0       0       0       0       0       0       0       0       0       0       0       0       0       0       
      +0       0       0       0       0       0       0
  1001 ;;      Totals:         2       0       0       0       0       0       0       0       0       0       0       0       
      +0       0       0       0       0       0       0       0       0       0       0       0       0       0       0       
      +0       0       0       0       0       0       0
  1002 ;;Total ram usage:        2 bytes
  1003 ;; Hardware stack levels used: 1
  1004 ;; Hardware stack levels required when called: 4
  1005 ;; This function calls:
  1006 ;;		Nothing
  1007 ;; This function is called by:
  1008 ;;		_TMR0_Initialize
  1009 ;; This function uses a non-reentrant model
  1010 ;;
  1011                           
  1012                           	psect	text5
  1013  002E6E                     __ptext5:
  1014                           	callstack 0
  1015  002E6E                     _TMR0_SetInterruptHandler:
  1016                           	callstack 120
  1017  002E6E                     
  1018                           ;mcc_generated_files/tmr0.c: 156:     TMR0_InterruptHandler = InterruptHandler;
  1019  002E6E  C535  F547         	movff	TMR0_SetInterruptHandler@InterruptHandler,_TMR0_InterruptHandler
  1020  002E72  C536  F548         	movff	TMR0_SetInterruptHandler@InterruptHandler+1,_TMR0_InterruptHandler+1
  1021  002E76  0012               	return		;funcret
  1022  002E78                     __end_of_TMR0_SetInterruptHandler:
  1023                           	callstack 0
  1024                           
  1025 ;; *************** function _PMD_Initialize *****************
  1026 ;; Defined at:
  1027 ;;		line 78 in file "mcc_generated_files/mcc.c"
  1028 ;; Parameters:    Size  Location     Type
  1029 ;;		None
  1030 ;; Auto vars:     Size  Location     Type
  1031 ;;		None
  1032 ;; Return value:  Size  Location     Type
  1033 ;;                  1    wreg      void 
  1034 ;; Registers used:
  1035 ;;		wreg, status,2
  1036 ;; Tracked objects:
  1037 ;;		On entry : 0/0
  1038 ;;		On exit  : 0/0
  1039 ;;		Unchanged: 0/0
  1040 ;; Data sizes:     COMRAM   BANK5   BANK6   BANK7   BANK8   BANK9  BANK10  BANK11  BANK12  BANK13  BANK14  BANK15  BANK1
      +6  BANK17  BANK18  BANK19  BANK20  BANK21  BANK22  BANK23  BANK24  BANK25  BANK26  BANK27  BANK28  BANK29  BANK30  BANK3
      +1  BANK32  BANK33  BANK34  BANK35  BANK36  BANK37
  1041 ;;      Params:         0       0       0       0       0       0       0       0       0       0       0       0       
      +0       0       0       0       0       0       0       0       0       0       0       0       0       0       0       
      +0       0       0       0       0       0       0
  1042 ;;      Locals:         0       0       0       0       0       0       0       0       0       0       0       0       
      +0       0       0       0       0       0       0       0       0       0       0       0       0       0       0       
      +0       0       0       0       0       0       0
  1043 ;;      Temps:          0       0       0       0       0       0       0       0       0       0       0       0       
      +0       0       0       0       0       0       0       0       0       0       0       0       0       0       0       
      +0       0       0       0       0       0       0
  1044 ;;      Totals:         0       0       0       0       0       0       0       0       0       0       0       0       
      +0       0       0       0       0       0       0       0       0       0       0       0       0       0       0       
      +0       0       0       0       0       0       0
  1045 ;;Total ram usage:        0 bytes
  1046 ;; Hardware stack levels used: 1
  1047 ;; Hardware stack levels required when called: 4
  1048 ;; This function calls:
  1049 ;;		Nothing
  1050 ;; This function is called by:
  1051 ;;		_SYSTEM_Initialize
  1052 ;; This function uses a non-reentrant model
  1053 ;;
  1054                           
  1055                           	psect	text6
  1056  002DD0                     __ptext6:
  1057                           	callstack 0
  1058  002DD0                     _PMD_Initialize:
  1059                           	callstack 121
  1060  002DD0                     
  1061                           ;mcc_generated_files/mcc.c: 81:     PMD0 = 0x00;
  1062  002DD0  0E00               	movlw	0
  1063  002DD2  0100               	movlb	0	; () banked
  1064  002DD4  6F60               	movwf	96,b	;volatile
  1065                           
  1066                           ;mcc_generated_files/mcc.c: 83:     PMD1 = 0x00;
  1067  002DD6  0E00               	movlw	0
  1068  002DD8  6F61               	movwf	97,b	;volatile
  1069                           
  1070                           ;mcc_generated_files/mcc.c: 85:     PMD2 = 0x00;
  1071  002DDA  0E00               	movlw	0
  1072  002DDC  6F62               	movwf	98,b	;volatile
  1073                           
  1074                           ;mcc_generated_files/mcc.c: 87:     PMD3 = 0x00;
  1075  002DDE  0E00               	movlw	0
  1076  002DE0  6F63               	movwf	99,b	;volatile
  1077                           
  1078                           ;mcc_generated_files/mcc.c: 89:     PMD4 = 0x00;
  1079  002DE2  0E00               	movlw	0
  1080  002DE4  6F64               	movwf	100,b	;volatile
  1081                           
  1082                           ;mcc_generated_files/mcc.c: 91:     PMD5 = 0x00;
  1083  002DE6  0E00               	movlw	0
  1084  002DE8  6F65               	movwf	101,b	;volatile
  1085                           
  1086                           ;mcc_generated_files/mcc.c: 93:     PMD6 = 0x00;
  1087  002DEA  0E00               	movlw	0
  1088  002DEC  6F66               	movwf	102,b	;volatile
  1089                           
  1090                           ;mcc_generated_files/mcc.c: 95:     PMD7 = 0x00;
  1091  002DEE  0E00               	movlw	0
  1092  002DF0  6F67               	movwf	103,b	;volatile
  1093                           
  1094                           ;mcc_generated_files/mcc.c: 97:     PMD8 = 0x00;
  1095  002DF2  0E00               	movlw	0
  1096  002DF4  6F68               	movwf	104,b	;volatile
  1097  002DF6                     
  1098                           ; BSR set to: 0
  1099  002DF6  0012               	return		;funcret
  1100  002DF8                     __end_of_PMD_Initialize:
  1101                           	callstack 0
  1102                           
  1103 ;; *************** function _PIN_MANAGER_Initialize *****************
  1104 ;; Defined at:
  1105 ;;		line 55 in file "mcc_generated_files/pin_manager.c"
  1106 ;; Parameters:    Size  Location     Type
  1107 ;;		None
  1108 ;; Auto vars:     Size  Location     Type
  1109 ;;		None
  1110 ;; Return value:  Size  Location     Type
  1111 ;;                  1    wreg      void 
  1112 ;; Registers used:
  1113 ;;		wreg, status,2
  1114 ;; Tracked objects:
  1115 ;;		On entry : 0/0
  1116 ;;		On exit  : 0/0
  1117 ;;		Unchanged: 0/0
  1118 ;; Data sizes:     COMRAM   BANK5   BANK6   BANK7   BANK8   BANK9  BANK10  BANK11  BANK12  BANK13  BANK14  BANK15  BANK1
      +6  BANK17  BANK18  BANK19  BANK20  BANK21  BANK22  BANK23  BANK24  BANK25  BANK26  BANK27  BANK28  BANK29  BANK30  BANK3
      +1  BANK32  BANK33  BANK34  BANK35  BANK36  BANK37
  1119 ;;      Params:         0       0       0       0       0       0       0       0       0       0       0       0       
      +0       0       0       0       0       0       0       0       0       0       0       0       0       0       0       
      +0       0       0       0       0       0       0
  1120 ;;      Locals:         0       0       0       0       0       0       0       0       0       0       0       0       
      +0       0       0       0       0       0       0       0       0       0       0       0       0       0       0       
      +0       0       0       0       0       0       0
  1121 ;;      Temps:          0       0       0       0       0       0       0       0       0       0       0       0       
      +0       0       0       0       0       0       0       0       0       0       0       0       0       0       0       
      +0       0       0       0       0       0       0
  1122 ;;      Totals:         0       0       0       0       0       0       0       0       0       0       0       0       
      +0       0       0       0       0       0       0       0       0       0       0       0       0       0       0       
      +0       0       0       0       0       0       0
  1123 ;;Total ram usage:        0 bytes
  1124 ;; Hardware stack levels used: 1
  1125 ;; Hardware stack levels required when called: 4
  1126 ;; This function calls:
  1127 ;;		Nothing
  1128 ;; This function is called by:
  1129 ;;		_SYSTEM_Initialize
  1130 ;; This function uses a non-reentrant model
  1131 ;;
  1132                           
  1133                           	psect	text7
  1134  0028E4                     __ptext7:
  1135                           	callstack 0
  1136  0028E4                     _PIN_MANAGER_Initialize:
  1137                           	callstack 121
  1138  0028E4                     
  1139                           ;mcc_generated_files/pin_manager.c: 60:     LATA = 0x00;
  1140  0028E4  0E00               	movlw	0
  1141  0028E6  6EBE               	movwf	190,c	;volatile
  1142                           
  1143                           ;mcc_generated_files/pin_manager.c: 61:     LATB = 0x00;
  1144  0028E8  0E00               	movlw	0
  1145  0028EA  6EBF               	movwf	191,c	;volatile
  1146                           
  1147                           ;mcc_generated_files/pin_manager.c: 62:     LATC = 0x00;
  1148  0028EC  0E00               	movlw	0
  1149  0028EE  6EC0               	movwf	192,c	;volatile
  1150                           
  1151                           ;mcc_generated_files/pin_manager.c: 67:     TRISE = 0x08;
  1152  0028F0  0E08               	movlw	8
  1153  0028F2  6ECA               	movwf	202,c	;volatile
  1154                           
  1155                           ;mcc_generated_files/pin_manager.c: 68:     TRISA = 0xEF;
  1156  0028F4  0EEF               	movlw	239
  1157  0028F6  6EC6               	movwf	198,c	;volatile
  1158                           
  1159                           ;mcc_generated_files/pin_manager.c: 69:     TRISB = 0xEF;
  1160  0028F8  0EEF               	movlw	239
  1161  0028FA  6EC7               	movwf	199,c	;volatile
  1162                           
  1163                           ;mcc_generated_files/pin_manager.c: 70:     TRISC = 0xE7;
  1164  0028FC  0EE7               	movlw	231
  1165  0028FE  6EC8               	movwf	200,c	;volatile
  1166                           
  1167                           ;mcc_generated_files/pin_manager.c: 75:     ANSELC = 0x67;
  1168  002900  0E67               	movlw	103
  1169  002902  0104               	movlb	4	; () banked
  1170  002904  6F10               	movwf	16,b	;volatile
  1171                           
  1172                           ;mcc_generated_files/pin_manager.c: 76:     ANSELB = 0xF0;
  1173  002906  0EF0               	movlw	240
  1174  002908  6F08               	movwf	8,b	;volatile
  1175  00290A                     
  1176                           ; BSR set to: 4
  1177                           ;mcc_generated_files/pin_manager.c: 77:     ANSELA = 0xFF;
  1178  00290A  6900               	setf	0,b	;volatile
  1179                           
  1180                           ;mcc_generated_files/pin_manager.c: 82:     WPUE = 0x00;
  1181  00290C  0E00               	movlw	0
  1182  00290E  6F21               	movwf	33,b	;volatile
  1183                           
  1184                           ;mcc_generated_files/pin_manager.c: 83:     WPUB = 0x00;
  1185  002910  0E00               	movlw	0
  1186  002912  6F09               	movwf	9,b	;volatile
  1187                           
  1188                           ;mcc_generated_files/pin_manager.c: 84:     WPUA = 0x00;
  1189  002914  0E00               	movlw	0
  1190  002916  6F01               	movwf	1,b	;volatile
  1191                           
  1192                           ;mcc_generated_files/pin_manager.c: 85:     WPUC = 0x00;
  1193  002918  0E00               	movlw	0
  1194  00291A  6F11               	movwf	17,b	;volatile
  1195                           
  1196                           ;mcc_generated_files/pin_manager.c: 90:     ODCONA = 0x00;
  1197  00291C  0E00               	movlw	0
  1198  00291E  6F02               	movwf	2,b	;volatile
  1199                           
  1200                           ;mcc_generated_files/pin_manager.c: 91:     ODCONB = 0x00;
  1201  002920  0E00               	movlw	0
  1202  002922  6F0A               	movwf	10,b	;volatile
  1203                           
  1204                           ;mcc_generated_files/pin_manager.c: 92:     ODCONC = 0x18;
  1205  002924  0E18               	movlw	24
  1206  002926  6F12               	movwf	18,b	;volatile
  1207  002928                     
  1208                           ; BSR set to: 4
  1209                           ;mcc_generated_files/pin_manager.c: 97:     SLRCONA = 0xFF;
  1210  002928  6903               	setf	3,b	;volatile
  1211  00292A                     
  1212                           ; BSR set to: 4
  1213                           ;mcc_generated_files/pin_manager.c: 98:     SLRCONB = 0xFF;
  1214  00292A  690B               	setf	11,b	;volatile
  1215  00292C                     
  1216                           ; BSR set to: 4
  1217                           ;mcc_generated_files/pin_manager.c: 99:     SLRCONC = 0xFF;
  1218  00292C  6913               	setf	19,b	;volatile
  1219  00292E                     
  1220                           ; BSR set to: 4
  1221                           ;mcc_generated_files/pin_manager.c: 104:     INLVLA = 0xFF;
  1222  00292E  6904               	setf	4,b	;volatile
  1223  002930                     
  1224                           ; BSR set to: 4
  1225                           ;mcc_generated_files/pin_manager.c: 105:     INLVLB = 0xFF;
  1226  002930  690C               	setf	12,b	;volatile
  1227  002932                     
  1228                           ; BSR set to: 4
  1229                           ;mcc_generated_files/pin_manager.c: 106:     INLVLC = 0xFF;
  1230  002932  6914               	setf	20,b	;volatile
  1231                           
  1232                           ;mcc_generated_files/pin_manager.c: 107:     INLVLE = 0x08;
  1233  002934  0E08               	movlw	8
  1234  002936  6F24               	movwf	36,b	;volatile
  1235                           
  1236                           ;mcc_generated_files/pin_manager.c: 116:     ADACTPPS = 0x17;
  1237  002938  0E17               	movlw	23
  1238  00293A  0102               	movlb	2	; () banked
  1239  00293C  6F69               	movwf	105,b	;volatile
  1240                           
  1241                           ;mcc_generated_files/pin_manager.c: 117:     I2C1SDAPPS = 0x14;
  1242  00293E  0E14               	movlw	20
  1243  002940  6F70               	movwf	112,b	;volatile
  1244                           
  1245                           ;mcc_generated_files/pin_manager.c: 118:     RC3PPS = 0x37;
  1246  002942  0E37               	movlw	55
  1247  002944  6F14               	movwf	20,b	;volatile
  1248                           
  1249                           ;mcc_generated_files/pin_manager.c: 119:     INT0PPS = 0x08;
  1250  002946  0E08               	movlw	8
  1251  002948  6F3E               	movwf	62,b	;volatile
  1252                           
  1253                           ;mcc_generated_files/pin_manager.c: 120:     RC4PPS = 0x38;
  1254  00294A  0E38               	movlw	56
  1255  00294C  6F15               	movwf	21,b	;volatile
  1256                           
  1257                           ;mcc_generated_files/pin_manager.c: 121:     CANRXPPS = 0x0B;
  1258  00294E  0E0B               	movlw	11
  1259  002950  6F3D               	movwf	61,b	;volatile
  1260                           
  1261                           ;mcc_generated_files/pin_manager.c: 122:     RB4PPS = 0x46;
  1262  002952  0E46               	movlw	70
  1263  002954  6F0D               	movwf	13,b	;volatile
  1264                           
  1265                           ;mcc_generated_files/pin_manager.c: 123:     INT2PPS = 0x0A;
  1266  002956  0E0A               	movlw	10
  1267  002958  6F40               	movwf	64,b	;volatile
  1268                           
  1269                           ;mcc_generated_files/pin_manager.c: 124:     INT1PPS = 0x09;
  1270  00295A  0E09               	movlw	9
  1271  00295C  6F3F               	movwf	63,b	;volatile
  1272                           
  1273                           ;mcc_generated_files/pin_manager.c: 125:     I2C1SCLPPS = 0x13;
  1274  00295E  0E13               	movlw	19
  1275  002960  6F71               	movwf	113,b	;volatile
  1276  002962                     
  1277                           ; BSR set to: 2
  1278  002962  0012               	return		;funcret
  1279  002964                     __end_of_PIN_MANAGER_Initialize:
  1280                           	callstack 0
  1281                           
  1282 ;; *************** function _OSCILLATOR_Initialize *****************
  1283 ;; Defined at:
  1284 ;;		line 64 in file "mcc_generated_files/mcc.c"
  1285 ;; Parameters:    Size  Location     Type
  1286 ;;		None
  1287 ;; Auto vars:     Size  Location     Type
  1288 ;;		None
  1289 ;; Return value:  Size  Location     Type
  1290 ;;                  1    wreg      void 
  1291 ;; Registers used:
  1292 ;;		wreg, status,2
  1293 ;; Tracked objects:
  1294 ;;		On entry : 0/0
  1295 ;;		On exit  : 0/0
  1296 ;;		Unchanged: 0/0
  1297 ;; Data sizes:     COMRAM   BANK5   BANK6   BANK7   BANK8   BANK9  BANK10  BANK11  BANK12  BANK13  BANK14  BANK15  BANK1
      +6  BANK17  BANK18  BANK19  BANK20  BANK21  BANK22  BANK23  BANK24  BANK25  BANK26  BANK27  BANK28  BANK29  BANK30  BANK3
      +1  BANK32  BANK33  BANK34  BANK35  BANK36  BANK37
  1298 ;;      Params:         0       0       0       0       0       0       0       0       0       0       0       0       
      +0       0       0       0       0       0       0       0       0       0       0       0       0       0       0       
      +0       0       0       0       0       0       0
  1299 ;;      Locals:         0       0       0       0       0       0       0       0       0       0       0       0       
      +0       0       0       0       0       0       0       0       0       0       0       0       0       0       0       
      +0       0       0       0       0       0       0
  1300 ;;      Temps:          0       0       0       0       0       0       0       0       0       0       0       0       
      +0       0       0       0       0       0       0       0       0       0       0       0       0       0       0       
      +0       0       0       0       0       0       0
  1301 ;;      Totals:         0       0       0       0       0       0       0       0       0       0       0       0       
      +0       0       0       0       0       0       0       0       0       0       0       0       0       0       0       
      +0       0       0       0       0       0       0
  1302 ;;Total ram usage:        0 bytes
  1303 ;; Hardware stack levels used: 1
  1304 ;; Hardware stack levels required when called: 4
  1305 ;; This function calls:
  1306 ;;		Nothing
  1307 ;; This function is called by:
  1308 ;;		_SYSTEM_Initialize
  1309 ;; This function uses a non-reentrant model
  1310 ;;
  1311                           
  1312                           	psect	text8
  1313  002E38                     __ptext8:
  1314                           	callstack 0
  1315  002E38                     _OSCILLATOR_Initialize:
  1316                           	callstack 121
  1317  002E38                     
  1318                           ;mcc_generated_files/mcc.c: 67:     OSCCON1 = 0x70;
  1319  002E38  0E70               	movlw	112
  1320  002E3A  0100               	movlb	0	; () banked
  1321  002E3C  6FAD               	movwf	173,b	;volatile
  1322                           
  1323                           ;mcc_generated_files/mcc.c: 69:     OSCCON3 = 0x00;
  1324  002E3E  0E00               	movlw	0
  1325  002E40  6FAF               	movwf	175,b	;volatile
  1326                           
  1327                           ;mcc_generated_files/mcc.c: 71:     OSCEN = 0x00;
  1328  002E42  0E00               	movlw	0
  1329  002E44  6FB3               	movwf	179,b	;volatile
  1330                           
  1331                           ;mcc_generated_files/mcc.c: 73:     OSCFRQ = 0x02;
  1332  002E46  0E02               	movlw	2
  1333  002E48  6FB1               	movwf	177,b	;volatile
  1334                           
  1335                           ;mcc_generated_files/mcc.c: 75:     OSCTUNE = 0x00;
  1336  002E4A  0E00               	movlw	0
  1337  002E4C  6FB0               	movwf	176,b	;volatile
  1338  002E4E                     
  1339                           ; BSR set to: 0
  1340  002E4E  0012               	return		;funcret
  1341  002E50                     __end_of_OSCILLATOR_Initialize:
  1342                           	callstack 0
  1343                           
  1344 ;; *************** function _INTERRUPT_Initialize *****************
  1345 ;; Defined at:
  1346 ;;		line 52 in file "mcc_generated_files/interrupt_manager.c"
  1347 ;; Parameters:    Size  Location     Type
  1348 ;;		None
  1349 ;; Auto vars:     Size  Location     Type
  1350 ;;		None
  1351 ;; Return value:  Size  Location     Type
  1352 ;;                  1    wreg      void 
  1353 ;; Registers used:
  1354 ;;		None
  1355 ;; Tracked objects:
  1356 ;;		On entry : 0/0
  1357 ;;		On exit  : 0/0
  1358 ;;		Unchanged: 0/0
  1359 ;; Data sizes:     COMRAM   BANK5   BANK6   BANK7   BANK8   BANK9  BANK10  BANK11  BANK12  BANK13  BANK14  BANK15  BANK1
      +6  BANK17  BANK18  BANK19  BANK20  BANK21  BANK22  BANK23  BANK24  BANK25  BANK26  BANK27  BANK28  BANK29  BANK30  BANK3
      +1  BANK32  BANK33  BANK34  BANK35  BANK36  BANK37
  1360 ;;      Params:         0       0       0       0       0       0       0       0       0       0       0       0       
      +0       0       0       0       0       0       0       0       0       0       0       0       0       0       0       
      +0       0       0       0       0       0       0
  1361 ;;      Locals:         0       0       0       0       0       0       0       0       0       0       0       0       
      +0       0       0       0       0       0       0       0       0       0       0       0       0       0       0       
      +0       0       0       0       0       0       0
  1362 ;;      Temps:          0       0       0       0       0       0       0       0       0       0       0       0       
      +0       0       0       0       0       0       0       0       0       0       0       0       0       0       0       
      +0       0       0       0       0       0       0
  1363 ;;      Totals:         0       0       0       0       0       0       0       0       0       0       0       0       
      +0       0       0       0       0       0       0       0       0       0       0       0       0       0       0       
      +0       0       0       0       0       0       0
  1364 ;;Total ram usage:        0 bytes
  1365 ;; Hardware stack levels used: 1
  1366 ;; Hardware stack levels required when called: 4
  1367 ;; This function calls:
  1368 ;;		Nothing
  1369 ;; This function is called by:
  1370 ;;		_SYSTEM_Initialize
  1371 ;; This function uses a non-reentrant model
  1372 ;;
  1373                           
  1374                           	psect	text9
  1375  002ED6                     __ptext9:
  1376                           	callstack 0
  1377  002ED6                     _INTERRUPT_Initialize:
  1378                           	callstack 121
  1379  002ED6                     
  1380                           ;mcc_generated_files/interrupt_manager.c: 55:     INTCON0bits.IPEN = 0;
  1381  002ED6  9AD6               	bcf	214,5,c	;volatile
  1382  002ED8  0012               	return		;funcret
  1383  002EDA                     __end_of_INTERRUPT_Initialize:
  1384                           	callstack 0
  1385                           
  1386 ;; *************** function _I2C1_Initialize *****************
  1387 ;; Defined at:
  1388 ;;		line 183 in file "mcc_generated_files/i2c1_master.c"
  1389 ;; Parameters:    Size  Location     Type
  1390 ;;		None
  1391 ;; Auto vars:     Size  Location     Type
  1392 ;;		None
  1393 ;; Return value:  Size  Location     Type
  1394 ;;                  1    wreg      void 
  1395 ;; Registers used:
  1396 ;;		wreg, status,2
  1397 ;; Tracked objects:
  1398 ;;		On entry : 0/0
  1399 ;;		On exit  : 0/0
  1400 ;;		Unchanged: 0/0
  1401 ;; Data sizes:     COMRAM   BANK5   BANK6   BANK7   BANK8   BANK9  BANK10  BANK11  BANK12  BANK13  BANK14  BANK15  BANK1
      +6  BANK17  BANK18  BANK19  BANK20  BANK21  BANK22  BANK23  BANK24  BANK25  BANK26  BANK27  BANK28  BANK29  BANK30  BANK3
      +1  BANK32  BANK33  BANK34  BANK35  BANK36  BANK37
  1402 ;;      Params:         0       0       0       0       0       0       0       0       0       0       0       0       
      +0       0       0       0       0       0       0       0       0       0       0       0       0       0       0       
      +0       0       0       0       0       0       0
  1403 ;;      Locals:         0       0       0       0       0       0       0       0       0       0       0       0       
      +0       0       0       0       0       0       0       0       0       0       0       0       0       0       0       
      +0       0       0       0       0       0       0
  1404 ;;      Temps:          0       0       0       0       0       0       0       0       0       0       0       0       
      +0       0       0       0       0       0       0       0       0       0       0       0       0       0       0       
      +0       0       0       0       0       0       0
  1405 ;;      Totals:         0       0       0       0       0       0       0       0       0       0       0       0       
      +0       0       0       0       0       0       0       0       0       0       0       0       0       0       0       
      +0       0       0       0       0       0       0
  1406 ;;Total ram usage:        0 bytes
  1407 ;; Hardware stack levels used: 1
  1408 ;; Hardware stack levels required when called: 4
  1409 ;; This function calls:
  1410 ;;		Nothing
  1411 ;; This function is called by:
  1412 ;;		_SYSTEM_Initialize
  1413 ;; This function uses a non-reentrant model
  1414 ;;
  1415                           
  1416                           	psect	text10
  1417  002C76                     __ptext10:
  1418                           	callstack 0
  1419  002C76                     _I2C1_Initialize:
  1420                           	callstack 121
  1421  002C76                     
  1422                           ;mcc_generated_files/i2c1_master.c: 186:     I2C1CON0 = 0x04;
  1423  002C76  0E04               	movlw	4
  1424  002C78  0102               	movlb	2	; () banked
  1425  002C7A  6F94               	movwf	148,b	;volatile
  1426                           
  1427                           ;mcc_generated_files/i2c1_master.c: 188:     I2C1CON1 = 0x80;
  1428  002C7C  0E80               	movlw	128
  1429  002C7E  6F95               	movwf	149,b	;volatile
  1430                           
  1431                           ;mcc_generated_files/i2c1_master.c: 190:     I2C1CON2 = 0x18;
  1432  002C80  0E18               	movlw	24
  1433  002C82  6F96               	movwf	150,b	;volatile
  1434                           
  1435                           ;mcc_generated_files/i2c1_master.c: 192:     I2C1CLK = 0x03;
  1436  002C84  0E03               	movlw	3
  1437  002C86  6F9E               	movwf	158,b	;volatile
  1438                           
  1439                           ;mcc_generated_files/i2c1_master.c: 194:     I2C1PIR = 0x00;
  1440  002C88  0E00               	movlw	0
  1441  002C8A  6F9A               	movwf	154,b	;volatile
  1442                           
  1443                           ;mcc_generated_files/i2c1_master.c: 196:     I2C1PIE = 0x00;
  1444  002C8C  0E00               	movlw	0
  1445  002C8E  6F9B               	movwf	155,b	;volatile
  1446                           
  1447                           ;mcc_generated_files/i2c1_master.c: 198:     I2C1ERR = 0x00;
  1448  002C90  0E00               	movlw	0
  1449  002C92  6F97               	movwf	151,b	;volatile
  1450                           
  1451                           ;mcc_generated_files/i2c1_master.c: 200:     I2C1CNTL = 0x00;
  1452  002C94  0E00               	movlw	0
  1453  002C96  6F8C               	movwf	140,b	;volatile
  1454                           
  1455                           ;mcc_generated_files/i2c1_master.c: 201:     I2C1CNTH = 0x00;
  1456  002C98  0E00               	movlw	0
  1457  002C9A  6F8D               	movwf	141,b	;volatile
  1458                           
  1459                           ;mcc_generated_files/i2c1_master.c: 203:     I2C1BAUD = 0x00;
  1460  002C9C  0E00               	movlw	0
  1461  002C9E  6F9D               	movwf	157,b	;volatile
  1462  002CA0                     
  1463                           ; BSR set to: 2
  1464  002CA0  0012               	return		;funcret
  1465  002CA2                     __end_of_I2C1_Initialize:
  1466                           	callstack 0
  1467                           
  1468 ;; *************** function _EXT_INT_Initialize *****************
  1469 ;; Defined at:
  1470 ;;		line 121 in file "mcc_generated_files/ext_int.c"
  1471 ;; Parameters:    Size  Location     Type
  1472 ;;		None
  1473 ;; Auto vars:     Size  Location     Type
  1474 ;;		None
  1475 ;; Return value:  Size  Location     Type
  1476 ;;                  1    wreg      void 
  1477 ;; Registers used:
  1478 ;;		wreg, status,2, status,0, cstack
  1479 ;; Tracked objects:
  1480 ;;		On entry : 0/0
  1481 ;;		On exit  : 0/0
  1482 ;;		Unchanged: 0/0
  1483 ;; Data sizes:     COMRAM   BANK5   BANK6   BANK7   BANK8   BANK9  BANK10  BANK11  BANK12  BANK13  BANK14  BANK15  BANK1
      +6  BANK17  BANK18  BANK19  BANK20  BANK21  BANK22  BANK23  BANK24  BANK25  BANK26  BANK27  BANK28  BANK29  BANK30  BANK3
      +1  BANK32  BANK33  BANK34  BANK35  BANK36  BANK37
  1484 ;;      Params:         0       0       0       0       0       0       0       0       0       0       0       0       
      +0       0       0       0       0       0       0       0       0       0       0       0       0       0       0       
      +0       0       0       0       0       0       0
  1485 ;;      Locals:         0       0       0       0       0       0       0       0       0       0       0       0       
      +0       0       0       0       0       0       0       0       0       0       0       0       0       0       0       
      +0       0       0       0       0       0       0
  1486 ;;      Temps:          0       0       0       0       0       0       0       0       0       0       0       0       
      +0       0       0       0       0       0       0       0       0       0       0       0       0       0       0       
      +0       0       0       0       0       0       0
  1487 ;;      Totals:         0       0       0       0       0       0       0       0       0       0       0       0       
      +0       0       0       0       0       0       0       0       0       0       0       0       0       0       0       
      +0       0       0       0       0       0       0
  1488 ;;Total ram usage:        0 bytes
  1489 ;; Hardware stack levels used: 1
  1490 ;; Hardware stack levels required when called: 5
  1491 ;; This function calls:
  1492 ;;		_INT0_SetInterruptHandler
  1493 ;;		_INT1_SetInterruptHandler
  1494 ;;		_INT2_SetInterruptHandler
  1495 ;; This function is called by:
  1496 ;;		_SYSTEM_Initialize
  1497 ;; This function uses a non-reentrant model
  1498 ;;
  1499                           
  1500                           	psect	text11
  1501  002B44                     __ptext11:
  1502                           	callstack 0
  1503  002B44                     _EXT_INT_Initialize:
  1504                           	callstack 120
  1505  002B44                     
  1506                           ;mcc_generated_files/ext_int.c: 126:     (PIR1bits.INT0IF = 0);
  1507  002B44  90AF               	bcf	175,0,c	;volatile
  1508                           
  1509                           ;mcc_generated_files/ext_int.c: 127:     (INTCON0bits.INT0EDG = 1);
  1510  002B46  80D6               	bsf	214,0,c	;volatile
  1511  002B48                     
  1512                           ;mcc_generated_files/ext_int.c: 129:     INT0_SetInterruptHandler(INT0_DefaultInterruptH
      +                          andler);
  1513  002B48  0EE6               	movlw	low _INT0_DefaultInterruptHandler
  1514  002B4A  6E35               	movwf	INT0_SetInterruptHandler@InterruptHandler^(0+1280),c
  1515  002B4C  0E2E               	movlw	high _INT0_DefaultInterruptHandler
  1516  002B4E  6E36               	movwf	(INT0_SetInterruptHandler@InterruptHandler+1)^(0+1280),c
  1517  002B50  EC46  F017         	call	_INT0_SetInterruptHandler	;wreg free
  1518  002B54                     
  1519                           ;mcc_generated_files/ext_int.c: 130:     (PIE1bits.INT0IE = 1);
  1520  002B54  809F               	bsf	159,0,c	;volatile
  1521  002B56                     
  1522                           ;mcc_generated_files/ext_int.c: 135:     (PIR6bits.INT1IF = 0);
  1523  002B56  90B4               	bcf	180,0,c	;volatile
  1524  002B58                     
  1525                           ;mcc_generated_files/ext_int.c: 136:     (INTCON0bits.INT1EDG = 1);
  1526  002B58  82D6               	bsf	214,1,c	;volatile
  1527                           
  1528                           ;mcc_generated_files/ext_int.c: 138:     INT1_SetInterruptHandler(INT1_DefaultInterruptH
      +                          andler);
  1529  002B5A  0EE4               	movlw	low _INT1_DefaultInterruptHandler
  1530  002B5C  6E35               	movwf	INT1_SetInterruptHandler@InterruptHandler^(0+1280),c
  1531  002B5E  0E2E               	movlw	high _INT1_DefaultInterruptHandler
  1532  002B60  6E36               	movwf	(INT1_SetInterruptHandler@InterruptHandler+1)^(0+1280),c
  1533  002B62  EC41  F017         	call	_INT1_SetInterruptHandler	;wreg free
  1534  002B66                     
  1535                           ;mcc_generated_files/ext_int.c: 139:     (PIE6bits.INT1IE = 1);
  1536  002B66  80A4               	bsf	164,0,c	;volatile
  1537  002B68                     
  1538                           ;mcc_generated_files/ext_int.c: 144:     (PIR10bits.INT2IF = 0);
  1539  002B68  90B8               	bcf	184,0,c	;volatile
  1540  002B6A                     
  1541                           ;mcc_generated_files/ext_int.c: 145:     (INTCON0bits.INT2EDG = 1);
  1542  002B6A  84D6               	bsf	214,2,c	;volatile
  1543                           
  1544                           ;mcc_generated_files/ext_int.c: 147:     INT2_SetInterruptHandler(INT2_DefaultInterruptH
      +                          andler);
  1545  002B6C  0EE2               	movlw	low _INT2_DefaultInterruptHandler
  1546  002B6E  6E35               	movwf	INT2_SetInterruptHandler@InterruptHandler^(0+1280),c
  1547  002B70  0E2E               	movlw	high _INT2_DefaultInterruptHandler
  1548  002B72  6E36               	movwf	(INT2_SetInterruptHandler@InterruptHandler+1)^(0+1280),c
  1549  002B74  EC3C  F017         	call	_INT2_SetInterruptHandler	;wreg free
  1550  002B78                     
  1551                           ;mcc_generated_files/ext_int.c: 148:     (PIE10bits.INT2IE = 1);
  1552  002B78  80A8               	bsf	168,0,c	;volatile
  1553  002B7A  0012               	return		;funcret
  1554  002B7C                     __end_of_EXT_INT_Initialize:
  1555                           	callstack 0
  1556                           
  1557 ;; *************** function _INT2_SetInterruptHandler *****************
  1558 ;; Defined at:
  1559 ;;		line 112 in file "mcc_generated_files/ext_int.c"
  1560 ;; Parameters:    Size  Location     Type
  1561 ;;  InterruptHan    2    2[COMRAM] PTR FTN()void 
  1562 ;;		 -> INT2_DefaultInterruptHandler(1), 
  1563 ;; Auto vars:     Size  Location     Type
  1564 ;;		None
  1565 ;; Return value:  Size  Location     Type
  1566 ;;                  1    wreg      void 
  1567 ;; Registers used:
  1568 ;;		wreg, status,2, status,0
  1569 ;; Tracked objects:
  1570 ;;		On entry : 0/0
  1571 ;;		On exit  : 0/0
  1572 ;;		Unchanged: 0/0
  1573 ;; Data sizes:     COMRAM   BANK5   BANK6   BANK7   BANK8   BANK9  BANK10  BANK11  BANK12  BANK13  BANK14  BANK15  BANK1
      +6  BANK17  BANK18  BANK19  BANK20  BANK21  BANK22  BANK23  BANK24  BANK25  BANK26  BANK27  BANK28  BANK29  BANK30  BANK3
      +1  BANK32  BANK33  BANK34  BANK35  BANK36  BANK37
  1574 ;;      Params:         2       0       0       0       0       0       0       0       0       0       0       0       
      +0       0       0       0       0       0       0       0       0       0       0       0       0       0       0       
      +0       0       0       0       0       0       0
  1575 ;;      Locals:         0       0       0       0       0       0       0       0       0       0       0       0       
      +0       0       0       0       0       0       0       0       0       0       0       0       0       0       0       
      +0       0       0       0       0       0       0
  1576 ;;      Temps:          0       0       0       0       0       0       0       0       0       0       0       0       
      +0       0       0       0       0       0       0       0       0       0       0       0       0       0       0       
      +0       0       0       0       0       0       0
  1577 ;;      Totals:         2       0       0       0       0       0       0       0       0       0       0       0       
      +0       0       0       0       0       0       0       0       0       0       0       0       0       0       0       
      +0       0       0       0       0       0       0
  1578 ;;Total ram usage:        2 bytes
  1579 ;; Hardware stack levels used: 1
  1580 ;; Hardware stack levels required when called: 4
  1581 ;; This function calls:
  1582 ;;		Nothing
  1583 ;; This function is called by:
  1584 ;;		_EXT_INT_Initialize
  1585 ;; This function uses a non-reentrant model
  1586 ;;
  1587                           
  1588                           	psect	text12
  1589  002E78                     __ptext12:
  1590                           	callstack 0
  1591  002E78                     _INT2_SetInterruptHandler:
  1592                           	callstack 120
  1593  002E78                     
  1594                           ;mcc_generated_files/ext_int.c: 113:     INT2_InterruptHandler = InterruptHandler;
  1595  002E78  C535  F54D         	movff	INT2_SetInterruptHandler@InterruptHandler,_INT2_InterruptHandler
  1596  002E7C  C536  F54E         	movff	INT2_SetInterruptHandler@InterruptHandler+1,_INT2_InterruptHandler+1
  1597  002E80  0012               	return		;funcret
  1598  002E82                     __end_of_INT2_SetInterruptHandler:
  1599                           	callstack 0
  1600                           
  1601 ;; *************** function _INT1_SetInterruptHandler *****************
  1602 ;; Defined at:
  1603 ;;		line 86 in file "mcc_generated_files/ext_int.c"
  1604 ;; Parameters:    Size  Location     Type
  1605 ;;  InterruptHan    2    2[COMRAM] PTR FTN()void 
  1606 ;;		 -> INT1_DefaultInterruptHandler(1), 
  1607 ;; Auto vars:     Size  Location     Type
  1608 ;;		None
  1609 ;; Return value:  Size  Location     Type
  1610 ;;                  1    wreg      void 
  1611 ;; Registers used:
  1612 ;;		wreg, status,2, status,0
  1613 ;; Tracked objects:
  1614 ;;		On entry : 0/0
  1615 ;;		On exit  : 0/0
  1616 ;;		Unchanged: 0/0
  1617 ;; Data sizes:     COMRAM   BANK5   BANK6   BANK7   BANK8   BANK9  BANK10  BANK11  BANK12  BANK13  BANK14  BANK15  BANK1
      +6  BANK17  BANK18  BANK19  BANK20  BANK21  BANK22  BANK23  BANK24  BANK25  BANK26  BANK27  BANK28  BANK29  BANK30  BANK3
      +1  BANK32  BANK33  BANK34  BANK35  BANK36  BANK37
  1618 ;;      Params:         2       0       0       0       0       0       0       0       0       0       0       0       
      +0       0       0       0       0       0       0       0       0       0       0       0       0       0       0       
      +0       0       0       0       0       0       0
  1619 ;;      Locals:         0       0       0       0       0       0       0       0       0       0       0       0       
      +0       0       0       0       0       0       0       0       0       0       0       0       0       0       0       
      +0       0       0       0       0       0       0
  1620 ;;      Temps:          0       0       0       0       0       0       0       0       0       0       0       0       
      +0       0       0       0       0       0       0       0       0       0       0       0       0       0       0       
      +0       0       0       0       0       0       0
  1621 ;;      Totals:         2       0       0       0       0       0       0       0       0       0       0       0       
      +0       0       0       0       0       0       0       0       0       0       0       0       0       0       0       
      +0       0       0       0       0       0       0
  1622 ;;Total ram usage:        2 bytes
  1623 ;; Hardware stack levels used: 1
  1624 ;; Hardware stack levels required when called: 4
  1625 ;; This function calls:
  1626 ;;		Nothing
  1627 ;; This function is called by:
  1628 ;;		_EXT_INT_Initialize
  1629 ;; This function uses a non-reentrant model
  1630 ;;
  1631                           
  1632                           	psect	text13
  1633  002E82                     __ptext13:
  1634                           	callstack 0
  1635  002E82                     _INT1_SetInterruptHandler:
  1636                           	callstack 120
  1637  002E82                     
  1638                           ;mcc_generated_files/ext_int.c: 87:     INT1_InterruptHandler = InterruptHandler;
  1639  002E82  C535  F54F         	movff	INT1_SetInterruptHandler@InterruptHandler,_INT1_InterruptHandler
  1640  002E86  C536  F550         	movff	INT1_SetInterruptHandler@InterruptHandler+1,_INT1_InterruptHandler+1
  1641  002E8A  0012               	return		;funcret
  1642  002E8C                     __end_of_INT1_SetInterruptHandler:
  1643                           	callstack 0
  1644                           
  1645 ;; *************** function _INT0_SetInterruptHandler *****************
  1646 ;; Defined at:
  1647 ;;		line 60 in file "mcc_generated_files/ext_int.c"
  1648 ;; Parameters:    Size  Location     Type
  1649 ;;  InterruptHan    2    2[COMRAM] PTR FTN()void 
  1650 ;;		 -> INT0_DefaultInterruptHandler(1), 
  1651 ;; Auto vars:     Size  Location     Type
  1652 ;;		None
  1653 ;; Return value:  Size  Location     Type
  1654 ;;                  1    wreg      void 
  1655 ;; Registers used:
  1656 ;;		wreg, status,2, status,0
  1657 ;; Tracked objects:
  1658 ;;		On entry : 0/0
  1659 ;;		On exit  : 0/0
  1660 ;;		Unchanged: 0/0
  1661 ;; Data sizes:     COMRAM   BANK5   BANK6   BANK7   BANK8   BANK9  BANK10  BANK11  BANK12  BANK13  BANK14  BANK15  BANK1
      +6  BANK17  BANK18  BANK19  BANK20  BANK21  BANK22  BANK23  BANK24  BANK25  BANK26  BANK27  BANK28  BANK29  BANK30  BANK3
      +1  BANK32  BANK33  BANK34  BANK35  BANK36  BANK37
  1662 ;;      Params:         2       0       0       0       0       0       0       0       0       0       0       0       
      +0       0       0       0       0       0       0       0       0       0       0       0       0       0       0       
      +0       0       0       0       0       0       0
  1663 ;;      Locals:         0       0       0       0       0       0       0       0       0       0       0       0       
      +0       0       0       0       0       0       0       0       0       0       0       0       0       0       0       
      +0       0       0       0       0       0       0
  1664 ;;      Temps:          0       0       0       0       0       0       0       0       0       0       0       0       
      +0       0       0       0       0       0       0       0       0       0       0       0       0       0       0       
      +0       0       0       0       0       0       0
  1665 ;;      Totals:         2       0       0       0       0       0       0       0       0       0       0       0       
      +0       0       0       0       0       0       0       0       0       0       0       0       0       0       0       
      +0       0       0       0       0       0       0
  1666 ;;Total ram usage:        2 bytes
  1667 ;; Hardware stack levels used: 1
  1668 ;; Hardware stack levels required when called: 4
  1669 ;; This function calls:
  1670 ;;		Nothing
  1671 ;; This function is called by:
  1672 ;;		_EXT_INT_Initialize
  1673 ;; This function uses a non-reentrant model
  1674 ;;
  1675                           
  1676                           	psect	text14
  1677  002E8C                     __ptext14:
  1678                           	callstack 0
  1679  002E8C                     _INT0_SetInterruptHandler:
  1680                           	callstack 120
  1681  002E8C                     
  1682                           ;mcc_generated_files/ext_int.c: 61:     INT0_InterruptHandler = InterruptHandler;
  1683  002E8C  C535  F551         	movff	INT0_SetInterruptHandler@InterruptHandler,_INT0_InterruptHandler
  1684  002E90  C536  F552         	movff	INT0_SetInterruptHandler@InterruptHandler+1,_INT0_InterruptHandler+1
  1685  002E94  0012               	return		;funcret
  1686  002E96                     __end_of_INT0_SetInterruptHandler:
  1687                           	callstack 0
  1688                           
  1689 ;; *************** function _CAN1_Initialize *****************
  1690 ;; Defined at:
  1691 ;;		line 105 in file "mcc_generated_files/can1.c"
  1692 ;; Parameters:    Size  Location     Type
  1693 ;;		None
  1694 ;; Auto vars:     Size  Location     Type
  1695 ;;		None
  1696 ;; Return value:  Size  Location     Type
  1697 ;;                  1    wreg      void 
  1698 ;; Registers used:
  1699 ;;		wreg, status,2, status,0, cstack
  1700 ;; Tracked objects:
  1701 ;;		On entry : 0/0
  1702 ;;		On exit  : 0/0
  1703 ;;		Unchanged: 0/0
  1704 ;; Data sizes:     COMRAM   BANK5   BANK6   BANK7   BANK8   BANK9  BANK10  BANK11  BANK12  BANK13  BANK14  BANK15  BANK1
      +6  BANK17  BANK18  BANK19  BANK20  BANK21  BANK22  BANK23  BANK24  BANK25  BANK26  BANK27  BANK28  BANK29  BANK30  BANK3
      +1  BANK32  BANK33  BANK34  BANK35  BANK36  BANK37
  1705 ;;      Params:         0       0       0       0       0       0       0       0       0       0       0       0       
      +0       0       0       0       0       0       0       0       0       0       0       0       0       0       0       
      +0       0       0       0       0       0       0
  1706 ;;      Locals:         0       0       0       0       0       0       0       0       0       0       0       0       
      +0       0       0       0       0       0       0       0       0       0       0       0       0       0       0       
      +0       0       0       0       0       0       0
  1707 ;;      Temps:          0       0       0       0       0       0       0       0       0       0       0       0       
      +0       0       0       0       0       0       0       0       0       0       0       0       0       0       0       
      +0       0       0       0       0       0       0
  1708 ;;      Totals:         0       0       0       0       0       0       0       0       0       0       0       0       
      +0       0       0       0       0       0       0       0       0       0       0       0       0       0       0       
      +0       0       0       0       0       0       0
  1709 ;;Total ram usage:        0 bytes
  1710 ;; Hardware stack levels used: 1
  1711 ;; Hardware stack levels required when called: 6
  1712 ;; This function calls:
  1713 ;;		_CAN1_BitRateConfiguration
  1714 ;;		_CAN1_OperationModeSet
  1715 ;; This function is called by:
  1716 ;;		_SYSTEM_Initialize
  1717 ;; This function uses a non-reentrant model
  1718 ;;
  1719                           
  1720                           	psect	text15
  1721  002AC4                     __ptext15:
  1722                           	callstack 0
  1723  002AC4                     _CAN1_Initialize:
  1724                           	callstack 119
  1725  002AC4                     
  1726                           ;mcc_generated_files/can1.c: 108:     C1CONHbits.ON = 1;
  1727  002AC4  0101               	movlb	1	; () banked
  1728  002AC6  8F01               	bsf	1,7,b	;volatile
  1729  002AC8                     
  1730                           ; BSR set to: 1
  1731                           ;mcc_generated_files/can1.c: 110:     if (CAN_OP_MODE_REQUEST_SUCCESS == CAN1_OperationM
      +                          odeSet(CAN_CONFIGURATION_MODE))
  1732  002AC8  0E04               	movlw	4
  1733  002ACA  ECEC  F014         	call	_CAN1_OperationModeSet
  1734  002ACE  0900               	iorlw	0
  1735  002AD0  A4D8               	btfss	status,2,c
  1736  002AD2  EF6D  F015         	goto	u91
  1737  002AD6  EF6F  F015         	goto	u90
  1738  002ADA                     u91:
  1739  002ADA  EF83  F015         	goto	l193
  1740  002ADE                     u90:
  1741  002ADE                     
  1742                           ;mcc_generated_files/can1.c: 111:     {;mcc_generated_files/can1.c: 113:         C1FIFOB
      +                          A = 0x3800;
  1743  002ADE  0E00               	movlw	0
  1744  002AE0  0101               	movlb	1	; () banked
  1745  002AE2  6F4C               	movwf	76,b	;volatile
  1746  002AE4  0E38               	movlw	56
  1747  002AE6  6F4D               	movwf	77,b	;volatile
  1748  002AE8  0E00               	movlw	0
  1749  002AEA  6F4E               	movwf	78,b	;volatile
  1750  002AEC  0E00               	movlw	0
  1751  002AEE  6F4F               	movwf	79,b	;volatile
  1752                           
  1753                           ;mcc_generated_files/can1.c: 116:         C1CONL = 0x60;
  1754  002AF0  0E60               	movlw	96
  1755  002AF2  6F00               	movwf	0,b	;volatile
  1756                           
  1757                           ;mcc_generated_files/can1.c: 119:         C1CONH = 0x97;
  1758  002AF4  0E97               	movlw	151
  1759  002AF6  6F01               	movwf	1,b	;volatile
  1760                           
  1761                           ;mcc_generated_files/can1.c: 122:         C1CONU = 0x00;
  1762  002AF8  0E00               	movlw	0
  1763  002AFA  6F02               	movwf	2,b	;volatile
  1764  002AFC                     
  1765                           ; BSR set to: 1
  1766                           ;mcc_generated_files/can1.c: 124:         CAN1_BitRateConfiguration();
  1767  002AFC  EC28  F017         	call	_CAN1_BitRateConfiguration	;wreg free
  1768  002B00                     
  1769                           ;mcc_generated_files/can1.c: 125:         CAN1_OperationModeSet(CAN_NORMAL_2_0_MODE);
  1770  002B00  0E06               	movlw	6
  1771  002B02  ECEC  F014         	call	_CAN1_OperationModeSet
  1772  002B06                     l193:
  1773  002B06  0012               	return		;funcret
  1774  002B08                     __end_of_CAN1_Initialize:
  1775                           	callstack 0
  1776                           
  1777 ;; *************** function _CAN1_OperationModeSet *****************
  1778 ;; Defined at:
  1779 ;;		line 129 in file "mcc_generated_files/can1.c"
  1780 ;; Parameters:    Size  Location     Type
  1781 ;;  requestMode     1    wreg     const enum E22346
  1782 ;; Auto vars:     Size  Location     Type
  1783 ;;  requestMode     1    4[COMRAM] const enum E22346
  1784 ;;  status          1    3[COMRAM] enum E22356
  1785 ;;  opMode          1    2[COMRAM] enum E22346
  1786 ;; Return value:  Size  Location     Type
  1787 ;;                  1    wreg      enum E22356
  1788 ;; Registers used:
  1789 ;;		wreg, status,2, status,0, cstack
  1790 ;; Tracked objects:
  1791 ;;		On entry : 0/0
  1792 ;;		On exit  : 0/0
  1793 ;;		Unchanged: 0/0
  1794 ;; Data sizes:     COMRAM   BANK5   BANK6   BANK7   BANK8   BANK9  BANK10  BANK11  BANK12  BANK13  BANK14  BANK15  BANK1
      +6  BANK17  BANK18  BANK19  BANK20  BANK21  BANK22  BANK23  BANK24  BANK25  BANK26  BANK27  BANK28  BANK29  BANK30  BANK3
      +1  BANK32  BANK33  BANK34  BANK35  BANK36  BANK37
  1795 ;;      Params:         0       0       0       0       0       0       0       0       0       0       0       0       
      +0       0       0       0       0       0       0       0       0       0       0       0       0       0       0       
      +0       0       0       0       0       0       0
  1796 ;;      Locals:         3       0       0       0       0       0       0       0       0       0       0       0       
      +0       0       0       0       0       0       0       0       0       0       0       0       0       0       0       
      +0       0       0       0       0       0       0
  1797 ;;      Temps:          0       0       0       0       0       0       0       0       0       0       0       0       
      +0       0       0       0       0       0       0       0       0       0       0       0       0       0       0       
      +0       0       0       0       0       0       0
  1798 ;;      Totals:         3       0       0       0       0       0       0       0       0       0       0       0       
      +0       0       0       0       0       0       0       0       0       0       0       0       0       0       0       
      +0       0       0       0       0       0       0
  1799 ;;Total ram usage:        3 bytes
  1800 ;; Hardware stack levels used: 1
  1801 ;; Hardware stack levels required when called: 5
  1802 ;; This function calls:
  1803 ;;		_CAN1_OperationModeGet
  1804 ;; This function is called by:
  1805 ;;		_CAN1_Initialize
  1806 ;;		_CAN1_Sleep
  1807 ;; This function uses a non-reentrant model
  1808 ;;
  1809                           
  1810                           	psect	text16
  1811  0029D8                     __ptext16:
  1812                           	callstack 0
  1813  0029D8                     _CAN1_OperationModeSet:
  1814                           	callstack 119
  1815                           
  1816                           ;incstack = 0
  1817                           ;CAN1_OperationModeSet@requestMode stored from wreg
  1818  0029D8  6E37               	movwf	CAN1_OperationModeSet@requestMode^(0+1280),c
  1819  0029DA                     
  1820                           ;mcc_generated_files/can1.c: 129: CAN_OP_MODE_STATUS CAN1_OperationModeSet(const CAN_OP_
      +                          MODES requestMode);mcc_generated_files/can1.c: 130: {;mcc_generated_files/can1.c: 131:  
      +                             CAN_OP_MODE_STATUS status = CAN_OP_MODE_REQUEST_SUCCESS;
  1821  0029DA  0E00               	movlw	0
  1822  0029DC  6E36               	movwf	CAN1_OperationModeSet@status^(0+1280),c
  1823  0029DE                     
  1824                           ;mcc_generated_files/can1.c: 132:     CAN_OP_MODES opMode = CAN1_OperationModeGet();
  1825  0029DE  EC4B  F017         	call	_CAN1_OperationModeGet	;wreg free
  1826  0029E2  6E35               	movwf	CAN1_OperationModeSet@opMode^(0+1280),c
  1827  0029E4                     
  1828                           ;mcc_generated_files/can1.c: 134:     if (CAN_CONFIGURATION_MODE == opMode
  1829  0029E4  0E04               	movlw	4
  1830  0029E6  1835               	xorwf	CAN1_OperationModeSet@opMode^(0+1280),w,c
  1831  0029E8  B4D8               	btfsc	status,2,c
  1832  0029EA  EFF9  F014         	goto	u31
  1833  0029EE  EFFB  F014         	goto	u30
  1834  0029F2                     u31:
  1835  0029F2  EF0C  F015         	goto	l2074
  1836  0029F6                     u30:
  1837  0029F6  0437               	decf	CAN1_OperationModeSet@requestMode^(0+1280),w,c
  1838  0029F8  B4D8               	btfsc	status,2,c
  1839  0029FA  EF01  F015         	goto	u41
  1840  0029FE  EF03  F015         	goto	u40
  1841  002A02                     u41:
  1842  002A02  EF0C  F015         	goto	l2074
  1843  002A06                     u40:
  1844  002A06  0E04               	movlw	4
  1845  002A08  1837               	xorwf	CAN1_OperationModeSet@requestMode^(0+1280),w,c
  1846  002A0A  A4D8               	btfss	status,2,c
  1847  002A0C  EF0A  F015         	goto	u51
  1848  002A10  EF0C  F015         	goto	u50
  1849  002A14                     u51:
  1850  002A14  EF14  F015         	goto	l2076
  1851  002A18                     u50:
  1852  002A18                     l2074:
  1853                           
  1854                           ;mcc_generated_files/can1.c: 137:     {;mcc_generated_files/can1.c: 138:         C1CONTb
      +                          its.REQOP = requestMode;
  1855  002A18  0101               	movlb	1	; () banked
  1856  002A1A  5103               	movf	3,w,b	;volatile
  1857  002A1C  1837               	xorwf	CAN1_OperationModeSet@requestMode^(0+1280),w,c
  1858  002A1E  0BF8               	andlw	-8
  1859  002A20  1837               	xorwf	CAN1_OperationModeSet@requestMode^(0+1280),w,c
  1860  002A22  6F03               	movwf	3,b	;volatile
  1861                           
  1862                           ;mcc_generated_files/can1.c: 150:     }
  1863  002A24  EF16  F015         	goto	l199
  1864  002A28                     l2076:
  1865                           
  1866                           ;mcc_generated_files/can1.c: 152:     {;mcc_generated_files/can1.c: 153:         status 
      +                          = CAN_OP_MODE_REQUEST_FAIL;
  1867  002A28  0E01               	movlw	1
  1868  002A2A  6E36               	movwf	CAN1_OperationModeSet@status^(0+1280),c
  1869  002A2C                     l199:
  1870                           
  1871                           ;mcc_generated_files/can1.c: 156:     return status;
  1872  002A2C  5036               	movf	CAN1_OperationModeSet@status^(0+1280),w,c
  1873  002A2E  0012               	return		;funcret
  1874  002A30                     __end_of_CAN1_OperationModeSet:
  1875                           	callstack 0
  1876                           
  1877 ;; *************** function _CAN1_OperationModeGet *****************
  1878 ;; Defined at:
  1879 ;;		line 159 in file "mcc_generated_files/can1.c"
  1880 ;; Parameters:    Size  Location     Type
  1881 ;;		None
  1882 ;; Auto vars:     Size  Location     Type
  1883 ;;		None
  1884 ;; Return value:  Size  Location     Type
  1885 ;;                  1    wreg      enum E22346
  1886 ;; Registers used:
  1887 ;;		wreg, status,2, status,0
  1888 ;; Tracked objects:
  1889 ;;		On entry : 0/0
  1890 ;;		On exit  : 0/0
  1891 ;;		Unchanged: 0/0
  1892 ;; Data sizes:     COMRAM   BANK5   BANK6   BANK7   BANK8   BANK9  BANK10  BANK11  BANK12  BANK13  BANK14  BANK15  BANK1
      +6  BANK17  BANK18  BANK19  BANK20  BANK21  BANK22  BANK23  BANK24  BANK25  BANK26  BANK27  BANK28  BANK29  BANK30  BANK3
      +1  BANK32  BANK33  BANK34  BANK35  BANK36  BANK37
  1893 ;;      Params:         0       0       0       0       0       0       0       0       0       0       0       0       
      +0       0       0       0       0       0       0       0       0       0       0       0       0       0       0       
      +0       0       0       0       0       0       0
  1894 ;;      Locals:         0       0       0       0       0       0       0       0       0       0       0       0       
      +0       0       0       0       0       0       0       0       0       0       0       0       0       0       0       
      +0       0       0       0       0       0       0
  1895 ;;      Temps:          0       0       0       0       0       0       0       0       0       0       0       0       
      +0       0       0       0       0       0       0       0       0       0       0       0       0       0       0       
      +0       0       0       0       0       0       0
  1896 ;;      Totals:         0       0       0       0       0       0       0       0       0       0       0       0       
      +0       0       0       0       0       0       0       0       0       0       0       0       0       0       0       
      +0       0       0       0       0       0       0
  1897 ;;Total ram usage:        0 bytes
  1898 ;; Hardware stack levels used: 1
  1899 ;; Hardware stack levels required when called: 4
  1900 ;; This function calls:
  1901 ;;		Nothing
  1902 ;; This function is called by:
  1903 ;;		_CAN1_OperationModeSet
  1904 ;; This function uses a non-reentrant model
  1905 ;;
  1906                           
  1907                           	psect	text17
  1908  002E96                     __ptext17:
  1909                           	callstack 0
  1910  002E96                     _CAN1_OperationModeGet:
  1911                           	callstack 119
  1912  002E96                     
  1913                           ;mcc_generated_files/can1.c: 161:     return C1CONUbits.OPMOD;
  1914  002E96  0101               	movlb	1	; () banked
  1915  002E98  3902               	swapf	2,w,b	;volatile
  1916  002E9A  32E8               	rrcf	wreg,f,c
  1917  002E9C  0B07               	andlw	7
  1918  002E9E                     
  1919                           ; BSR set to: 1
  1920  002E9E  0012               	return		;funcret
  1921  002EA0                     __end_of_CAN1_OperationModeGet:
  1922                           	callstack 0
  1923                           
  1924 ;; *************** function _CAN1_BitRateConfiguration *****************
  1925 ;; Defined at:
  1926 ;;		line 88 in file "mcc_generated_files/can1.c"
  1927 ;; Parameters:    Size  Location     Type
  1928 ;;		None
  1929 ;; Auto vars:     Size  Location     Type
  1930 ;;		None
  1931 ;; Return value:  Size  Location     Type
  1932 ;;                  1    wreg      void 
  1933 ;; Registers used:
  1934 ;;		wreg, status,2
  1935 ;; Tracked objects:
  1936 ;;		On entry : 0/0
  1937 ;;		On exit  : 0/0
  1938 ;;		Unchanged: 0/0
  1939 ;; Data sizes:     COMRAM   BANK5   BANK6   BANK7   BANK8   BANK9  BANK10  BANK11  BANK12  BANK13  BANK14  BANK15  BANK1
      +6  BANK17  BANK18  BANK19  BANK20  BANK21  BANK22  BANK23  BANK24  BANK25  BANK26  BANK27  BANK28  BANK29  BANK30  BANK3
      +1  BANK32  BANK33  BANK34  BANK35  BANK36  BANK37
  1940 ;;      Params:         0       0       0       0       0       0       0       0       0       0       0       0       
      +0       0       0       0       0       0       0       0       0       0       0       0       0       0       0       
      +0       0       0       0       0       0       0
  1941 ;;      Locals:         0       0       0       0       0       0       0       0       0       0       0       0       
      +0       0       0       0       0       0       0       0       0       0       0       0       0       0       0       
      +0       0       0       0       0       0       0
  1942 ;;      Temps:          0       0       0       0       0       0       0       0       0       0       0       0       
      +0       0       0       0       0       0       0       0       0       0       0       0       0       0       0       
      +0       0       0       0       0       0       0
  1943 ;;      Totals:         0       0       0       0       0       0       0       0       0       0       0       0       
      +0       0       0       0       0       0       0       0       0       0       0       0       0       0       0       
      +0       0       0       0       0       0       0
  1944 ;;Total ram usage:        0 bytes
  1945 ;; Hardware stack levels used: 1
  1946 ;; Hardware stack levels required when called: 4
  1947 ;; This function calls:
  1948 ;;		Nothing
  1949 ;; This function is called by:
  1950 ;;		_CAN1_Initialize
  1951 ;; This function uses a non-reentrant model
  1952 ;;
  1953                           
  1954                           	psect	text18
  1955  002E50                     __ptext18:
  1956                           	callstack 0
  1957  002E50                     _CAN1_BitRateConfiguration:
  1958                           	callstack 120
  1959  002E50                     
  1960                           ;mcc_generated_files/can1.c: 91:     C1NBTCFGL = 0x01;
  1961  002E50  0E01               	movlw	1
  1962  002E52  0101               	movlb	1	; () banked
  1963  002E54  6F04               	movwf	4,b	;volatile
  1964                           
  1965                           ;mcc_generated_files/can1.c: 94:     C1NBTCFGH = 0x01;
  1966  002E56  0E01               	movlw	1
  1967  002E58  6F05               	movwf	5,b	;volatile
  1968                           
  1969                           ;mcc_generated_files/can1.c: 97:     C1NBTCFGU = 0x06;
  1970  002E5A  0E06               	movlw	6
  1971  002E5C  6F06               	movwf	6,b	;volatile
  1972                           
  1973                           ;mcc_generated_files/can1.c: 100:     C1NBTCFGT = 0x00;
  1974  002E5E  0E00               	movlw	0
  1975  002E60  6F07               	movwf	7,b	;volatile
  1976  002E62                     
  1977                           ; BSR set to: 1
  1978  002E62  0012               	return		;funcret
  1979  002E64                     __end_of_CAN1_BitRateConfiguration:
  1980                           	callstack 0
  1981                           
  1982 ;; *************** function _ADC_Initialize *****************
  1983 ;; Defined at:
  1984 ;;		line 65 in file "mcc_generated_files/adc.c"
  1985 ;; Parameters:    Size  Location     Type
  1986 ;;		None
  1987 ;; Auto vars:     Size  Location     Type
  1988 ;;		None
  1989 ;; Return value:  Size  Location     Type
  1990 ;;                  1    wreg      void 
  1991 ;; Registers used:
  1992 ;;		wreg, status,2, status,0, cstack
  1993 ;; Tracked objects:
  1994 ;;		On entry : 0/0
  1995 ;;		On exit  : 0/0
  1996 ;;		Unchanged: 0/0
  1997 ;; Data sizes:     COMRAM   BANK5   BANK6   BANK7   BANK8   BANK9  BANK10  BANK11  BANK12  BANK13  BANK14  BANK15  BANK1
      +6  BANK17  BANK18  BANK19  BANK20  BANK21  BANK22  BANK23  BANK24  BANK25  BANK26  BANK27  BANK28  BANK29  BANK30  BANK3
      +1  BANK32  BANK33  BANK34  BANK35  BANK36  BANK37
  1998 ;;      Params:         0       0       0       0       0       0       0       0       0       0       0       0       
      +0       0       0       0       0       0       0       0       0       0       0       0       0       0       0       
      +0       0       0       0       0       0       0
  1999 ;;      Locals:         0       0       0       0       0       0       0       0       0       0       0       0       
      +0       0       0       0       0       0       0       0       0       0       0       0       0       0       0       
      +0       0       0       0       0       0       0
  2000 ;;      Temps:          0       0       0       0       0       0       0       0       0       0       0       0       
      +0       0       0       0       0       0       0       0       0       0       0       0       0       0       0       
      +0       0       0       0       0       0       0
  2001 ;;      Totals:         0       0       0       0       0       0       0       0       0       0       0       0       
      +0       0       0       0       0       0       0       0       0       0       0       0       0       0       0       
      +0       0       0       0       0       0       0
  2002 ;;Total ram usage:        0 bytes
  2003 ;; Hardware stack levels used: 1
  2004 ;; Hardware stack levels required when called: 5
  2005 ;; This function calls:
  2006 ;;		_ADC_SetADIInterruptHandler
  2007 ;;		_ADC_SetActiveClockTuningInterruptHandler
  2008 ;;		_ADC_SetContext1ThresholdInterruptHandler
  2009 ;; This function is called by:
  2010 ;;		_SYSTEM_Initialize
  2011 ;; This function uses a non-reentrant model
  2012 ;;
  2013                           
  2014                           	psect	text19
  2015  0027AE                     __ptext19:
  2016                           	callstack 0
  2017  0027AE                     _ADC_Initialize:
  2018                           	callstack 120
  2019  0027AE                     
  2020                           ;mcc_generated_files/adc.c: 68:     ADACT = 0x02;
  2021  0027AE  0E02               	movlw	2
  2022  0027B0  0103               	movlb	3	; () banked
  2023  0027B2  6FF9               	movwf	249,b	;volatile
  2024                           
  2025                           ;mcc_generated_files/adc.c: 71:     ADCLK = 0x00;
  2026  0027B4  0E00               	movlw	0
  2027  0027B6  6FFA               	movwf	250,b	;volatile
  2028                           
  2029                           ;mcc_generated_files/adc.c: 74:     ADCP = 0x00;
  2030  0027B8  0E00               	movlw	0
  2031  0027BA  6FD8               	movwf	216,b	;volatile
  2032                           
  2033                           ;mcc_generated_files/adc.c: 80:     ADCTX = 0x0;
  2034  0027BC  0E00               	movlw	0
  2035  0027BE  6FFB               	movwf	251,b	;volatile
  2036                           
  2037                           ;mcc_generated_files/adc.c: 83:     ADLTHL = 0x00;
  2038  0027C0  0E00               	movlw	0
  2039  0027C2  6FD9               	movwf	217,b	;volatile
  2040                           
  2041                           ;mcc_generated_files/adc.c: 86:     ADLTHH = 0x00;
  2042  0027C4  0E00               	movlw	0
  2043  0027C6  6FDA               	movwf	218,b	;volatile
  2044                           
  2045                           ;mcc_generated_files/adc.c: 89:     ADUTHL = 0x00;
  2046  0027C8  0E00               	movlw	0
  2047  0027CA  6FDB               	movwf	219,b	;volatile
  2048                           
  2049                           ;mcc_generated_files/adc.c: 92:     ADUTHH = 0x00;
  2050  0027CC  0E00               	movlw	0
  2051  0027CE  6FDC               	movwf	220,b	;volatile
  2052                           
  2053                           ;mcc_generated_files/adc.c: 95:     ADSTPTL = 0x00;
  2054  0027D0  0E00               	movlw	0
  2055  0027D2  6FDF               	movwf	223,b	;volatile
  2056                           
  2057                           ;mcc_generated_files/adc.c: 98:     ADSTPTH = 0x00;
  2058  0027D4  0E00               	movlw	0
  2059  0027D6  6FE0               	movwf	224,b	;volatile
  2060                           
  2061                           ;mcc_generated_files/adc.c: 101:     ADACCL = 0x00;
  2062  0027D8  0E00               	movlw	0
  2063  0027DA  6FE3               	movwf	227,b	;volatile
  2064                           
  2065                           ;mcc_generated_files/adc.c: 104:     ADACCH = 0x00;
  2066  0027DC  0E00               	movlw	0
  2067  0027DE  6FE4               	movwf	228,b	;volatile
  2068                           
  2069                           ;mcc_generated_files/adc.c: 107:     ADACCU = 0x00;
  2070  0027E0  0E00               	movlw	0
  2071  0027E2  6FE5               	movwf	229,b	;volatile
  2072                           
  2073                           ;mcc_generated_files/adc.c: 110:     ADCNT = 0x00;
  2074  0027E4  0E00               	movlw	0
  2075  0027E6  6FE6               	movwf	230,b	;volatile
  2076                           
  2077                           ;mcc_generated_files/adc.c: 113:     ADRPT = 0x00;
  2078  0027E8  0E00               	movlw	0
  2079  0027EA  6FE7               	movwf	231,b	;volatile
  2080                           
  2081                           ;mcc_generated_files/adc.c: 116:     ADRESL = 0x00;
  2082  0027EC  0E00               	movlw	0
  2083  0027EE  6FEA               	movwf	234,b	;volatile
  2084                           
  2085                           ;mcc_generated_files/adc.c: 119:     ADRESH = 0x00;
  2086  0027F0  0E00               	movlw	0
  2087  0027F2  6FEB               	movwf	235,b	;volatile
  2088                           
  2089                           ;mcc_generated_files/adc.c: 122:     ADPCH = 0x10;
  2090  0027F4  0E10               	movlw	16
  2091  0027F6  6FEC               	movwf	236,b	;volatile
  2092                           
  2093                           ;mcc_generated_files/adc.c: 125:     ADACQL = 0x00;
  2094  0027F8  0E00               	movlw	0
  2095  0027FA  6FEE               	movwf	238,b	;volatile
  2096                           
  2097                           ;mcc_generated_files/adc.c: 128:     ADACQH = 0x00;
  2098  0027FC  0E00               	movlw	0
  2099  0027FE  6FEF               	movwf	239,b	;volatile
  2100                           
  2101                           ;mcc_generated_files/adc.c: 131:     ADCAP = 0x00;
  2102  002800  0E00               	movlw	0
  2103  002802  6FF0               	movwf	240,b	;volatile
  2104                           
  2105                           ;mcc_generated_files/adc.c: 134:     ADPREL = 0x00;
  2106  002804  0E00               	movlw	0
  2107  002806  6FF1               	movwf	241,b	;volatile
  2108                           
  2109                           ;mcc_generated_files/adc.c: 137:     ADPREH = 0x00;
  2110  002808  0E00               	movlw	0
  2111  00280A  6FF2               	movwf	242,b	;volatile
  2112                           
  2113                           ;mcc_generated_files/adc.c: 140:     ADCON0 = 0x00;
  2114  00280C  0E00               	movlw	0
  2115  00280E  6FF3               	movwf	243,b	;volatile
  2116                           
  2117                           ;mcc_generated_files/adc.c: 143:     ADCON1 = 0x00;
  2118  002810  0E00               	movlw	0
  2119  002812  6FF4               	movwf	244,b	;volatile
  2120                           
  2121                           ;mcc_generated_files/adc.c: 146:     ADCON2 = 0x10;
  2122  002814  0E10               	movlw	16
  2123  002816  6FF5               	movwf	245,b	;volatile
  2124                           
  2125                           ;mcc_generated_files/adc.c: 149:     ADCON3 = 0x00;
  2126  002818  0E00               	movlw	0
  2127  00281A  6FF6               	movwf	246,b	;volatile
  2128                           
  2129                           ;mcc_generated_files/adc.c: 152:     ADSTAT = 0x00;
  2130  00281C  0E00               	movlw	0
  2131  00281E  6FF7               	movwf	247,b	;volatile
  2132                           
  2133                           ;mcc_generated_files/adc.c: 155:     ADREF = 0x12;
  2134  002820  0E12               	movlw	18
  2135  002822  6FF8               	movwf	248,b	;volatile
  2136                           
  2137                           ;mcc_generated_files/adc.c: 158:     ADCSEL1 = 0x00;
  2138  002824  0E00               	movlw	0
  2139  002826  6FFC               	movwf	252,b	;volatile
  2140  002828                     
  2141                           ; BSR set to: 3
  2142                           ;mcc_generated_files/adc.c: 161:     PIR1bits.ADIF = 0;
  2143  002828  94AF               	bcf	175,2,c	;volatile
  2144  00282A                     
  2145                           ; BSR set to: 3
  2146                           ;mcc_generated_files/adc.c: 164:     PIR1bits.ACTIF = 0;
  2147  00282A  96AF               	bcf	175,3,c	;volatile
  2148  00282C                     
  2149                           ; BSR set to: 3
  2150                           ;mcc_generated_files/adc.c: 167:     PIR2bits.ADCH1IF = 0;
  2151  00282C  90B0               	bcf	176,0,c	;volatile
  2152  00282E                     
  2153                           ; BSR set to: 3
  2154                           ;mcc_generated_files/adc.c: 171:     ADC_SetADIInterruptHandler(ADC_DefaultADI_ISR);
  2155  00282E  0E00               	movlw	0
  2156  002830  6E35               	movwf	ADC_SetADIInterruptHandler@InterruptHandler^(0+1280),c
  2157  002832  0E00               	movlw	0
  2158  002834  6E36               	movwf	(ADC_SetADIInterruptHandler@InterruptHandler+1)^(0+1280),c
  2159  002836  EC5A  F017         	call	_ADC_SetADIInterruptHandler	;wreg free
  2160  00283A                     
  2161                           ;mcc_generated_files/adc.c: 172:     ADC_SetContext1ThresholdInterruptHandler(ADC_Defaul
      +                          tContext1Threshold_ISR);
  2162  00283A  0E00               	movlw	0
  2163  00283C  6E35               	movwf	ADC_SetContext1ThresholdInterruptHandler@InterruptHandler^(0+1280),c
  2164  00283E  0E00               	movlw	0
  2165  002840  6E36               	movwf	(ADC_SetContext1ThresholdInterruptHandler@InterruptHandler+1)^(0+1280),c
  2166  002842  EC50  F017         	call	_ADC_SetContext1ThresholdInterruptHandler	;wreg free
  2167  002846                     
  2168                           ;mcc_generated_files/adc.c: 173:     ADC_SetActiveClockTuningInterruptHandler(ADC_Defaul
      +                          tActiveClockTuning_ISR);
  2169  002846  0E00               	movlw	0
  2170  002848  6E35               	movwf	ADC_SetActiveClockTuningInterruptHandler@InterruptHandler^(0+1280),c
  2171  00284A  0E00               	movlw	0
  2172  00284C  6E36               	movwf	(ADC_SetActiveClockTuningInterruptHandler@InterruptHandler+1)^(0+1280),c
  2173  00284E  EC55  F017         	call	_ADC_SetActiveClockTuningInterruptHandler	;wreg free
  2174  002852                     
  2175                           ;mcc_generated_files/adc.c: 176:     ADCON0 = 0x84;
  2176  002852  0E84               	movlw	132
  2177  002854  0103               	movlb	3	; () banked
  2178  002856  6FF3               	movwf	243,b	;volatile
  2179  002858                     
  2180                           ; BSR set to: 3
  2181  002858  0012               	return		;funcret
  2182  00285A                     __end_of_ADC_Initialize:
  2183                           	callstack 0
  2184                           
  2185 ;; *************** function _ADC_SetContext1ThresholdInterruptHandler *****************
  2186 ;; Defined at:
  2187 ;;		line 423 in file "mcc_generated_files/adc.c"
  2188 ;; Parameters:    Size  Location     Type
  2189 ;;  InterruptHan    2    2[COMRAM] PTR FTN()void 
  2190 ;;		 -> ADC_DefaultContext1Threshold_ISR(1), 
  2191 ;; Auto vars:     Size  Location     Type
  2192 ;;		None
  2193 ;; Return value:  Size  Location     Type
  2194 ;;                  1    wreg      void 
  2195 ;; Registers used:
  2196 ;;		wreg, status,2, status,0
  2197 ;; Tracked objects:
  2198 ;;		On entry : 0/0
  2199 ;;		On exit  : 0/0
  2200 ;;		Unchanged: 0/0
  2201 ;; Data sizes:     COMRAM   BANK5   BANK6   BANK7   BANK8   BANK9  BANK10  BANK11  BANK12  BANK13  BANK14  BANK15  BANK1
      +6  BANK17  BANK18  BANK19  BANK20  BANK21  BANK22  BANK23  BANK24  BANK25  BANK26  BANK27  BANK28  BANK29  BANK30  BANK3
      +1  BANK32  BANK33  BANK34  BANK35  BANK36  BANK37
  2202 ;;      Params:         2       0       0       0       0       0       0       0       0       0       0       0       
      +0       0       0       0       0       0       0       0       0       0       0       0       0       0       0       
      +0       0       0       0       0       0       0
  2203 ;;      Locals:         0       0       0       0       0       0       0       0       0       0       0       0       
      +0       0       0       0       0       0       0       0       0       0       0       0       0       0       0       
      +0       0       0       0       0       0       0
  2204 ;;      Temps:          0       0       0       0       0       0       0       0       0       0       0       0       
      +0       0       0       0       0       0       0       0       0       0       0       0       0       0       0       
      +0       0       0       0       0       0       0
  2205 ;;      Totals:         2       0       0       0       0       0       0       0       0       0       0       0       
      +0       0       0       0       0       0       0       0       0       0       0       0       0       0       0       
      +0       0       0       0       0       0       0
  2206 ;;Total ram usage:        2 bytes
  2207 ;; Hardware stack levels used: 1
  2208 ;; Hardware stack levels required when called: 4
  2209 ;; This function calls:
  2210 ;;		Nothing
  2211 ;; This function is called by:
  2212 ;;		_ADC_Initialize
  2213 ;; This function uses a non-reentrant model
  2214 ;;
  2215                           
  2216                           	psect	text20
  2217  002EA0                     __ptext20:
  2218                           	callstack 0
  2219  002EA0                     _ADC_SetContext1ThresholdInterruptHandler:
  2220                           	callstack 120
  2221  002EA0                     
  2222                           ;mcc_generated_files/adc.c: 423: void ADC_SetContext1ThresholdInterruptHandler(void (* I
      +                          nterruptHandler)(void));mcc_generated_files/adc.c: 424: {;mcc_generated_files/adc.c: 425
      +                          :     ADC_Context1Thereshld_ISR = InterruptHandler;
  2223  002EA0  C535  F555         	movff	ADC_SetContext1ThresholdInterruptHandler@InterruptHandler,_ADC_Context1Thereshld_
      +                          ISR
  2224  002EA4  C536  F556         	movff	ADC_SetContext1ThresholdInterruptHandler@InterruptHandler+1,_ADC_Context1Thereshl
      +                          d_ISR+1
  2225  002EA8  0012               	return		;funcret
  2226  002EAA                     __end_of_ADC_SetContext1ThresholdInterruptHandler:
  2227                           	callstack 0
  2228                           
  2229 ;; *************** function _ADC_SetActiveClockTuningInterruptHandler *****************
  2230 ;; Defined at:
  2231 ;;		line 428 in file "mcc_generated_files/adc.c"
  2232 ;; Parameters:    Size  Location     Type
  2233 ;;  InterruptHan    2    2[COMRAM] PTR FTN()void 
  2234 ;;		 -> ADC_DefaultActiveClockTuning_ISR(1), 
  2235 ;; Auto vars:     Size  Location     Type
  2236 ;;		None
  2237 ;; Return value:  Size  Location     Type
  2238 ;;                  1    wreg      void 
  2239 ;; Registers used:
  2240 ;;		wreg, status,2, status,0
  2241 ;; Tracked objects:
  2242 ;;		On entry : 0/0
  2243 ;;		On exit  : 0/0
  2244 ;;		Unchanged: 0/0
  2245 ;; Data sizes:     COMRAM   BANK5   BANK6   BANK7   BANK8   BANK9  BANK10  BANK11  BANK12  BANK13  BANK14  BANK15  BANK1
      +6  BANK17  BANK18  BANK19  BANK20  BANK21  BANK22  BANK23  BANK24  BANK25  BANK26  BANK27  BANK28  BANK29  BANK30  BANK3
      +1  BANK32  BANK33  BANK34  BANK35  BANK36  BANK37
  2246 ;;      Params:         2       0       0       0       0       0       0       0       0       0       0       0       
      +0       0       0       0       0       0       0       0       0       0       0       0       0       0       0       
      +0       0       0       0       0       0       0
  2247 ;;      Locals:         0       0       0       0       0       0       0       0       0       0       0       0       
      +0       0       0       0       0       0       0       0       0       0       0       0       0       0       0       
      +0       0       0       0       0       0       0
  2248 ;;      Temps:          0       0       0       0       0       0       0       0       0       0       0       0       
      +0       0       0       0       0       0       0       0       0       0       0       0       0       0       0       
      +0       0       0       0       0       0       0
  2249 ;;      Totals:         2       0       0       0       0       0       0       0       0       0       0       0       
      +0       0       0       0       0       0       0       0       0       0       0       0       0       0       0       
      +0       0       0       0       0       0       0
  2250 ;;Total ram usage:        2 bytes
  2251 ;; Hardware stack levels used: 1
  2252 ;; Hardware stack levels required when called: 4
  2253 ;; This function calls:
  2254 ;;		Nothing
  2255 ;; This function is called by:
  2256 ;;		_ADC_Initialize
  2257 ;; This function uses a non-reentrant model
  2258 ;;
  2259                           
  2260                           	psect	text21
  2261  002EAA                     __ptext21:
  2262                           	callstack 0
  2263  002EAA                     _ADC_SetActiveClockTuningInterruptHandler:
  2264                           	callstack 120
  2265  002EAA                     
  2266                           ;mcc_generated_files/adc.c: 428: void ADC_SetActiveClockTuningInterruptHandler(void (* I
      +                          nterruptHandler)(void));mcc_generated_files/adc.c: 429: {;mcc_generated_files/adc.c: 430
      +                          :     ADC_ActiveClockTuning_ISR = InterruptHandler;
  2267  002EAA  C535  F553         	movff	ADC_SetActiveClockTuningInterruptHandler@InterruptHandler,_ADC_ActiveClockTuning_
      +                          ISR
  2268  002EAE  C536  F554         	movff	ADC_SetActiveClockTuningInterruptHandler@InterruptHandler+1,_ADC_ActiveClockTunin
      +                          g_ISR+1
  2269  002EB2  0012               	return		;funcret
  2270  002EB4                     __end_of_ADC_SetActiveClockTuningInterruptHandler:
  2271                           	callstack 0
  2272                           
  2273 ;; *************** function _ADC_SetADIInterruptHandler *****************
  2274 ;; Defined at:
  2275 ;;		line 418 in file "mcc_generated_files/adc.c"
  2276 ;; Parameters:    Size  Location     Type
  2277 ;;  InterruptHan    2    2[COMRAM] PTR FTN()void 
  2278 ;;		 -> ADC_DefaultADI_ISR(1), 
  2279 ;; Auto vars:     Size  Location     Type
  2280 ;;		None
  2281 ;; Return value:  Size  Location     Type
  2282 ;;                  1    wreg      void 
  2283 ;; Registers used:
  2284 ;;		wreg, status,2, status,0
  2285 ;; Tracked objects:
  2286 ;;		On entry : 0/0
  2287 ;;		On exit  : 0/0
  2288 ;;		Unchanged: 0/0
  2289 ;; Data sizes:     COMRAM   BANK5   BANK6   BANK7   BANK8   BANK9  BANK10  BANK11  BANK12  BANK13  BANK14  BANK15  BANK1
      +6  BANK17  BANK18  BANK19  BANK20  BANK21  BANK22  BANK23  BANK24  BANK25  BANK26  BANK27  BANK28  BANK29  BANK30  BANK3
      +1  BANK32  BANK33  BANK34  BANK35  BANK36  BANK37
  2290 ;;      Params:         2       0       0       0       0       0       0       0       0       0       0       0       
      +0       0       0       0       0       0       0       0       0       0       0       0       0       0       0       
      +0       0       0       0       0       0       0
  2291 ;;      Locals:         0       0       0       0       0       0       0       0       0       0       0       0       
      +0       0       0       0       0       0       0       0       0       0       0       0       0       0       0       
      +0       0       0       0       0       0       0
  2292 ;;      Temps:          0       0       0       0       0       0       0       0       0       0       0       0       
      +0       0       0       0       0       0       0       0       0       0       0       0       0       0       0       
      +0       0       0       0       0       0       0
  2293 ;;      Totals:         2       0       0       0       0       0       0       0       0       0       0       0       
      +0       0       0       0       0       0       0       0       0       0       0       0       0       0       0       
      +0       0       0       0       0       0       0
  2294 ;;Total ram usage:        2 bytes
  2295 ;; Hardware stack levels used: 1
  2296 ;; Hardware stack levels required when called: 4
  2297 ;; This function calls:
  2298 ;;		Nothing
  2299 ;; This function is called by:
  2300 ;;		_ADC_Initialize
  2301 ;; This function uses a non-reentrant model
  2302 ;;
  2303                           
  2304                           	psect	text22
  2305  002EB4                     __ptext22:
  2306                           	callstack 0
  2307  002EB4                     _ADC_SetADIInterruptHandler:
  2308                           	callstack 120
  2309  002EB4                     
  2310                           ;mcc_generated_files/adc.c: 418: void ADC_SetADIInterruptHandler(void (* InterruptHandle
      +                          r)(void));mcc_generated_files/adc.c: 419: {;mcc_generated_files/adc.c: 420:     ADC_Conv
      +                          ersionComplete_ISR = InterruptHandler;
  2311  002EB4  C535  F557         	movff	ADC_SetADIInterruptHandler@InterruptHandler,_ADC_ConversionComplete_ISR
  2312  002EB8  C536  F558         	movff	ADC_SetADIInterruptHandler@InterruptHandler+1,_ADC_ConversionComplete_ISR+1
  2313  002EBC  0012               	return		;funcret
  2314  002EBE                     __end_of_ADC_SetADIInterruptHandler:
  2315                           	callstack 0
  2316                           
  2317 ;; *************** function _ReluctorPosRead *****************
  2318 ;; Defined at:
  2319 ;;		line 55 in file "reluctor.c"
  2320 ;; Parameters:    Size  Location     Type
  2321 ;;		None
  2322 ;; Auto vars:     Size  Location     Type
  2323 ;;		None
  2324 ;; Return value:  Size  Location     Type
  2325 ;;                  2   16[COMRAM] unsigned int 
  2326 ;; Registers used:
  2327 ;;		wreg, status,2, status,0, prodl, prodh, cstack
  2328 ;; Tracked objects:
  2329 ;;		On entry : 0/0
  2330 ;;		On exit  : 0/0
  2331 ;;		Unchanged: 0/0
  2332 ;; Data sizes:     COMRAM   BANK5   BANK6   BANK7   BANK8   BANK9  BANK10  BANK11  BANK12  BANK13  BANK14  BANK15  BANK1
      +6  BANK17  BANK18  BANK19  BANK20  BANK21  BANK22  BANK23  BANK24  BANK25  BANK26  BANK27  BANK28  BANK29  BANK30  BANK3
      +1  BANK32  BANK33  BANK34  BANK35  BANK36  BANK37
  2333 ;;      Params:         2       0       0       0       0       0       0       0       0       0       0       0       
      +0       0       0       0       0       0       0       0       0       0       0       0       0       0       0       
      +0       0       0       0       0       0       0
  2334 ;;      Locals:         0       0       0       0       0       0       0       0       0       0       0       0       
      +0       0       0       0       0       0       0       0       0       0       0       0       0       0       0       
      +0       0       0       0       0       0       0
  2335 ;;      Temps:          2       0       0       0       0       0       0       0       0       0       0       0       
      +0       0       0       0       0       0       0       0       0       0       0       0       0       0       0       
      +0       0       0       0       0       0       0
  2336 ;;      Totals:         4       0       0       0       0       0       0       0       0       0       0       0       
      +0       0       0       0       0       0       0       0       0       0       0       0       0       0       0       
      +0       0       0       0       0       0       0
  2337 ;;Total ram usage:        4 bytes
  2338 ;; Hardware stack levels used: 1
  2339 ;; Hardware stack levels required when called: 5
  2340 ;; This function calls:
  2341 ;;		___awdiv
  2342 ;;		___wmul
  2343 ;; This function is called by:
  2344 ;;		_main
  2345 ;; This function uses a non-reentrant model
  2346 ;;
  2347                           
  2348                           	psect	text23
  2349  002A30                     __ptext23:
  2350                           	callstack 0
  2351  002A30                     _ReluctorPosRead:
  2352                           	callstack 121
  2353  002A30                     
  2354                           ;reluctor.c: 57:     return (( ucCountVueltaRueda * 360 ) + ( ucCountPos*360 / 32));
  2355  002A30  C530  F535         	movff	_ucCountVueltaRueda,___wmul@multiplier
  2356  002A34  6A36               	clrf	(___wmul@multiplier+1)^(0+1280),c
  2357  002A36  0E01               	movlw	1
  2358  002A38  6E38               	movwf	(___wmul@multiplicand+1)^(0+1280),c
  2359  002A3A  0E68               	movlw	104
  2360  002A3C  6E37               	movwf	___wmul@multiplicand^(0+1280),c
  2361  002A3E  ECBE  F016         	call	___wmul	;wreg free
  2362  002A42  C535  F545         	movff	?___wmul,??_ReluctorPosRead
  2363  002A46  C536  F546         	movff	?___wmul+1,??_ReluctorPosRead+1
  2364  002A4A  C531  F535         	movff	_ucCountPos,___wmul@multiplier
  2365  002A4E  6A36               	clrf	(___wmul@multiplier+1)^(0+1280),c
  2366  002A50  0E01               	movlw	1
  2367  002A52  6E38               	movwf	(___wmul@multiplicand+1)^(0+1280),c
  2368  002A54  0E68               	movlw	104
  2369  002A56  6E37               	movwf	___wmul@multiplicand^(0+1280),c
  2370  002A58  ECBE  F016         	call	___wmul	;wreg free
  2371  002A5C  C535  F53B         	movff	?___wmul,___awdiv@dividend
  2372  002A60  C536  F53C         	movff	?___wmul+1,___awdiv@dividend+1
  2373  002A64  0E00               	movlw	0
  2374  002A66  6E3E               	movwf	(___awdiv@divisor+1)^(0+1280),c
  2375  002A68  0E20               	movlw	32
  2376  002A6A  6E3D               	movwf	___awdiv@divisor^(0+1280),c
  2377  002A6C  EC1A  F013         	call	___awdiv	;wreg free
  2378  002A70  503B               	movf	?___awdiv^(0+1280),w,c
  2379  002A72  2445               	addwf	??_ReluctorPosRead^(0+1280),w,c
  2380  002A74  6E43               	movwf	?_ReluctorPosRead^(0+1280),c
  2381  002A76  503C               	movf	(?___awdiv+1)^(0+1280),w,c
  2382  002A78  2046               	addwfc	(??_ReluctorPosRead+1)^(0+1280),w,c
  2383  002A7A  6E44               	movwf	(?_ReluctorPosRead+1)^(0+1280),c
  2384  002A7C  0012               	return		;funcret
  2385  002A7E                     __end_of_ReluctorPosRead:
  2386                           	callstack 0
  2387                           
  2388 ;; *************** function ___awdiv *****************
  2389 ;; Defined at:
  2390 ;;		line 7 in file "C:\Program Files\Microchip\xc8\v2.32\pic\sources\c99\common\awdiv.c"
  2391 ;; Parameters:    Size  Location     Type
  2392 ;;  dividend        2    8[COMRAM] int 
  2393 ;;  divisor         2   10[COMRAM] int 
  2394 ;; Auto vars:     Size  Location     Type
  2395 ;;  quotient        2   14[COMRAM] int 
  2396 ;;  sign            1   13[COMRAM] unsigned char 
  2397 ;;  counter         1   12[COMRAM] unsigned char 
  2398 ;; Return value:  Size  Location     Type
  2399 ;;                  2    8[COMRAM] int 
  2400 ;; Registers used:
  2401 ;;		wreg, status,2, status,0
  2402 ;; Tracked objects:
  2403 ;;		On entry : 0/0
  2404 ;;		On exit  : 0/0
  2405 ;;		Unchanged: 0/0
  2406 ;; Data sizes:     COMRAM   BANK5   BANK6   BANK7   BANK8   BANK9  BANK10  BANK11  BANK12  BANK13  BANK14  BANK15  BANK1
      +6  BANK17  BANK18  BANK19  BANK20  BANK21  BANK22  BANK23  BANK24  BANK25  BANK26  BANK27  BANK28  BANK29  BANK30  BANK3
      +1  BANK32  BANK33  BANK34  BANK35  BANK36  BANK37
  2407 ;;      Params:         4       0       0       0       0       0       0       0       0       0       0       0       
      +0       0       0       0       0       0       0       0       0       0       0       0       0       0       0       
      +0       0       0       0       0       0       0
  2408 ;;      Locals:         4       0       0       0       0       0       0       0       0       0       0       0       
      +0       0       0       0       0       0       0       0       0       0       0       0       0       0       0       
      +0       0       0       0       0       0       0
  2409 ;;      Temps:          0       0       0       0       0       0       0       0       0       0       0       0       
      +0       0       0       0       0       0       0       0       0       0       0       0       0       0       0       
      +0       0       0       0       0       0       0
  2410 ;;      Totals:         8       0       0       0       0       0       0       0       0       0       0       0       
      +0       0       0       0       0       0       0       0       0       0       0       0       0       0       0       
      +0       0       0       0       0       0       0
  2411 ;;Total ram usage:        8 bytes
  2412 ;; Hardware stack levels used: 1
  2413 ;; Hardware stack levels required when called: 4
  2414 ;; This function calls:
  2415 ;;		Nothing
  2416 ;; This function is called by:
  2417 ;;		_ReluctorPosRead
  2418 ;; This function uses a non-reentrant model
  2419 ;;
  2420                           
  2421                           	psect	text24
  2422  002634                     __ptext24:
  2423                           	callstack 0
  2424  002634                     ___awdiv:
  2425                           	callstack 121
  2426  002634  0E00               	movlw	0
  2427  002636  6E40               	movwf	___awdiv@sign^(0+1280),c
  2428  002638  BE3E               	btfsc	(___awdiv@divisor+1)^(0+1280),7,c
  2429  00263A  EF23  F013         	goto	u1090
  2430  00263E  EF21  F013         	goto	u1091
  2431  002642                     u1091:
  2432  002642  EF29  F013         	goto	l3358
  2433  002646                     u1090:
  2434  002646  6C3D               	negf	___awdiv@divisor^(0+1280),c
  2435  002648  1E3E               	comf	(___awdiv@divisor+1)^(0+1280),f,c
  2436  00264A  B0D8               	btfsc	status,0,c
  2437  00264C  2A3E               	incf	(___awdiv@divisor+1)^(0+1280),f,c
  2438  00264E  0E01               	movlw	1
  2439  002650  6E40               	movwf	___awdiv@sign^(0+1280),c
  2440  002652                     l3358:
  2441  002652  BE3C               	btfsc	(___awdiv@dividend+1)^(0+1280),7,c
  2442  002654  EF30  F013         	goto	u1100
  2443  002658  EF2E  F013         	goto	u1101
  2444  00265C                     u1101:
  2445  00265C  EF36  F013         	goto	l3364
  2446  002660                     u1100:
  2447  002660  6C3B               	negf	___awdiv@dividend^(0+1280),c
  2448  002662  1E3C               	comf	(___awdiv@dividend+1)^(0+1280),f,c
  2449  002664  B0D8               	btfsc	status,0,c
  2450  002666  2A3C               	incf	(___awdiv@dividend+1)^(0+1280),f,c
  2451  002668  0E01               	movlw	1
  2452  00266A  1A40               	xorwf	___awdiv@sign^(0+1280),f,c
  2453  00266C                     l3364:
  2454  00266C  0E00               	movlw	0
  2455  00266E  6E42               	movwf	(___awdiv@quotient+1)^(0+1280),c
  2456  002670  0E00               	movlw	0
  2457  002672  6E41               	movwf	___awdiv@quotient^(0+1280),c
  2458  002674  503D               	movf	___awdiv@divisor^(0+1280),w,c
  2459  002676  103E               	iorwf	(___awdiv@divisor+1)^(0+1280),w,c
  2460  002678  B4D8               	btfsc	status,2,c
  2461  00267A  EF41  F013         	goto	u1111
  2462  00267E  EF43  F013         	goto	u1110
  2463  002682                     u1111:
  2464  002682  EF6B  F013         	goto	l3386
  2465  002686                     u1110:
  2466  002686  0E01               	movlw	1
  2467  002688  6E3F               	movwf	___awdiv@counter^(0+1280),c
  2468  00268A  EF4B  F013         	goto	l3372
  2469  00268E                     l3370:
  2470  00268E  90D8               	bcf	status,0,c
  2471  002690  363D               	rlcf	___awdiv@divisor^(0+1280),f,c
  2472  002692  363E               	rlcf	(___awdiv@divisor+1)^(0+1280),f,c
  2473  002694  2A3F               	incf	___awdiv@counter^(0+1280),f,c
  2474  002696                     l3372:
  2475  002696  AE3E               	btfss	(___awdiv@divisor+1)^(0+1280),7,c
  2476  002698  EF50  F013         	goto	u1121
  2477  00269C  EF52  F013         	goto	u1120
  2478  0026A0                     u1121:
  2479  0026A0  EF47  F013         	goto	l3370
  2480  0026A4                     u1120:
  2481  0026A4                     l3374:
  2482  0026A4  90D8               	bcf	status,0,c
  2483  0026A6  3641               	rlcf	___awdiv@quotient^(0+1280),f,c
  2484  0026A8  3642               	rlcf	(___awdiv@quotient+1)^(0+1280),f,c
  2485  0026AA  503D               	movf	___awdiv@divisor^(0+1280),w,c
  2486  0026AC  5C3B               	subwf	___awdiv@dividend^(0+1280),w,c
  2487  0026AE  503E               	movf	(___awdiv@divisor+1)^(0+1280),w,c
  2488  0026B0  583C               	subwfb	(___awdiv@dividend+1)^(0+1280),w,c
  2489  0026B2  A0D8               	btfss	status,0,c
  2490  0026B4  EF5E  F013         	goto	u1131
  2491  0026B8  EF60  F013         	goto	u1130
  2492  0026BC                     u1131:
  2493  0026BC  EF65  F013         	goto	l3382
  2494  0026C0                     u1130:
  2495  0026C0  503D               	movf	___awdiv@divisor^(0+1280),w,c
  2496  0026C2  5E3B               	subwf	___awdiv@dividend^(0+1280),f,c
  2497  0026C4  503E               	movf	(___awdiv@divisor+1)^(0+1280),w,c
  2498  0026C6  5A3C               	subwfb	(___awdiv@dividend+1)^(0+1280),f,c
  2499  0026C8  8041               	bsf	___awdiv@quotient^(0+1280),0,c
  2500  0026CA                     l3382:
  2501  0026CA  90D8               	bcf	status,0,c
  2502  0026CC  323E               	rrcf	(___awdiv@divisor+1)^(0+1280),f,c
  2503  0026CE  323D               	rrcf	___awdiv@divisor^(0+1280),f,c
  2504  0026D0  2E3F               	decfsz	___awdiv@counter^(0+1280),f,c
  2505  0026D2  EF52  F013         	goto	l3374
  2506  0026D6                     l3386:
  2507  0026D6  5040               	movf	___awdiv@sign^(0+1280),w,c
  2508  0026D8  B4D8               	btfsc	status,2,c
  2509  0026DA  EF71  F013         	goto	u1141
  2510  0026DE  EF73  F013         	goto	u1140
  2511  0026E2                     u1141:
  2512  0026E2  EF77  F013         	goto	l3390
  2513  0026E6                     u1140:
  2514  0026E6  6C41               	negf	___awdiv@quotient^(0+1280),c
  2515  0026E8  1E42               	comf	(___awdiv@quotient+1)^(0+1280),f,c
  2516  0026EA  B0D8               	btfsc	status,0,c
  2517  0026EC  2A42               	incf	(___awdiv@quotient+1)^(0+1280),f,c
  2518  0026EE                     l3390:
  2519  0026EE  C541  F53B         	movff	___awdiv@quotient,?___awdiv
  2520  0026F2  C542  F53C         	movff	___awdiv@quotient+1,?___awdiv+1
  2521  0026F6  0012               	return		;funcret
  2522  0026F8                     __end_of___awdiv:
  2523                           	callstack 0
  2524                           
  2525 ;; *************** function _ReluctorFreqRead *****************
  2526 ;; Defined at:
  2527 ;;		line 27 in file "reluctor.c"
  2528 ;; Parameters:    Size  Location     Type
  2529 ;;		None
  2530 ;; Auto vars:     Size  Location     Type
  2531 ;;		None
  2532 ;; Return value:  Size  Location     Type
  2533 ;;                  1    wreg      void 
  2534 ;; Registers used:
  2535 ;;		wreg, status,2, status,0, prodl, prodh, cstack
  2536 ;; Tracked objects:
  2537 ;;		On entry : 0/0
  2538 ;;		On exit  : 0/0
  2539 ;;		Unchanged: 0/0
  2540 ;; Data sizes:     COMRAM   BANK5   BANK6   BANK7   BANK8   BANK9  BANK10  BANK11  BANK12  BANK13  BANK14  BANK15  BANK1
      +6  BANK17  BANK18  BANK19  BANK20  BANK21  BANK22  BANK23  BANK24  BANK25  BANK26  BANK27  BANK28  BANK29  BANK30  BANK3
      +1  BANK32  BANK33  BANK34  BANK35  BANK36  BANK37
  2541 ;;      Params:         0       0       0       0       0       0       0       0       0       0       0       0       
      +0       0       0       0       0       0       0       0       0       0       0       0       0       0       0       
      +0       0       0       0       0       0       0
  2542 ;;      Locals:         0       0       0       0       0       0       0       0       0       0       0       0       
      +0       0       0       0       0       0       0       0       0       0       0       0       0       0       0       
      +0       0       0       0       0       0       0
  2543 ;;      Temps:          0       0       0       0       0       0       0       0       0       0       0       0       
      +0       0       0       0       0       0       0       0       0       0       0       0       0       0       0       
      +0       0       0       0       0       0       0
  2544 ;;      Totals:         0       0       0       0       0       0       0       0       0       0       0       0       
      +0       0       0       0       0       0       0       0       0       0       0       0       0       0       0       
      +0       0       0       0       0       0       0
  2545 ;;Total ram usage:        0 bytes
  2546 ;; Hardware stack levels used: 1
  2547 ;; Hardware stack levels required when called: 5
  2548 ;; This function calls:
  2549 ;;		___lwdiv
  2550 ;;		___wmul
  2551 ;; This function is called by:
  2552 ;;		_main
  2553 ;; This function uses a non-reentrant model
  2554 ;;
  2555                           
  2556                           	psect	text25
  2557  00285A                     __ptext25:
  2558                           	callstack 0
  2559  00285A                     _ReluctorFreqRead:
  2560                           	callstack 121
  2561  00285A                     
  2562                           ;reluctor.c: 29:     uiMeterPerSecond = ucCountFreq*(167/32);
  2563  00285A  5032               	movf	_ucCountFreq^(0+1280),w,c
  2564  00285C  0D05               	mullw	5
  2565  00285E  0061 F3CC  F52B    	movff	prodl,_uiMeterPerSecond
  2566  002864  0061 F3D0  F52C    	movff	prodh,_uiMeterPerSecond+1
  2567  00286A                     
  2568                           ;reluctor.c: 30:     uiKmeterPerHour = uiMeterPerSecond * 36/10;
  2569  00286A  C52B  F535         	movff	_uiMeterPerSecond,___wmul@multiplier
  2570  00286E  C52C  F536         	movff	_uiMeterPerSecond+1,___wmul@multiplier+1
  2571  002872  0E00               	movlw	0
  2572  002874  6E38               	movwf	(___wmul@multiplicand+1)^(0+1280),c
  2573  002876  0E24               	movlw	36
  2574  002878  6E37               	movwf	___wmul@multiplicand^(0+1280),c
  2575  00287A  ECBE  F016         	call	___wmul	;wreg free
  2576  00287E  C535  F53B         	movff	?___wmul,___lwdiv@dividend
  2577  002882  C536  F53C         	movff	?___wmul+1,___lwdiv@dividend+1
  2578  002886  0E00               	movlw	0
  2579  002888  6E3E               	movwf	(___lwdiv@divisor+1)^(0+1280),c
  2580  00288A  0E0A               	movlw	10
  2581  00288C  6E3D               	movwf	___lwdiv@divisor^(0+1280),c
  2582  00288E  ECB2  F014         	call	___lwdiv	;wreg free
  2583  002892  C53B  F529         	movff	?___lwdiv,_uiKmeterPerHour
  2584  002896  C53C  F52A         	movff	?___lwdiv+1,_uiKmeterPerHour+1
  2585  00289A                     
  2586                           ;reluctor.c: 32:     if ( uiKmeterPerHour >= 15000 )
  2587  00289A  0E98               	movlw	152
  2588  00289C  5C29               	subwf	_uiKmeterPerHour^(0+1280),w,c
  2589  00289E  0E3A               	movlw	58
  2590  0028A0  582A               	subwfb	(_uiKmeterPerHour+1)^(0+1280),w,c
  2591  0028A2  A0D8               	btfss	status,0,c
  2592  0028A4  EF56  F014         	goto	u1201
  2593  0028A8  EF58  F014         	goto	u1200
  2594  0028AC                     u1201:
  2595  0028AC  EF5C  F014         	goto	l3460
  2596  0028B0                     u1200:
  2597  0028B0                     
  2598                           ;reluctor.c: 33:     {;reluctor.c: 34:         ucReluctorState = 0x01;
  2599  0028B0  0E01               	movlw	1
  2600  0028B2  6E2D               	movwf	_ucReluctorState^(0+1280),c
  2601                           
  2602                           ;reluctor.c: 35:     }
  2603  0028B4  EF6F  F014         	goto	l3466
  2604  0028B8                     l3460:
  2605                           
  2606                           ;reluctor.c: 37:     {;reluctor.c: 38:         ucReluctorState = 0x00;
  2607  0028B8  0E00               	movlw	0
  2608  0028BA  6E2D               	movwf	_ucReluctorState^(0+1280),c
  2609  0028BC                     
  2610                           ;reluctor.c: 39:         ucKPHData1 = (( uiKmeterPerHour / 100 ) & 0x00FF);
  2611  0028BC  C529  F53B         	movff	_uiKmeterPerHour,___lwdiv@dividend
  2612  0028C0  C52A  F53C         	movff	_uiKmeterPerHour+1,___lwdiv@dividend+1
  2613  0028C4  0E00               	movlw	0
  2614  0028C6  6E3E               	movwf	(___lwdiv@divisor+1)^(0+1280),c
  2615  0028C8  0E64               	movlw	100
  2616  0028CA  6E3D               	movwf	___lwdiv@divisor^(0+1280),c
  2617  0028CC  ECB2  F014         	call	___lwdiv	;wreg free
  2618  0028D0  503B               	movf	?___lwdiv^(0+1280),w,c
  2619  0028D2  6E2F               	movwf	_ucKPHData1^(0+1280),c
  2620  0028D4                     
  2621                           ;reluctor.c: 40:         ucKPHData2 = (( uiKmeterPerHour - ( 1000 * ucKPHData1 )) & 0x00
      +                          FF);
  2622  0028D4  502F               	movf	_ucKPHData1^(0+1280),w,c
  2623  0028D6  0D18               	mullw	24
  2624  0028D8  50F3               	movf	243,w,c
  2625  0028DA  2429               	addwf	_uiKmeterPerHour^(0+1280),w,c
  2626  0028DC  6E2E               	movwf	_ucKPHData2^(0+1280),c
  2627  0028DE                     l3466:
  2628                           
  2629                           ;reluctor.c: 43:     ucCountFreq = 0;
  2630  0028DE  0E00               	movlw	0
  2631  0028E0  6E32               	movwf	_ucCountFreq^(0+1280),c
  2632  0028E2  0012               	return		;funcret
  2633  0028E4                     __end_of_ReluctorFreqRead:
  2634                           	callstack 0
  2635                           
  2636 ;; *************** function ___wmul *****************
  2637 ;; Defined at:
  2638 ;;		line 15 in file "C:\Program Files\Microchip\xc8\v2.32\pic\sources\c99\common\Umul16.c"
  2639 ;; Parameters:    Size  Location     Type
  2640 ;;  multiplier      2    2[COMRAM] unsigned int 
  2641 ;;  multiplicand    2    4[COMRAM] unsigned int 
  2642 ;; Auto vars:     Size  Location     Type
  2643 ;;  product         2    6[COMRAM] unsigned int 
  2644 ;; Return value:  Size  Location     Type
  2645 ;;                  2    2[COMRAM] unsigned int 
  2646 ;; Registers used:
  2647 ;;		wreg, status,2, status,0, prodl, prodh
  2648 ;; Tracked objects:
  2649 ;;		On entry : 0/0
  2650 ;;		On exit  : 0/0
  2651 ;;		Unchanged: 0/0
  2652 ;; Data sizes:     COMRAM   BANK5   BANK6   BANK7   BANK8   BANK9  BANK10  BANK11  BANK12  BANK13  BANK14  BANK15  BANK1
      +6  BANK17  BANK18  BANK19  BANK20  BANK21  BANK22  BANK23  BANK24  BANK25  BANK26  BANK27  BANK28  BANK29  BANK30  BANK3
      +1  BANK32  BANK33  BANK34  BANK35  BANK36  BANK37
  2653 ;;      Params:         4       0       0       0       0       0       0       0       0       0       0       0       
      +0       0       0       0       0       0       0       0       0       0       0       0       0       0       0       
      +0       0       0       0       0       0       0
  2654 ;;      Locals:         2       0       0       0       0       0       0       0       0       0       0       0       
      +0       0       0       0       0       0       0       0       0       0       0       0       0       0       0       
      +0       0       0       0       0       0       0
  2655 ;;      Temps:          0       0       0       0       0       0       0       0       0       0       0       0       
      +0       0       0       0       0       0       0       0       0       0       0       0       0       0       0       
      +0       0       0       0       0       0       0
  2656 ;;      Totals:         6       0       0       0       0       0       0       0       0       0       0       0       
      +0       0       0       0       0       0       0       0       0       0       0       0       0       0       0       
      +0       0       0       0       0       0       0
  2657 ;;Total ram usage:        6 bytes
  2658 ;; Hardware stack levels used: 1
  2659 ;; Hardware stack levels required when called: 4
  2660 ;; This function calls:
  2661 ;;		Nothing
  2662 ;; This function is called by:
  2663 ;;		_ReluctorFreqRead
  2664 ;;		_ReluctorPosRead
  2665 ;; This function uses a non-reentrant model
  2666 ;;
  2667                           
  2668                           	psect	text26
  2669  002D7C                     __ptext26:
  2670                           	callstack 0
  2671  002D7C                     ___wmul:
  2672                           	callstack 121
  2673  002D7C  5035               	movf	___wmul@multiplier^(0+1280),w,c
  2674  002D7E  0237               	mulwf	___wmul@multiplicand^(0+1280),c
  2675  002D80  0061 F3CC  F539    	movff	prodl,___wmul@product
  2676  002D86  0061 F3D0  F53A    	movff	prodh,___wmul@product+1
  2677  002D8C  5035               	movf	___wmul@multiplier^(0+1280),w,c
  2678  002D8E  0238               	mulwf	(___wmul@multiplicand+1)^(0+1280),c
  2679  002D90  50F3               	movf	243,w,c
  2680  002D92  263A               	addwf	(___wmul@product+1)^(0+1280),f,c
  2681  002D94  5036               	movf	(___wmul@multiplier+1)^(0+1280),w,c
  2682  002D96  0237               	mulwf	___wmul@multiplicand^(0+1280),c
  2683  002D98  50F3               	movf	243,w,c
  2684  002D9A  263A               	addwf	(___wmul@product+1)^(0+1280),f,c
  2685  002D9C  C539  F535         	movff	___wmul@product,?___wmul
  2686  002DA0  C53A  F536         	movff	___wmul@product+1,?___wmul+1
  2687  002DA4  0012               	return		;funcret
  2688  002DA6                     __end_of___wmul:
  2689                           	callstack 0
  2690                           
  2691 ;; *************** function ___lwdiv *****************
  2692 ;; Defined at:
  2693 ;;		line 7 in file "C:\Program Files\Microchip\xc8\v2.32\pic\sources\c99\common\lwdiv.c"
  2694 ;; Parameters:    Size  Location     Type
  2695 ;;  dividend        2    8[COMRAM] unsigned int 
  2696 ;;  divisor         2   10[COMRAM] unsigned int 
  2697 ;; Auto vars:     Size  Location     Type
  2698 ;;  quotient        2   12[COMRAM] unsigned int 
  2699 ;;  counter         1   14[COMRAM] unsigned char 
  2700 ;; Return value:  Size  Location     Type
  2701 ;;                  2    8[COMRAM] unsigned int 
  2702 ;; Registers used:
  2703 ;;		wreg, status,2, status,0
  2704 ;; Tracked objects:
  2705 ;;		On entry : 0/0
  2706 ;;		On exit  : 0/0
  2707 ;;		Unchanged: 0/0
  2708 ;; Data sizes:     COMRAM   BANK5   BANK6   BANK7   BANK8   BANK9  BANK10  BANK11  BANK12  BANK13  BANK14  BANK15  BANK1
      +6  BANK17  BANK18  BANK19  BANK20  BANK21  BANK22  BANK23  BANK24  BANK25  BANK26  BANK27  BANK28  BANK29  BANK30  BANK3
      +1  BANK32  BANK33  BANK34  BANK35  BANK36  BANK37
  2709 ;;      Params:         4       0       0       0       0       0       0       0       0       0       0       0       
      +0       0       0       0       0       0       0       0       0       0       0       0       0       0       0       
      +0       0       0       0       0       0       0
  2710 ;;      Locals:         3       0       0       0       0       0       0       0       0       0       0       0       
      +0       0       0       0       0       0       0       0       0       0       0       0       0       0       0       
      +0       0       0       0       0       0       0
  2711 ;;      Temps:          0       0       0       0       0       0       0       0       0       0       0       0       
      +0       0       0       0       0       0       0       0       0       0       0       0       0       0       0       
      +0       0       0       0       0       0       0
  2712 ;;      Totals:         7       0       0       0       0       0       0       0       0       0       0       0       
      +0       0       0       0       0       0       0       0       0       0       0       0       0       0       0       
      +0       0       0       0       0       0       0
  2713 ;;Total ram usage:        7 bytes
  2714 ;; Hardware stack levels used: 1
  2715 ;; Hardware stack levels required when called: 4
  2716 ;; This function calls:
  2717 ;;		Nothing
  2718 ;; This function is called by:
  2719 ;;		_ReluctorFreqRead
  2720 ;; This function uses a non-reentrant model
  2721 ;;
  2722                           
  2723                           	psect	text27
  2724  002964                     __ptext27:
  2725                           	callstack 0
  2726  002964                     ___lwdiv:
  2727                           	callstack 121
  2728  002964  0E00               	movlw	0
  2729  002966  6E40               	movwf	(___lwdiv@quotient+1)^(0+1280),c
  2730  002968  0E00               	movlw	0
  2731  00296A  6E3F               	movwf	___lwdiv@quotient^(0+1280),c
  2732  00296C  503D               	movf	___lwdiv@divisor^(0+1280),w,c
  2733  00296E  103E               	iorwf	(___lwdiv@divisor+1)^(0+1280),w,c
  2734  002970  B4D8               	btfsc	status,2,c
  2735  002972  EFBD  F014         	goto	u1151
  2736  002976  EFBF  F014         	goto	u1150
  2737  00297A                     u1151:
  2738  00297A  EFE7  F014         	goto	l1820
  2739  00297E                     u1150:
  2740  00297E  0E01               	movlw	1
  2741  002980  6E41               	movwf	___lwdiv@counter^(0+1280),c
  2742  002982  EFC7  F014         	goto	l3402
  2743  002986                     l3400:
  2744  002986  90D8               	bcf	status,0,c
  2745  002988  363D               	rlcf	___lwdiv@divisor^(0+1280),f,c
  2746  00298A  363E               	rlcf	(___lwdiv@divisor+1)^(0+1280),f,c
  2747  00298C  2A41               	incf	___lwdiv@counter^(0+1280),f,c
  2748  00298E                     l3402:
  2749  00298E  AE3E               	btfss	(___lwdiv@divisor+1)^(0+1280),7,c
  2750  002990  EFCC  F014         	goto	u1161
  2751  002994  EFCE  F014         	goto	u1160
  2752  002998                     u1161:
  2753  002998  EFC3  F014         	goto	l3400
  2754  00299C                     u1160:
  2755  00299C                     l3404:
  2756  00299C  90D8               	bcf	status,0,c
  2757  00299E  363F               	rlcf	___lwdiv@quotient^(0+1280),f,c
  2758  0029A0  3640               	rlcf	(___lwdiv@quotient+1)^(0+1280),f,c
  2759  0029A2  503D               	movf	___lwdiv@divisor^(0+1280),w,c
  2760  0029A4  5C3B               	subwf	___lwdiv@dividend^(0+1280),w,c
  2761  0029A6  503E               	movf	(___lwdiv@divisor+1)^(0+1280),w,c
  2762  0029A8  583C               	subwfb	(___lwdiv@dividend+1)^(0+1280),w,c
  2763  0029AA  A0D8               	btfss	status,0,c
  2764  0029AC  EFDA  F014         	goto	u1171
  2765  0029B0  EFDC  F014         	goto	u1170
  2766  0029B4                     u1171:
  2767  0029B4  EFE1  F014         	goto	l3412
  2768  0029B8                     u1170:
  2769  0029B8  503D               	movf	___lwdiv@divisor^(0+1280),w,c
  2770  0029BA  5E3B               	subwf	___lwdiv@dividend^(0+1280),f,c
  2771  0029BC  503E               	movf	(___lwdiv@divisor+1)^(0+1280),w,c
  2772  0029BE  5A3C               	subwfb	(___lwdiv@dividend+1)^(0+1280),f,c
  2773  0029C0  803F               	bsf	___lwdiv@quotient^(0+1280),0,c
  2774  0029C2                     l3412:
  2775  0029C2  90D8               	bcf	status,0,c
  2776  0029C4  323E               	rrcf	(___lwdiv@divisor+1)^(0+1280),f,c
  2777  0029C6  323D               	rrcf	___lwdiv@divisor^(0+1280),f,c
  2778  0029C8  2E41               	decfsz	___lwdiv@counter^(0+1280),f,c
  2779  0029CA  EFCE  F014         	goto	l3404
  2780  0029CE                     l1820:
  2781  0029CE  C53F  F53B         	movff	___lwdiv@quotient,?___lwdiv
  2782  0029D2  C540  F53C         	movff	___lwdiv@quotient+1,?___lwdiv+1
  2783  0029D6  0012               	return		;funcret
  2784  0029D8                     __end_of___lwdiv:
  2785                           	callstack 0
  2786                           
  2787 ;; *************** function _DELAY_milliseconds *****************
  2788 ;; Defined at:
  2789 ;;		line 38 in file "mcc_generated_files/delay.c"
  2790 ;; Parameters:    Size  Location     Type
  2791 ;;  milliseconds    2    2[COMRAM] unsigned short 
  2792 ;; Auto vars:     Size  Location     Type
  2793 ;;		None
  2794 ;; Return value:  Size  Location     Type
  2795 ;;                  1    wreg      void 
  2796 ;; Registers used:
  2797 ;;		wreg, status,2, status,0
  2798 ;; Tracked objects:
  2799 ;;		On entry : 0/0
  2800 ;;		On exit  : 0/0
  2801 ;;		Unchanged: 0/0
  2802 ;; Data sizes:     COMRAM   BANK5   BANK6   BANK7   BANK8   BANK9  BANK10  BANK11  BANK12  BANK13  BANK14  BANK15  BANK1
      +6  BANK17  BANK18  BANK19  BANK20  BANK21  BANK22  BANK23  BANK24  BANK25  BANK26  BANK27  BANK28  BANK29  BANK30  BANK3
      +1  BANK32  BANK33  BANK34  BANK35  BANK36  BANK37
  2803 ;;      Params:         2       0       0       0       0       0       0       0       0       0       0       0       
      +0       0       0       0       0       0       0       0       0       0       0       0       0       0       0       
      +0       0       0       0       0       0       0
  2804 ;;      Locals:         0       0       0       0       0       0       0       0       0       0       0       0       
      +0       0       0       0       0       0       0       0       0       0       0       0       0       0       0       
      +0       0       0       0       0       0       0
  2805 ;;      Temps:          1       0       0       0       0       0       0       0       0       0       0       0       
      +0       0       0       0       0       0       0       0       0       0       0       0       0       0       0       
      +0       0       0       0       0       0       0
  2806 ;;      Totals:         3       0       0       0       0       0       0       0       0       0       0       0       
      +0       0       0       0       0       0       0       0       0       0       0       0       0       0       0       
      +0       0       0       0       0       0       0
  2807 ;;Total ram usage:        3 bytes
  2808 ;; Hardware stack levels used: 1
  2809 ;; Hardware stack levels required when called: 4
  2810 ;; This function calls:
  2811 ;;		Nothing
  2812 ;; This function is called by:
  2813 ;;		_main
  2814 ;; This function uses a non-reentrant model
  2815 ;;
  2816                           
  2817                           	psect	text28
  2818  002C1A                     __ptext28:
  2819                           	callstack 0
  2820  002C1A                     _DELAY_milliseconds:
  2821                           	callstack 122
  2822  002C1A                     
  2823                           ;mcc_generated_files/delay.c: 39:     while(milliseconds--){
  2824  002C1A  EF16  F016         	goto	l3450
  2825  002C1E                     l3448:
  2826                           
  2827                           ;mcc_generated_files/delay.c: 40:         _delay((unsigned long)((1)*(10000000/4000.0)))
      +                          ;
  2828  002C1E  0E04               	movlw	4
  2829  002C20  6E37               	movwf	??_DELAY_milliseconds^(0+1280),c
  2830  002C22  0E3E               	movlw	62
  2831  002C24                     u1317:
  2832  002C24  2EE8               	decfsz	wreg,f,c
  2833  002C26  D7FE               	bra	u1317
  2834  002C28  2E37               	decfsz	??_DELAY_milliseconds^(0+1280),f,c
  2835  002C2A  D7FC               	bra	u1317
  2836  002C2C                     l3450:
  2837                           
  2838                           ;mcc_generated_files/delay.c: 39:     while(milliseconds--){
  2839  002C2C  0635               	decf	DELAY_milliseconds@milliseconds^(0+1280),f,c
  2840  002C2E  A0D8               	btfss	status,0,c
  2841  002C30  0636               	decf	(DELAY_milliseconds@milliseconds+1)^(0+1280),f,c
  2842  002C32  2835               	incf	DELAY_milliseconds@milliseconds^(0+1280),w,c
  2843  002C34  E106               	bnz	u1191
  2844  002C36  2836               	incf	(DELAY_milliseconds@milliseconds+1)^(0+1280),w,c
  2845  002C38  A4D8               	btfss	status,2,c
  2846  002C3A  EF21  F016         	goto	u1191
  2847  002C3E  EF23  F016         	goto	u1190
  2848  002C42                     u1191:
  2849  002C42  EF0F  F016         	goto	l3448
  2850  002C46                     u1190:
  2851  002C46  0012               	return		;funcret
  2852  002C48                     __end_of_DELAY_milliseconds:
  2853                           	callstack 0
  2854                           
  2855 ;; *************** function _INTERRUPT_InterruptManager *****************
  2856 ;; Defined at:
  2857 ;;		line 58 in file "mcc_generated_files/interrupt_manager.c"
  2858 ;; Parameters:    Size  Location     Type
  2859 ;;		None
  2860 ;; Auto vars:     Size  Location     Type
  2861 ;;		None
  2862 ;; Return value:  Size  Location     Type
  2863 ;;                  1    wreg      void 
  2864 ;; Registers used:
  2865 ;;		wreg, status,2, status,0, pclath, tosl, cstack
  2866 ;; Tracked objects:
  2867 ;;		On entry : 0/0
  2868 ;;		On exit  : 0/0
  2869 ;;		Unchanged: 0/0
  2870 ;; Data sizes:     COMRAM   BANK5   BANK6   BANK7   BANK8   BANK9  BANK10  BANK11  BANK12  BANK13  BANK14  BANK15  BANK1
      +6  BANK17  BANK18  BANK19  BANK20  BANK21  BANK22  BANK23  BANK24  BANK25  BANK26  BANK27  BANK28  BANK29  BANK30  BANK3
      +1  BANK32  BANK33  BANK34  BANK35  BANK36  BANK37
  2871 ;;      Params:         0       0       0       0       0       0       0       0       0       0       0       0       
      +0       0       0       0       0       0       0       0       0       0       0       0       0       0       0       
      +0       0       0       0       0       0       0
  2872 ;;      Locals:         0       0       0       0       0       0       0       0       0       0       0       0       
      +0       0       0       0       0       0       0       0       0       0       0       0       0       0       0       
      +0       0       0       0       0       0       0
  2873 ;;      Temps:          0       0       0       0       0       0       0       0       0       0       0       0       
      +0       0       0       0       0       0       0       0       0       0       0       0       0       0       0       
      +0       0       0       0       0       0       0
  2874 ;;      Totals:         0       0       0       0       0       0       0       0       0       0       0       0       
      +0       0       0       0       0       0       0       0       0       0       0       0       0       0       0       
      +0       0       0       0       0       0       0
  2875 ;;Total ram usage:        0 bytes
  2876 ;; Hardware stack levels used: 1
  2877 ;; Hardware stack levels required when called: 3
  2878 ;; This function calls:
  2879 ;;		_INT0_ISR
  2880 ;;		_INT1_ISR
  2881 ;;		_INT2_ISR
  2882 ;;		_TMR0_ISR
  2883 ;;		_TMR1_ISR
  2884 ;; This function is called by:
  2885 ;;		Interrupt level 2
  2886 ;; This function uses a non-reentrant model
  2887 ;;
  2888                           
  2889                           	psect	text29
  2890  0026F8                     __ptext29:
  2891                           	callstack 0
  2892  0026F8                     _INTERRUPT_InterruptManager:
  2893                           	callstack 119
  2894  0026F8                     
  2895                           ;mcc_generated_files/interrupt_manager.c: 61:     if(PIE3bits.TMR0IE == 1 && PIR3bits.TM
      +                          R0IF == 1)
  2896  0026F8  AEA1               	btfss	161,7,c	;volatile
  2897  0026FA  EF81  F013         	goto	i2u121_41
  2898  0026FE  EF83  F013         	goto	i2u121_40
  2899  002702                     i2u121_41:
  2900  002702  EF8E  F013         	goto	i2l138
  2901  002706                     i2u121_40:
  2902  002706  AEB1               	btfss	177,7,c	;volatile
  2903  002708  EF88  F013         	goto	i2u122_41
  2904  00270C  EF8A  F013         	goto	i2u122_40
  2905  002710                     i2u122_41:
  2906  002710  EF8E  F013         	goto	i2l138
  2907  002714                     i2u122_40:
  2908  002714                     
  2909                           ;mcc_generated_files/interrupt_manager.c: 62:     {;mcc_generated_files/interrupt_manage
      +                          r.c: 63:         TMR0_ISR();
  2910  002714  ECD3  F016         	call	_TMR0_ISR	;wreg free
  2911                           
  2912                           ;mcc_generated_files/interrupt_manager.c: 64:     }
  2913  002718  EFD6  F013         	goto	i2l148
  2914  00271C                     i2l138:
  2915  00271C  A09F               	btfss	159,0,c	;volatile
  2916  00271E  EF93  F013         	goto	i2u123_41
  2917  002722  EF95  F013         	goto	i2u123_40
  2918  002726                     i2u123_41:
  2919  002726  EFA0  F013         	goto	i2l140
  2920  00272A                     i2u123_40:
  2921  00272A  A0AF               	btfss	175,0,c	;volatile
  2922  00272C  EF9A  F013         	goto	i2u124_41
  2923  002730  EF9C  F013         	goto	i2u124_40
  2924  002734                     i2u124_41:
  2925  002734  EFA0  F013         	goto	i2l140
  2926  002738                     i2u124_40:
  2927  002738                     
  2928                           ;mcc_generated_files/interrupt_manager.c: 66:     {;mcc_generated_files/interrupt_manage
      +                          r.c: 67:         INT0_ISR();
  2929  002738  EC67  F017         	call	_INT0_ISR	;wreg free
  2930                           
  2931                           ;mcc_generated_files/interrupt_manager.c: 68:     }
  2932  00273C  EFD6  F013         	goto	i2l148
  2933  002740                     i2l140:
  2934  002740  A0A4               	btfss	164,0,c	;volatile
  2935  002742  EFA5  F013         	goto	i2u125_41
  2936  002746  EFA7  F013         	goto	i2u125_40
  2937  00274A                     i2u125_41:
  2938  00274A  EFB2  F013         	goto	i2l142
  2939  00274E                     i2u125_40:
  2940  00274E  A0B4               	btfss	180,0,c	;volatile
  2941  002750  EFAC  F013         	goto	i2u126_41
  2942  002754  EFAE  F013         	goto	i2u126_40
  2943  002758                     i2u126_41:
  2944  002758  EFB2  F013         	goto	i2l142
  2945  00275C                     i2u126_40:
  2946  00275C                     
  2947                           ;mcc_generated_files/interrupt_manager.c: 70:     {;mcc_generated_files/interrupt_manage
      +                          r.c: 71:         INT1_ISR();
  2948  00275C  EC63  F017         	call	_INT1_ISR	;wreg free
  2949                           
  2950                           ;mcc_generated_files/interrupt_manager.c: 72:     }
  2951  002760  EFD6  F013         	goto	i2l148
  2952  002764                     i2l142:
  2953  002764  A0A8               	btfss	168,0,c	;volatile
  2954  002766  EFB7  F013         	goto	i2u127_41
  2955  00276A  EFB9  F013         	goto	i2u127_40
  2956  00276E                     i2u127_41:
  2957  00276E  EFC4  F013         	goto	i2l144
  2958  002772                     i2u127_40:
  2959  002772  A0B8               	btfss	184,0,c	;volatile
  2960  002774  EFBE  F013         	goto	i2u128_41
  2961  002778  EFC0  F013         	goto	i2u128_40
  2962  00277C                     i2u128_41:
  2963  00277C  EFC4  F013         	goto	i2l144
  2964  002780                     i2u128_40:
  2965  002780                     
  2966                           ;mcc_generated_files/interrupt_manager.c: 74:     {;mcc_generated_files/interrupt_manage
      +                          r.c: 75:         INT2_ISR();
  2967  002780  EC5F  F017         	call	_INT2_ISR	;wreg free
  2968                           
  2969                           ;mcc_generated_files/interrupt_manager.c: 76:     }
  2970  002784  EFD6  F013         	goto	i2l148
  2971  002788                     i2l144:
  2972  002788  A8A1               	btfss	161,4,c	;volatile
  2973  00278A  EFC9  F013         	goto	i2u129_41
  2974  00278E  EFCB  F013         	goto	i2u129_40
  2975  002792                     i2u129_41:
  2976  002792  EFD6  F013         	goto	i2l143
  2977  002796                     i2u129_40:
  2978  002796  A8B1               	btfss	177,4,c	;volatile
  2979  002798  EFD0  F013         	goto	i2u130_41
  2980  00279C  EFD2  F013         	goto	i2u130_40
  2981  0027A0                     i2u130_41:
  2982  0027A0  EFD6  F013         	goto	i2l143
  2983  0027A4                     i2u130_40:
  2984  0027A4                     
  2985                           ;mcc_generated_files/interrupt_manager.c: 78:     {;mcc_generated_files/interrupt_manage
      +                          r.c: 79:         TMR1_ISR();
  2986  0027A4  ECBE  F015         	call	_TMR1_ISR	;wreg free
  2987                           
  2988                           ;mcc_generated_files/interrupt_manager.c: 80:     }
  2989  0027A8  EFD6  F013         	goto	i2l148
  2990  0027AC                     i2l143:
  2991  0027AC                     i2l148:
  2992  0027AC  0011               	retfie		f
  2993  0027AE                     __end_of_INTERRUPT_InterruptManager:
  2994                           	callstack 0
  2995                           
  2996 ;; *************** function _TMR1_ISR *****************
  2997 ;; Defined at:
  2998 ;;		line 164 in file "mcc_generated_files/tmr1.c"
  2999 ;; Parameters:    Size  Location     Type
  3000 ;;		None
  3001 ;; Auto vars:     Size  Location     Type
  3002 ;;		None
  3003 ;; Return value:  Size  Location     Type
  3004 ;;                  1    wreg      void 
  3005 ;; Registers used:
  3006 ;;		wreg, status,2, status,0, pclath, tosl, cstack
  3007 ;; Tracked objects:
  3008 ;;		On entry : 0/0
  3009 ;;		On exit  : 0/0
  3010 ;;		Unchanged: 0/0
  3011 ;; Data sizes:     COMRAM   BANK5   BANK6   BANK7   BANK8   BANK9  BANK10  BANK11  BANK12  BANK13  BANK14  BANK15  BANK1
      +6  BANK17  BANK18  BANK19  BANK20  BANK21  BANK22  BANK23  BANK24  BANK25  BANK26  BANK27  BANK28  BANK29  BANK30  BANK3
      +1  BANK32  BANK33  BANK34  BANK35  BANK36  BANK37
  3012 ;;      Params:         0       0       0       0       0       0       0       0       0       0       0       0       
      +0       0       0       0       0       0       0       0       0       0       0       0       0       0       0       
      +0       0       0       0       0       0       0
  3013 ;;      Locals:         0       0       0       0       0       0       0       0       0       0       0       0       
      +0       0       0       0       0       0       0       0       0       0       0       0       0       0       0       
      +0       0       0       0       0       0       0
  3014 ;;      Temps:          0       0       0       0       0       0       0       0       0       0       0       0       
      +0       0       0       0       0       0       0       0       0       0       0       0       0       0       0       
      +0       0       0       0       0       0       0
  3015 ;;      Totals:         0       0       0       0       0       0       0       0       0       0       0       0       
      +0       0       0       0       0       0       0       0       0       0       0       0       0       0       0       
      +0       0       0       0       0       0       0
  3016 ;;Total ram usage:        0 bytes
  3017 ;; Hardware stack levels used: 1
  3018 ;; Hardware stack levels required when called: 2
  3019 ;; This function calls:
  3020 ;;		_TMR1_CallBack
  3021 ;;		_TMR1_WriteTimer
  3022 ;; This function is called by:
  3023 ;;		_INTERRUPT_InterruptManager
  3024 ;; This function uses a non-reentrant model
  3025 ;;
  3026                           
  3027                           	psect	text30
  3028  002B7C                     __ptext30:
  3029                           	callstack 0
  3030  002B7C                     _TMR1_ISR:
  3031                           	callstack 119
  3032  002B7C                     
  3033                           ;mcc_generated_files/tmr1.c: 166:     static volatile unsigned int CountCallBack = 0;;mc
      +                          c_generated_files/tmr1.c: 169:     PIR3bits.TMR1IF = 0;
  3034  002B7C  98B1               	bcf	177,4,c	;volatile
  3035  002B7E                     
  3036                           ;mcc_generated_files/tmr1.c: 170:     TMR1_WriteTimer(timer1ReloadVal);
  3037  002B7E  C54B  F533         	movff	_timer1ReloadVal,TMR1_WriteTimer@timerVal	;volatile
  3038  002B82  C54C  F534         	movff	_timer1ReloadVal+1,TMR1_WriteTimer@timerVal+1	;volatile
  3039  002B86  EC24  F016         	call	_TMR1_WriteTimer	;wreg free
  3040  002B8A                     
  3041                           ;mcc_generated_files/tmr1.c: 173:     if (++CountCallBack >= 5)
  3042  002B8A  4A27               	infsnz	TMR1_ISR@CountCallBack^(0+1280),f,c	;volatile
  3043  002B8C  2A28               	incf	(TMR1_ISR@CountCallBack+1)^(0+1280),f,c	;volatile
  3044  002B8E  5028               	movf	(TMR1_ISR@CountCallBack+1)^(0+1280),w,c	;volatile
  3045  002B90  E109               	bnz	i2u118_40
  3046  002B92  0E05               	movlw	5
  3047  002B94  5C27               	subwf	TMR1_ISR@CountCallBack^(0+1280),w,c	;volatile
  3048  002B96  A0D8               	btfss	status,0,c
  3049  002B98  EFD0  F015         	goto	i2u118_41
  3050  002B9C  EFD2  F015         	goto	i2u118_40
  3051  002BA0                     i2u118_41:
  3052  002BA0  EFD8  F015         	goto	i2l1258
  3053  002BA4                     i2u118_40:
  3054  002BA4                     
  3055                           ;mcc_generated_files/tmr1.c: 174:     {;mcc_generated_files/tmr1.c: 176:         TMR1_Ca
      +                          llBack();
  3056  002BA4  EC51  F016         	call	_TMR1_CallBack	;wreg free
  3057  002BA8                     
  3058                           ;mcc_generated_files/tmr1.c: 179:         CountCallBack = 0;
  3059  002BA8  0E00               	movlw	0
  3060  002BAA  6E28               	movwf	(TMR1_ISR@CountCallBack+1)^(0+1280),c	;volatile
  3061  002BAC  0E00               	movlw	0
  3062  002BAE  6E27               	movwf	TMR1_ISR@CountCallBack^(0+1280),c	;volatile
  3063  002BB0                     i2l1258:
  3064  002BB0  0012               	return		;funcret
  3065  002BB2                     __end_of_TMR1_ISR:
  3066                           	callstack 0
  3067                           
  3068 ;; *************** function _TMR1_WriteTimer *****************
  3069 ;; Defined at:
  3070 ;;		line 127 in file "mcc_generated_files/tmr1.c"
  3071 ;; Parameters:    Size  Location     Type
  3072 ;;  timerVal        2    0[COMRAM] unsigned short 
  3073 ;; Auto vars:     Size  Location     Type
  3074 ;;		None
  3075 ;; Return value:  Size  Location     Type
  3076 ;;                  1    wreg      void 
  3077 ;; Registers used:
  3078 ;;		wreg, status,2
  3079 ;; Tracked objects:
  3080 ;;		On entry : 0/0
  3081 ;;		On exit  : 0/0
  3082 ;;		Unchanged: 0/0
  3083 ;; Data sizes:     COMRAM   BANK5   BANK6   BANK7   BANK8   BANK9  BANK10  BANK11  BANK12  BANK13  BANK14  BANK15  BANK1
      +6  BANK17  BANK18  BANK19  BANK20  BANK21  BANK22  BANK23  BANK24  BANK25  BANK26  BANK27  BANK28  BANK29  BANK30  BANK3
      +1  BANK32  BANK33  BANK34  BANK35  BANK36  BANK37
  3084 ;;      Params:         2       0       0       0       0       0       0       0       0       0       0       0       
      +0       0       0       0       0       0       0       0       0       0       0       0       0       0       0       
      +0       0       0       0       0       0       0
  3085 ;;      Locals:         0       0       0       0       0       0       0       0       0       0       0       0       
      +0       0       0       0       0       0       0       0       0       0       0       0       0       0       0       
      +0       0       0       0       0       0       0
  3086 ;;      Temps:          0       0       0       0       0       0       0       0       0       0       0       0       
      +0       0       0       0       0       0       0       0       0       0       0       0       0       0       0       
      +0       0       0       0       0       0       0
  3087 ;;      Totals:         2       0       0       0       0       0       0       0       0       0       0       0       
      +0       0       0       0       0       0       0       0       0       0       0       0       0       0       0       
      +0       0       0       0       0       0       0
  3088 ;;Total ram usage:        2 bytes
  3089 ;; Hardware stack levels used: 1
  3090 ;; This function calls:
  3091 ;;		Nothing
  3092 ;; This function is called by:
  3093 ;;		_TMR1_ISR
  3094 ;;		_TMR1_Reload
  3095 ;; This function uses a non-reentrant model
  3096 ;;
  3097                           
  3098                           	psect	text31
  3099  002C48                     __ptext31:
  3100                           	callstack 0
  3101  002C48                     _TMR1_WriteTimer:
  3102                           	callstack 120
  3103  002C48                     
  3104                           ;mcc_generated_files/tmr1.c: 127: void TMR1_WriteTimer(uint16_t timerVal);mcc_generated_
      +                          files/tmr1.c: 128: {;mcc_generated_files/tmr1.c: 129:     if (T1CONbits.NOT_SYNC == 1)
  3105  002C48  0103               	movlb	3	; () banked
  3106  002C4A  A51E               	btfss	30,2,b	;volatile
  3107  002C4C  EF2A  F016         	goto	i2u108_41
  3108  002C50  EF2C  F016         	goto	i2u108_40
  3109  002C54                     i2u108_41:
  3110  002C54  EF35  F016         	goto	i2l3340
  3111  002C58                     i2u108_40:
  3112  002C58                     
  3113                           ; BSR set to: 3
  3114                           ;mcc_generated_files/tmr1.c: 130:     {;mcc_generated_files/tmr1.c: 132:         T1CONbi
      +                          ts.TMR1ON = 0;
  3115  002C58  911E               	bcf	30,0,b	;volatile
  3116  002C5A                     
  3117                           ; BSR set to: 3
  3118                           ;mcc_generated_files/tmr1.c: 135:         TMR1H = (uint8_t)(timerVal >> 8);
  3119  002C5A  5034               	movf	(TMR1_WriteTimer@timerVal+1)^(0+1280),w,c
  3120  002C5C  6F1D               	movwf	29,b	;volatile
  3121  002C5E                     
  3122                           ; BSR set to: 3
  3123                           ;mcc_generated_files/tmr1.c: 136:         TMR1L = (uint8_t)timerVal;
  3124  002C5E  0061  F4CC  F31C   	movff	TMR1_WriteTimer@timerVal,796	;volatile
  3125  002C64                     
  3126                           ; BSR set to: 3
  3127                           ;mcc_generated_files/tmr1.c: 139:         T1CONbits.TMR1ON =1;
  3128  002C64  811E               	bsf	30,0,b	;volatile
  3129                           
  3130                           ;mcc_generated_files/tmr1.c: 140:     }
  3131  002C66  EF3A  F016         	goto	i2l1243
  3132  002C6A                     i2l3340:
  3133                           
  3134                           ; BSR set to: 3
  3135                           ;mcc_generated_files/tmr1.c: 142:     {;mcc_generated_files/tmr1.c: 144:         TMR1H =
      +                           (uint8_t)(timerVal >> 8);
  3136  002C6A  5034               	movf	(TMR1_WriteTimer@timerVal+1)^(0+1280),w,c
  3137  002C6C  6F1D               	movwf	29,b	;volatile
  3138  002C6E                     
  3139                           ; BSR set to: 3
  3140                           ;mcc_generated_files/tmr1.c: 145:         TMR1L = (uint8_t)timerVal;
  3141  002C6E  0061  F4CC  F31C   	movff	TMR1_WriteTimer@timerVal,796	;volatile
  3142  002C74                     i2l1243:
  3143                           
  3144                           ; BSR set to: 3
  3145  002C74  0012               	return		;funcret
  3146  002C76                     __end_of_TMR1_WriteTimer:
  3147                           	callstack 0
  3148                           
  3149 ;; *************** function _TMR1_CallBack *****************
  3150 ;; Defined at:
  3151 ;;		line 183 in file "mcc_generated_files/tmr1.c"
  3152 ;; Parameters:    Size  Location     Type
  3153 ;;		None
  3154 ;; Auto vars:     Size  Location     Type
  3155 ;;		None
  3156 ;; Return value:  Size  Location     Type
  3157 ;;                  1    wreg      void 
  3158 ;; Registers used:
  3159 ;;		wreg, status,2, status,0, pclath, tosl, cstack
  3160 ;; Tracked objects:
  3161 ;;		On entry : 0/0
  3162 ;;		On exit  : 0/0
  3163 ;;		Unchanged: 0/0
  3164 ;; Data sizes:     COMRAM   BANK5   BANK6   BANK7   BANK8   BANK9  BANK10  BANK11  BANK12  BANK13  BANK14  BANK15  BANK1
      +6  BANK17  BANK18  BANK19  BANK20  BANK21  BANK22  BANK23  BANK24  BANK25  BANK26  BANK27  BANK28  BANK29  BANK30  BANK3
      +1  BANK32  BANK33  BANK34  BANK35  BANK36  BANK37
  3165 ;;      Params:         0       0       0       0       0       0       0       0       0       0       0       0       
      +0       0       0       0       0       0       0       0       0       0       0       0       0       0       0       
      +0       0       0       0       0       0       0
  3166 ;;      Locals:         0       0       0       0       0       0       0       0       0       0       0       0       
      +0       0       0       0       0       0       0       0       0       0       0       0       0       0       0       
      +0       0       0       0       0       0       0
  3167 ;;      Temps:          0       0       0       0       0       0       0       0       0       0       0       0       
      +0       0       0       0       0       0       0       0       0       0       0       0       0       0       0       
      +0       0       0       0       0       0       0
  3168 ;;      Totals:         0       0       0       0       0       0       0       0       0       0       0       0       
      +0       0       0       0       0       0       0       0       0       0       0       0       0       0       0       
      +0       0       0       0       0       0       0
  3169 ;;Total ram usage:        0 bytes
  3170 ;; Hardware stack levels used: 1
  3171 ;; Hardware stack levels required when called: 1
  3172 ;; This function calls:
  3173 ;;		Absolute function
  3174 ;;		_TMR1_DefaultInterruptHandler
  3175 ;; This function is called by:
  3176 ;;		_TMR1_ISR
  3177 ;; This function uses a non-reentrant model
  3178 ;;
  3179                           
  3180                           	psect	text32
  3181  002CA2                     __ptext32:
  3182                           	callstack 0
  3183  002CA2                     _TMR1_CallBack:
  3184                           	callstack 119
  3185  002CA2                     
  3186                           ;mcc_generated_files/tmr1.c: 186:     if(TMR1_InterruptHandler)
  3187  002CA2  5049               	movf	_TMR1_InterruptHandler^(0+1280),w,c
  3188  002CA4  104A               	iorwf	(_TMR1_InterruptHandler+1)^(0+1280),w,c
  3189  002CA6  B4D8               	btfsc	status,2,c
  3190  002CA8  EF58  F016         	goto	i2u18_41
  3191  002CAC  EF5A  F016         	goto	i2u18_40
  3192  002CB0                     i2u18_41:
  3193  002CB0  EF66  F016         	goto	i2l1262
  3194  002CB4                     i2u18_40:
  3195  002CB4                     
  3196                           ;mcc_generated_files/tmr1.c: 187:     {;mcc_generated_files/tmr1.c: 188:         TMR1_In
      +                          terruptHandler();
  3197  002CB4  D802               	call	i2u19_48
  3198  002CB6  EF66  F016         	goto	i2u19_49
  3199  002CBA                     i2u19_48:
  3200  002CBA  0005               	push	
  3201  002CBC  6EFA               	movwf	pclath,c
  3202  002CBE  5049               	movf	_TMR1_InterruptHandler^(0+1280),w,c
  3203  002CC0  6EFD               	movwf	tosl,c
  3204  002CC2  504A               	movf	(_TMR1_InterruptHandler+1)^(0+1280),w,c
  3205  002CC4  6EFE               	movwf	tosh,c
  3206  002CC6  6AFF               	clrf	tosu,c
  3207  002CC8  50FA               	movf	pclath,w,c
  3208  002CCA  0012               	return		;indir
  3209  002CCC                     i2u19_49:
  3210  002CCC                     i2l1262:
  3211  002CCC  0012               	return		;funcret
  3212  002CCE                     __end_of_TMR1_CallBack:
  3213                           	callstack 0
  3214                           
  3215 ;; *************** function _TMR1_DefaultInterruptHandler *****************
  3216 ;; Defined at:
  3217 ;;		line 196 in file "mcc_generated_files/tmr1.c"
  3218 ;; Parameters:    Size  Location     Type
  3219 ;;		None
  3220 ;; Auto vars:     Size  Location     Type
  3221 ;;		None
  3222 ;; Return value:  Size  Location     Type
  3223 ;;                  1    wreg      void 
  3224 ;; Registers used:
  3225 ;;		None
  3226 ;; Tracked objects:
  3227 ;;		On entry : 0/0
  3228 ;;		On exit  : 0/0
  3229 ;;		Unchanged: 0/0
  3230 ;; Data sizes:     COMRAM   BANK5   BANK6   BANK7   BANK8   BANK9  BANK10  BANK11  BANK12  BANK13  BANK14  BANK15  BANK1
      +6  BANK17  BANK18  BANK19  BANK20  BANK21  BANK22  BANK23  BANK24  BANK25  BANK26  BANK27  BANK28  BANK29  BANK30  BANK3
      +1  BANK32  BANK33  BANK34  BANK35  BANK36  BANK37
  3231 ;;      Params:         0       0       0       0       0       0       0       0       0       0       0       0       
      +0       0       0       0       0       0       0       0       0       0       0       0       0       0       0       
      +0       0       0       0       0       0       0
  3232 ;;      Locals:         0       0       0       0       0       0       0       0       0       0       0       0       
      +0       0       0       0       0       0       0       0       0       0       0       0       0       0       0       
      +0       0       0       0       0       0       0
  3233 ;;      Temps:          0       0       0       0       0       0       0       0       0       0       0       0       
      +0       0       0       0       0       0       0       0       0       0       0       0       0       0       0       
      +0       0       0       0       0       0       0
  3234 ;;      Totals:         0       0       0       0       0       0       0       0       0       0       0       0       
      +0       0       0       0       0       0       0       0       0       0       0       0       0       0       0       
      +0       0       0       0       0       0       0
  3235 ;;Total ram usage:        0 bytes
  3236 ;; Hardware stack levels used: 1
  3237 ;; This function calls:
  3238 ;;		Nothing
  3239 ;; This function is called by:
  3240 ;;		_TMR1_Initialize
  3241 ;;		_TMR1_CallBack
  3242 ;; This function uses a non-reentrant model
  3243 ;;
  3244                           
  3245                           	psect	text33
  3246  002EDE                     __ptext33:
  3247                           	callstack 0
  3248  002EDE                     _TMR1_DefaultInterruptHandler:
  3249                           	callstack 119
  3250  002EDE  0012               	return		;funcret
  3251  002EE0                     __end_of_TMR1_DefaultInterruptHandler:
  3252                           	callstack 0
  3253                           
  3254 ;; *************** function _TMR0_ISR *****************
  3255 ;; Defined at:
  3256 ;;		line 122 in file "mcc_generated_files/tmr0.c"
  3257 ;; Parameters:    Size  Location     Type
  3258 ;;		None
  3259 ;; Auto vars:     Size  Location     Type
  3260 ;;		None
  3261 ;; Return value:  Size  Location     Type
  3262 ;;                  1    wreg      void 
  3263 ;; Registers used:
  3264 ;;		wreg, status,2, status,0, pclath, tosl, cstack
  3265 ;; Tracked objects:
  3266 ;;		On entry : 0/0
  3267 ;;		On exit  : 0/0
  3268 ;;		Unchanged: 0/0
  3269 ;; Data sizes:     COMRAM   BANK5   BANK6   BANK7   BANK8   BANK9  BANK10  BANK11  BANK12  BANK13  BANK14  BANK15  BANK1
      +6  BANK17  BANK18  BANK19  BANK20  BANK21  BANK22  BANK23  BANK24  BANK25  BANK26  BANK27  BANK28  BANK29  BANK30  BANK3
      +1  BANK32  BANK33  BANK34  BANK35  BANK36  BANK37
  3270 ;;      Params:         0       0       0       0       0       0       0       0       0       0       0       0       
      +0       0       0       0       0       0       0       0       0       0       0       0       0       0       0       
      +0       0       0       0       0       0       0
  3271 ;;      Locals:         0       0       0       0       0       0       0       0       0       0       0       0       
      +0       0       0       0       0       0       0       0       0       0       0       0       0       0       0       
      +0       0       0       0       0       0       0
  3272 ;;      Temps:          0       0       0       0       0       0       0       0       0       0       0       0       
      +0       0       0       0       0       0       0       0       0       0       0       0       0       0       0       
      +0       0       0       0       0       0       0
  3273 ;;      Totals:         0       0       0       0       0       0       0       0       0       0       0       0       
      +0       0       0       0       0       0       0       0       0       0       0       0       0       0       0       
      +0       0       0       0       0       0       0
  3274 ;;Total ram usage:        0 bytes
  3275 ;; Hardware stack levels used: 1
  3276 ;; Hardware stack levels required when called: 2
  3277 ;; This function calls:
  3278 ;;		_TMR0_CallBack
  3279 ;; This function is called by:
  3280 ;;		_INTERRUPT_InterruptManager
  3281 ;; This function uses a non-reentrant model
  3282 ;;
  3283                           
  3284                           	psect	text34
  3285  002DA6                     __ptext34:
  3286                           	callstack 0
  3287  002DA6                     _TMR0_ISR:
  3288                           	callstack 119
  3289  002DA6                     
  3290                           ;mcc_generated_files/tmr0.c: 124:     static volatile uint16_t CountCallBack = 0;;mcc_ge
      +                          nerated_files/tmr0.c: 127:     PIR3bits.TMR0IF = 0;
  3291  002DA6  9EB1               	bcf	177,7,c	;volatile
  3292  002DA8                     
  3293                           ;mcc_generated_files/tmr0.c: 133:     if (++CountCallBack >= 5)
  3294  002DA8  4A25               	infsnz	TMR0_ISR@CountCallBack^(0+1280),f,c	;volatile
  3295  002DAA  2A26               	incf	(TMR0_ISR@CountCallBack+1)^(0+1280),f,c	;volatile
  3296  002DAC  5026               	movf	(TMR0_ISR@CountCallBack+1)^(0+1280),w,c	;volatile
  3297  002DAE  E109               	bnz	i2u31_40
  3298  002DB0  0E05               	movlw	5
  3299  002DB2  5C25               	subwf	TMR0_ISR@CountCallBack^(0+1280),w,c	;volatile
  3300  002DB4  A0D8               	btfss	status,0,c
  3301  002DB6  EFDF  F016         	goto	i2u31_41
  3302  002DBA  EFE1  F016         	goto	i2u31_40
  3303  002DBE                     i2u31_41:
  3304  002DBE  EFE7  F016         	goto	i2l1316
  3305  002DC2                     i2u31_40:
  3306  002DC2                     
  3307                           ;mcc_generated_files/tmr0.c: 134:     {;mcc_generated_files/tmr0.c: 136:         TMR0_Ca
      +                          llBack();
  3308  002DC2  EC67  F016         	call	_TMR0_CallBack	;wreg free
  3309  002DC6                     
  3310                           ;mcc_generated_files/tmr0.c: 139:         CountCallBack = 0;
  3311  002DC6  0E00               	movlw	0
  3312  002DC8  6E26               	movwf	(TMR0_ISR@CountCallBack+1)^(0+1280),c	;volatile
  3313  002DCA  0E00               	movlw	0
  3314  002DCC  6E25               	movwf	TMR0_ISR@CountCallBack^(0+1280),c	;volatile
  3315  002DCE                     i2l1316:
  3316  002DCE  0012               	return		;funcret
  3317  002DD0                     __end_of_TMR0_ISR:
  3318                           	callstack 0
  3319                           
  3320 ;; *************** function _TMR0_CallBack *****************
  3321 ;; Defined at:
  3322 ;;		line 145 in file "mcc_generated_files/tmr0.c"
  3323 ;; Parameters:    Size  Location     Type
  3324 ;;		None
  3325 ;; Auto vars:     Size  Location     Type
  3326 ;;		None
  3327 ;; Return value:  Size  Location     Type
  3328 ;;                  1    wreg      void 
  3329 ;; Registers used:
  3330 ;;		wreg, status,2, status,0, pclath, tosl, cstack
  3331 ;; Tracked objects:
  3332 ;;		On entry : 0/0
  3333 ;;		On exit  : 0/0
  3334 ;;		Unchanged: 0/0
  3335 ;; Data sizes:     COMRAM   BANK5   BANK6   BANK7   BANK8   BANK9  BANK10  BANK11  BANK12  BANK13  BANK14  BANK15  BANK1
      +6  BANK17  BANK18  BANK19  BANK20  BANK21  BANK22  BANK23  BANK24  BANK25  BANK26  BANK27  BANK28  BANK29  BANK30  BANK3
      +1  BANK32  BANK33  BANK34  BANK35  BANK36  BANK37
  3336 ;;      Params:         0       0       0       0       0       0       0       0       0       0       0       0       
      +0       0       0       0       0       0       0       0       0       0       0       0       0       0       0       
      +0       0       0       0       0       0       0
  3337 ;;      Locals:         0       0       0       0       0       0       0       0       0       0       0       0       
      +0       0       0       0       0       0       0       0       0       0       0       0       0       0       0       
      +0       0       0       0       0       0       0
  3338 ;;      Temps:          0       0       0       0       0       0       0       0       0       0       0       0       
      +0       0       0       0       0       0       0       0       0       0       0       0       0       0       0       
      +0       0       0       0       0       0       0
  3339 ;;      Totals:         0       0       0       0       0       0       0       0       0       0       0       0       
      +0       0       0       0       0       0       0       0       0       0       0       0       0       0       0       
      +0       0       0       0       0       0       0
  3340 ;;Total ram usage:        0 bytes
  3341 ;; Hardware stack levels used: 1
  3342 ;; Hardware stack levels required when called: 1
  3343 ;; This function calls:
  3344 ;;		Absolute function
  3345 ;;		_TMR0_DefaultInterruptHandler
  3346 ;; This function is called by:
  3347 ;;		_TMR0_ISR
  3348 ;; This function uses a non-reentrant model
  3349 ;;
  3350                           
  3351                           	psect	text35
  3352  002CCE                     __ptext35:
  3353                           	callstack 0
  3354  002CCE                     _TMR0_CallBack:
  3355                           	callstack 119
  3356  002CCE                     
  3357                           ;mcc_generated_files/tmr0.c: 149:     if(TMR0_InterruptHandler)
  3358  002CCE  5047               	movf	_TMR0_InterruptHandler^(0+1280),w,c
  3359  002CD0  1048               	iorwf	(_TMR0_InterruptHandler+1)^(0+1280),w,c
  3360  002CD2  B4D8               	btfsc	status,2,c
  3361  002CD4  EF6E  F016         	goto	i2u20_41
  3362  002CD8  EF70  F016         	goto	i2u20_40
  3363  002CDC                     i2u20_41:
  3364  002CDC  EF7C  F016         	goto	i2l1320
  3365  002CE0                     i2u20_40:
  3366  002CE0                     
  3367                           ;mcc_generated_files/tmr0.c: 150:     {;mcc_generated_files/tmr0.c: 151:         TMR0_In
      +                          terruptHandler();
  3368  002CE0  D802               	call	i2u21_48
  3369  002CE2  EF7C  F016         	goto	i2u21_49
  3370  002CE6                     i2u21_48:
  3371  002CE6  0005               	push	
  3372  002CE8  6EFA               	movwf	pclath,c
  3373  002CEA  5047               	movf	_TMR0_InterruptHandler^(0+1280),w,c
  3374  002CEC  6EFD               	movwf	tosl,c
  3375  002CEE  5048               	movf	(_TMR0_InterruptHandler+1)^(0+1280),w,c
  3376  002CF0  6EFE               	movwf	tosh,c
  3377  002CF2  6AFF               	clrf	tosu,c
  3378  002CF4  50FA               	movf	pclath,w,c
  3379  002CF6  0012               	return		;indir
  3380  002CF8                     i2u21_49:
  3381  002CF8                     i2l1320:
  3382  002CF8  0012               	return		;funcret
  3383  002CFA                     __end_of_TMR0_CallBack:
  3384                           	callstack 0
  3385                           
  3386 ;; *************** function _TMR0_DefaultInterruptHandler *****************
  3387 ;; Defined at:
  3388 ;;		line 159 in file "mcc_generated_files/tmr0.c"
  3389 ;; Parameters:    Size  Location     Type
  3390 ;;		None
  3391 ;; Auto vars:     Size  Location     Type
  3392 ;;		None
  3393 ;; Return value:  Size  Location     Type
  3394 ;;                  1    wreg      void 
  3395 ;; Registers used:
  3396 ;;		None
  3397 ;; Tracked objects:
  3398 ;;		On entry : 0/0
  3399 ;;		On exit  : 0/0
  3400 ;;		Unchanged: 0/0
  3401 ;; Data sizes:     COMRAM   BANK5   BANK6   BANK7   BANK8   BANK9  BANK10  BANK11  BANK12  BANK13  BANK14  BANK15  BANK1
      +6  BANK17  BANK18  BANK19  BANK20  BANK21  BANK22  BANK23  BANK24  BANK25  BANK26  BANK27  BANK28  BANK29  BANK30  BANK3
      +1  BANK32  BANK33  BANK34  BANK35  BANK36  BANK37
  3402 ;;      Params:         0       0       0       0       0       0       0       0       0       0       0       0       
      +0       0       0       0       0       0       0       0       0       0       0       0       0       0       0       
      +0       0       0       0       0       0       0
  3403 ;;      Locals:         0       0       0       0       0       0       0       0       0       0       0       0       
      +0       0       0       0       0       0       0       0       0       0       0       0       0       0       0       
      +0       0       0       0       0       0       0
  3404 ;;      Temps:          0       0       0       0       0       0       0       0       0       0       0       0       
      +0       0       0       0       0       0       0       0       0       0       0       0       0       0       0       
      +0       0       0       0       0       0       0
  3405 ;;      Totals:         0       0       0       0       0       0       0       0       0       0       0       0       
      +0       0       0       0       0       0       0       0       0       0       0       0       0       0       0       
      +0       0       0       0       0       0       0
  3406 ;;Total ram usage:        0 bytes
  3407 ;; Hardware stack levels used: 1
  3408 ;; This function calls:
  3409 ;;		Nothing
  3410 ;; This function is called by:
  3411 ;;		_TMR0_Initialize
  3412 ;;		_TMR0_CallBack
  3413 ;; This function uses a non-reentrant model
  3414 ;;
  3415                           
  3416                           	psect	text36
  3417  002EE0                     __ptext36:
  3418                           	callstack 0
  3419  002EE0                     _TMR0_DefaultInterruptHandler:
  3420                           	callstack 119
  3421  002EE0  0012               	return		;funcret
  3422  002EE2                     __end_of_TMR0_DefaultInterruptHandler:
  3423                           	callstack 0
  3424                           
  3425 ;; *************** function _INT2_ISR *****************
  3426 ;; Defined at:
  3427 ;;		line 94 in file "mcc_generated_files/ext_int.c"
  3428 ;; Parameters:    Size  Location     Type
  3429 ;;		None
  3430 ;; Auto vars:     Size  Location     Type
  3431 ;;		None
  3432 ;; Return value:  Size  Location     Type
  3433 ;;                  1    wreg      void 
  3434 ;; Registers used:
  3435 ;;		wreg, status,2, status,0, pclath, tosl, cstack
  3436 ;; Tracked objects:
  3437 ;;		On entry : 0/0
  3438 ;;		On exit  : 0/0
  3439 ;;		Unchanged: 0/0
  3440 ;; Data sizes:     COMRAM   BANK5   BANK6   BANK7   BANK8   BANK9  BANK10  BANK11  BANK12  BANK13  BANK14  BANK15  BANK1
      +6  BANK17  BANK18  BANK19  BANK20  BANK21  BANK22  BANK23  BANK24  BANK25  BANK26  BANK27  BANK28  BANK29  BANK30  BANK3
      +1  BANK32  BANK33  BANK34  BANK35  BANK36  BANK37
  3441 ;;      Params:         0       0       0       0       0       0       0       0       0       0       0       0       
      +0       0       0       0       0       0       0       0       0       0       0       0       0       0       0       
      +0       0       0       0       0       0       0
  3442 ;;      Locals:         0       0       0       0       0       0       0       0       0       0       0       0       
      +0       0       0       0       0       0       0       0       0       0       0       0       0       0       0       
      +0       0       0       0       0       0       0
  3443 ;;      Temps:          0       0       0       0       0       0       0       0       0       0       0       0       
      +0       0       0       0       0       0       0       0       0       0       0       0       0       0       0       
      +0       0       0       0       0       0       0
  3444 ;;      Totals:         0       0       0       0       0       0       0       0       0       0       0       0       
      +0       0       0       0       0       0       0       0       0       0       0       0       0       0       0       
      +0       0       0       0       0       0       0
  3445 ;;Total ram usage:        0 bytes
  3446 ;; Hardware stack levels used: 1
  3447 ;; Hardware stack levels required when called: 2
  3448 ;; This function calls:
  3449 ;;		_INT2_CallBack
  3450 ;; This function is called by:
  3451 ;;		_INTERRUPT_InterruptManager
  3452 ;; This function uses a non-reentrant model
  3453 ;;
  3454                           
  3455                           	psect	text37
  3456  002EBE                     __ptext37:
  3457                           	callstack 0
  3458  002EBE                     _INT2_ISR:
  3459                           	callstack 119
  3460  002EBE                     
  3461                           ;mcc_generated_files/ext_int.c: 96:     (PIR10bits.INT2IF = 0);
  3462  002EBE  90B8               	bcf	184,0,c	;volatile
  3463  002EC0                     
  3464                           ;mcc_generated_files/ext_int.c: 99:     INT2_CallBack();
  3465  002EC0  EC7D  F016         	call	_INT2_CallBack	;wreg free
  3466  002EC4  0012               	return		;funcret
  3467  002EC6                     __end_of_INT2_ISR:
  3468                           	callstack 0
  3469                           
  3470 ;; *************** function _INT2_CallBack *****************
  3471 ;; Defined at:
  3472 ;;		line 103 in file "mcc_generated_files/ext_int.c"
  3473 ;; Parameters:    Size  Location     Type
  3474 ;;		None
  3475 ;; Auto vars:     Size  Location     Type
  3476 ;;		None
  3477 ;; Return value:  Size  Location     Type
  3478 ;;                  1    wreg      void 
  3479 ;; Registers used:
  3480 ;;		wreg, status,2, status,0, pclath, tosl, cstack
  3481 ;; Tracked objects:
  3482 ;;		On entry : 0/0
  3483 ;;		On exit  : 0/0
  3484 ;;		Unchanged: 0/0
  3485 ;; Data sizes:     COMRAM   BANK5   BANK6   BANK7   BANK8   BANK9  BANK10  BANK11  BANK12  BANK13  BANK14  BANK15  BANK1
      +6  BANK17  BANK18  BANK19  BANK20  BANK21  BANK22  BANK23  BANK24  BANK25  BANK26  BANK27  BANK28  BANK29  BANK30  BANK3
      +1  BANK32  BANK33  BANK34  BANK35  BANK36  BANK37
  3486 ;;      Params:         0       0       0       0       0       0       0       0       0       0       0       0       
      +0       0       0       0       0       0       0       0       0       0       0       0       0       0       0       
      +0       0       0       0       0       0       0
  3487 ;;      Locals:         0       0       0       0       0       0       0       0       0       0       0       0       
      +0       0       0       0       0       0       0       0       0       0       0       0       0       0       0       
      +0       0       0       0       0       0       0
  3488 ;;      Temps:          0       0       0       0       0       0       0       0       0       0       0       0       
      +0       0       0       0       0       0       0       0       0       0       0       0       0       0       0       
      +0       0       0       0       0       0       0
  3489 ;;      Totals:         0       0       0       0       0       0       0       0       0       0       0       0       
      +0       0       0       0       0       0       0       0       0       0       0       0       0       0       0       
      +0       0       0       0       0       0       0
  3490 ;;Total ram usage:        0 bytes
  3491 ;; Hardware stack levels used: 1
  3492 ;; Hardware stack levels required when called: 1
  3493 ;; This function calls:
  3494 ;;		Absolute function
  3495 ;;		_INT2_DefaultInterruptHandler
  3496 ;; This function is called by:
  3497 ;;		_INT2_ISR
  3498 ;; This function uses a non-reentrant model
  3499 ;;
  3500                           
  3501                           	psect	text38
  3502  002CFA                     __ptext38:
  3503                           	callstack 0
  3504  002CFA                     _INT2_CallBack:
  3505                           	callstack 119
  3506  002CFA                     
  3507                           ;mcc_generated_files/ext_int.c: 106:     if(INT2_InterruptHandler)
  3508  002CFA  504D               	movf	_INT2_InterruptHandler^(0+1280),w,c
  3509  002CFC  104E               	iorwf	(_INT2_InterruptHandler+1)^(0+1280),w,c
  3510  002CFE  B4D8               	btfsc	status,2,c
  3511  002D00  EF84  F016         	goto	i2u15_41
  3512  002D04  EF86  F016         	goto	i2u15_40
  3513  002D08                     i2u15_41:
  3514  002D08  EF92  F016         	goto	i2l1044
  3515  002D0C                     i2u15_40:
  3516  002D0C                     
  3517                           ;mcc_generated_files/ext_int.c: 107:     {;mcc_generated_files/ext_int.c: 108:         I
      +                          NT2_InterruptHandler();
  3518  002D0C  D802               	call	i2u16_48
  3519  002D0E  EF92  F016         	goto	i2u16_49
  3520  002D12                     i2u16_48:
  3521  002D12  0005               	push	
  3522  002D14  6EFA               	movwf	pclath,c
  3523  002D16  504D               	movf	_INT2_InterruptHandler^(0+1280),w,c
  3524  002D18  6EFD               	movwf	tosl,c
  3525  002D1A  504E               	movf	(_INT2_InterruptHandler+1)^(0+1280),w,c
  3526  002D1C  6EFE               	movwf	tosh,c
  3527  002D1E  6AFF               	clrf	tosu,c
  3528  002D20  50FA               	movf	pclath,w,c
  3529  002D22  0012               	return		;indir
  3530  002D24                     i2u16_49:
  3531  002D24                     i2l1044:
  3532  002D24  0012               	return		;funcret
  3533  002D26                     __end_of_INT2_CallBack:
  3534                           	callstack 0
  3535                           
  3536 ;; *************** function _INT2_DefaultInterruptHandler *****************
  3537 ;; Defined at:
  3538 ;;		line 116 in file "mcc_generated_files/ext_int.c"
  3539 ;; Parameters:    Size  Location     Type
  3540 ;;		None
  3541 ;; Auto vars:     Size  Location     Type
  3542 ;;		None
  3543 ;; Return value:  Size  Location     Type
  3544 ;;                  1    wreg      void 
  3545 ;; Registers used:
  3546 ;;		None
  3547 ;; Tracked objects:
  3548 ;;		On entry : 0/0
  3549 ;;		On exit  : 0/0
  3550 ;;		Unchanged: 0/0
  3551 ;; Data sizes:     COMRAM   BANK5   BANK6   BANK7   BANK8   BANK9  BANK10  BANK11  BANK12  BANK13  BANK14  BANK15  BANK1
      +6  BANK17  BANK18  BANK19  BANK20  BANK21  BANK22  BANK23  BANK24  BANK25  BANK26  BANK27  BANK28  BANK29  BANK30  BANK3
      +1  BANK32  BANK33  BANK34  BANK35  BANK36  BANK37
  3552 ;;      Params:         0       0       0       0       0       0       0       0       0       0       0       0       
      +0       0       0       0       0       0       0       0       0       0       0       0       0       0       0       
      +0       0       0       0       0       0       0
  3553 ;;      Locals:         0       0       0       0       0       0       0       0       0       0       0       0       
      +0       0       0       0       0       0       0       0       0       0       0       0       0       0       0       
      +0       0       0       0       0       0       0
  3554 ;;      Temps:          0       0       0       0       0       0       0       0       0       0       0       0       
      +0       0       0       0       0       0       0       0       0       0       0       0       0       0       0       
      +0       0       0       0       0       0       0
  3555 ;;      Totals:         0       0       0       0       0       0       0       0       0       0       0       0       
      +0       0       0       0       0       0       0       0       0       0       0       0       0       0       0       
      +0       0       0       0       0       0       0
  3556 ;;Total ram usage:        0 bytes
  3557 ;; Hardware stack levels used: 1
  3558 ;; This function calls:
  3559 ;;		Nothing
  3560 ;; This function is called by:
  3561 ;;		_EXT_INT_Initialize
  3562 ;;		_INT2_CallBack
  3563 ;; This function uses a non-reentrant model
  3564 ;;
  3565                           
  3566                           	psect	text39
  3567  002EE2                     __ptext39:
  3568                           	callstack 0
  3569  002EE2                     _INT2_DefaultInterruptHandler:
  3570                           	callstack 119
  3571  002EE2  0012               	return		;funcret
  3572  002EE4                     __end_of_INT2_DefaultInterruptHandler:
  3573                           	callstack 0
  3574                           
  3575 ;; *************** function _INT1_ISR *****************
  3576 ;; Defined at:
  3577 ;;		line 68 in file "mcc_generated_files/ext_int.c"
  3578 ;; Parameters:    Size  Location     Type
  3579 ;;		None
  3580 ;; Auto vars:     Size  Location     Type
  3581 ;;		None
  3582 ;; Return value:  Size  Location     Type
  3583 ;;                  1    wreg      void 
  3584 ;; Registers used:
  3585 ;;		wreg, status,2, status,0, pclath, tosl, cstack
  3586 ;; Tracked objects:
  3587 ;;		On entry : 0/0
  3588 ;;		On exit  : 0/0
  3589 ;;		Unchanged: 0/0
  3590 ;; Data sizes:     COMRAM   BANK5   BANK6   BANK7   BANK8   BANK9  BANK10  BANK11  BANK12  BANK13  BANK14  BANK15  BANK1
      +6  BANK17  BANK18  BANK19  BANK20  BANK21  BANK22  BANK23  BANK24  BANK25  BANK26  BANK27  BANK28  BANK29  BANK30  BANK3
      +1  BANK32  BANK33  BANK34  BANK35  BANK36  BANK37
  3591 ;;      Params:         0       0       0       0       0       0       0       0       0       0       0       0       
      +0       0       0       0       0       0       0       0       0       0       0       0       0       0       0       
      +0       0       0       0       0       0       0
  3592 ;;      Locals:         0       0       0       0       0       0       0       0       0       0       0       0       
      +0       0       0       0       0       0       0       0       0       0       0       0       0       0       0       
      +0       0       0       0       0       0       0
  3593 ;;      Temps:          0       0       0       0       0       0       0       0       0       0       0       0       
      +0       0       0       0       0       0       0       0       0       0       0       0       0       0       0       
      +0       0       0       0       0       0       0
  3594 ;;      Totals:         0       0       0       0       0       0       0       0       0       0       0       0       
      +0       0       0       0       0       0       0       0       0       0       0       0       0       0       0       
      +0       0       0       0       0       0       0
  3595 ;;Total ram usage:        0 bytes
  3596 ;; Hardware stack levels used: 1
  3597 ;; Hardware stack levels required when called: 2
  3598 ;; This function calls:
  3599 ;;		_INT1_CallBack
  3600 ;; This function is called by:
  3601 ;;		_INTERRUPT_InterruptManager
  3602 ;; This function uses a non-reentrant model
  3603 ;;
  3604                           
  3605                           	psect	text40
  3606  002EC6                     __ptext40:
  3607                           	callstack 0
  3608  002EC6                     _INT1_ISR:
  3609                           	callstack 119
  3610  002EC6                     
  3611                           ;mcc_generated_files/ext_int.c: 70:     (PIR6bits.INT1IF = 0);
  3612  002EC6  90B4               	bcf	180,0,c	;volatile
  3613  002EC8                     
  3614                           ;mcc_generated_files/ext_int.c: 73:     INT1_CallBack();
  3615  002EC8  EC93  F016         	call	_INT1_CallBack	;wreg free
  3616  002ECC  0012               	return		;funcret
  3617  002ECE                     __end_of_INT1_ISR:
  3618                           	callstack 0
  3619                           
  3620 ;; *************** function _INT1_CallBack *****************
  3621 ;; Defined at:
  3622 ;;		line 77 in file "mcc_generated_files/ext_int.c"
  3623 ;; Parameters:    Size  Location     Type
  3624 ;;		None
  3625 ;; Auto vars:     Size  Location     Type
  3626 ;;		None
  3627 ;; Return value:  Size  Location     Type
  3628 ;;                  1    wreg      void 
  3629 ;; Registers used:
  3630 ;;		wreg, status,2, status,0, pclath, tosl, cstack
  3631 ;; Tracked objects:
  3632 ;;		On entry : 0/0
  3633 ;;		On exit  : 0/0
  3634 ;;		Unchanged: 0/0
  3635 ;; Data sizes:     COMRAM   BANK5   BANK6   BANK7   BANK8   BANK9  BANK10  BANK11  BANK12  BANK13  BANK14  BANK15  BANK1
      +6  BANK17  BANK18  BANK19  BANK20  BANK21  BANK22  BANK23  BANK24  BANK25  BANK26  BANK27  BANK28  BANK29  BANK30  BANK3
      +1  BANK32  BANK33  BANK34  BANK35  BANK36  BANK37
  3636 ;;      Params:         0       0       0       0       0       0       0       0       0       0       0       0       
      +0       0       0       0       0       0       0       0       0       0       0       0       0       0       0       
      +0       0       0       0       0       0       0
  3637 ;;      Locals:         0       0       0       0       0       0       0       0       0       0       0       0       
      +0       0       0       0       0       0       0       0       0       0       0       0       0       0       0       
      +0       0       0       0       0       0       0
  3638 ;;      Temps:          0       0       0       0       0       0       0       0       0       0       0       0       
      +0       0       0       0       0       0       0       0       0       0       0       0       0       0       0       
      +0       0       0       0       0       0       0
  3639 ;;      Totals:         0       0       0       0       0       0       0       0       0       0       0       0       
      +0       0       0       0       0       0       0       0       0       0       0       0       0       0       0       
      +0       0       0       0       0       0       0
  3640 ;;Total ram usage:        0 bytes
  3641 ;; Hardware stack levels used: 1
  3642 ;; Hardware stack levels required when called: 1
  3643 ;; This function calls:
  3644 ;;		Absolute function
  3645 ;;		_INT1_DefaultInterruptHandler
  3646 ;; This function is called by:
  3647 ;;		_INT1_ISR
  3648 ;; This function uses a non-reentrant model
  3649 ;;
  3650                           
  3651                           	psect	text41
  3652  002D26                     __ptext41:
  3653                           	callstack 0
  3654  002D26                     _INT1_CallBack:
  3655                           	callstack 119
  3656  002D26                     
  3657                           ;mcc_generated_files/ext_int.c: 80:     if(INT1_InterruptHandler)
  3658  002D26  504F               	movf	_INT1_InterruptHandler^(0+1280),w,c
  3659  002D28  1050               	iorwf	(_INT1_InterruptHandler+1)^(0+1280),w,c
  3660  002D2A  B4D8               	btfsc	status,2,c
  3661  002D2C  EF9A  F016         	goto	i2u13_41
  3662  002D30  EF9C  F016         	goto	i2u13_40
  3663  002D34                     i2u13_41:
  3664  002D34  EFA8  F016         	goto	i2l1031
  3665  002D38                     i2u13_40:
  3666  002D38                     
  3667                           ;mcc_generated_files/ext_int.c: 81:     {;mcc_generated_files/ext_int.c: 82:         INT
      +                          1_InterruptHandler();
  3668  002D38  D802               	call	i2u14_48
  3669  002D3A  EFA8  F016         	goto	i2u14_49
  3670  002D3E                     i2u14_48:
  3671  002D3E  0005               	push	
  3672  002D40  6EFA               	movwf	pclath,c
  3673  002D42  504F               	movf	_INT1_InterruptHandler^(0+1280),w,c
  3674  002D44  6EFD               	movwf	tosl,c
  3675  002D46  5050               	movf	(_INT1_InterruptHandler+1)^(0+1280),w,c
  3676  002D48  6EFE               	movwf	tosh,c
  3677  002D4A  6AFF               	clrf	tosu,c
  3678  002D4C  50FA               	movf	pclath,w,c
  3679  002D4E  0012               	return		;indir
  3680  002D50                     i2u14_49:
  3681  002D50                     i2l1031:
  3682  002D50  0012               	return		;funcret
  3683  002D52                     __end_of_INT1_CallBack:
  3684                           	callstack 0
  3685                           
  3686 ;; *************** function _INT1_DefaultInterruptHandler *****************
  3687 ;; Defined at:
  3688 ;;		line 90 in file "mcc_generated_files/ext_int.c"
  3689 ;; Parameters:    Size  Location     Type
  3690 ;;		None
  3691 ;; Auto vars:     Size  Location     Type
  3692 ;;		None
  3693 ;; Return value:  Size  Location     Type
  3694 ;;                  1    wreg      void 
  3695 ;; Registers used:
  3696 ;;		None
  3697 ;; Tracked objects:
  3698 ;;		On entry : 0/0
  3699 ;;		On exit  : 0/0
  3700 ;;		Unchanged: 0/0
  3701 ;; Data sizes:     COMRAM   BANK5   BANK6   BANK7   BANK8   BANK9  BANK10  BANK11  BANK12  BANK13  BANK14  BANK15  BANK1
      +6  BANK17  BANK18  BANK19  BANK20  BANK21  BANK22  BANK23  BANK24  BANK25  BANK26  BANK27  BANK28  BANK29  BANK30  BANK3
      +1  BANK32  BANK33  BANK34  BANK35  BANK36  BANK37
  3702 ;;      Params:         0       0       0       0       0       0       0       0       0       0       0       0       
      +0       0       0       0       0       0       0       0       0       0       0       0       0       0       0       
      +0       0       0       0       0       0       0
  3703 ;;      Locals:         0       0       0       0       0       0       0       0       0       0       0       0       
      +0       0       0       0       0       0       0       0       0       0       0       0       0       0       0       
      +0       0       0       0       0       0       0
  3704 ;;      Temps:          0       0       0       0       0       0       0       0       0       0       0       0       
      +0       0       0       0       0       0       0       0       0       0       0       0       0       0       0       
      +0       0       0       0       0       0       0
  3705 ;;      Totals:         0       0       0       0       0       0       0       0       0       0       0       0       
      +0       0       0       0       0       0       0       0       0       0       0       0       0       0       0       
      +0       0       0       0       0       0       0
  3706 ;;Total ram usage:        0 bytes
  3707 ;; Hardware stack levels used: 1
  3708 ;; This function calls:
  3709 ;;		Nothing
  3710 ;; This function is called by:
  3711 ;;		_EXT_INT_Initialize
  3712 ;;		_INT1_CallBack
  3713 ;; This function uses a non-reentrant model
  3714 ;;
  3715                           
  3716                           	psect	text42
  3717  002EE4                     __ptext42:
  3718                           	callstack 0
  3719  002EE4                     _INT1_DefaultInterruptHandler:
  3720                           	callstack 119
  3721  002EE4  0012               	return		;funcret
  3722  002EE6                     __end_of_INT1_DefaultInterruptHandler:
  3723                           	callstack 0
  3724                           
  3725 ;; *************** function _INT0_ISR *****************
  3726 ;; Defined at:
  3727 ;;		line 38 in file "mcc_generated_files/ext_int.c"
  3728 ;; Parameters:    Size  Location     Type
  3729 ;;		None
  3730 ;; Auto vars:     Size  Location     Type
  3731 ;;		None
  3732 ;; Return value:  Size  Location     Type
  3733 ;;                  1    wreg      void 
  3734 ;; Registers used:
  3735 ;;		wreg, status,2, status,0, pclath, tosl, cstack
  3736 ;; Tracked objects:
  3737 ;;		On entry : 0/0
  3738 ;;		On exit  : 0/0
  3739 ;;		Unchanged: 0/0
  3740 ;; Data sizes:     COMRAM   BANK5   BANK6   BANK7   BANK8   BANK9  BANK10  BANK11  BANK12  BANK13  BANK14  BANK15  BANK1
      +6  BANK17  BANK18  BANK19  BANK20  BANK21  BANK22  BANK23  BANK24  BANK25  BANK26  BANK27  BANK28  BANK29  BANK30  BANK3
      +1  BANK32  BANK33  BANK34  BANK35  BANK36  BANK37
  3741 ;;      Params:         0       0       0       0       0       0       0       0       0       0       0       0       
      +0       0       0       0       0       0       0       0       0       0       0       0       0       0       0       
      +0       0       0       0       0       0       0
  3742 ;;      Locals:         0       0       0       0       0       0       0       0       0       0       0       0       
      +0       0       0       0       0       0       0       0       0       0       0       0       0       0       0       
      +0       0       0       0       0       0       0
  3743 ;;      Temps:          0       0       0       0       0       0       0       0       0       0       0       0       
      +0       0       0       0       0       0       0       0       0       0       0       0       0       0       0       
      +0       0       0       0       0       0       0
  3744 ;;      Totals:         0       0       0       0       0       0       0       0       0       0       0       0       
      +0       0       0       0       0       0       0       0       0       0       0       0       0       0       0       
      +0       0       0       0       0       0       0
  3745 ;;Total ram usage:        0 bytes
  3746 ;; Hardware stack levels used: 1
  3747 ;; Hardware stack levels required when called: 2
  3748 ;; This function calls:
  3749 ;;		_INT0_CallBack
  3750 ;; This function is called by:
  3751 ;;		_INTERRUPT_InterruptManager
  3752 ;; This function uses a non-reentrant model
  3753 ;;
  3754                           
  3755                           	psect	text43
  3756  002ECE                     __ptext43:
  3757                           	callstack 0
  3758  002ECE                     _INT0_ISR:
  3759                           	callstack 119
  3760  002ECE                     
  3761                           ;mcc_generated_files/ext_int.c: 40:     (PIR1bits.INT0IF = 0);
  3762  002ECE  90AF               	bcf	175,0,c	;volatile
  3763  002ED0                     
  3764                           ;mcc_generated_files/ext_int.c: 43:     INT0_CallBack();
  3765  002ED0  ECF3  F015         	call	_INT0_CallBack	;wreg free
  3766  002ED4  0012               	return		;funcret
  3767  002ED6                     __end_of_INT0_ISR:
  3768                           	callstack 0
  3769                           
  3770 ;; *************** function _INT0_CallBack *****************
  3771 ;; Defined at:
  3772 ;;		line 47 in file "mcc_generated_files/ext_int.c"
  3773 ;; Parameters:    Size  Location     Type
  3774 ;;		None
  3775 ;; Auto vars:     Size  Location     Type
  3776 ;;		None
  3777 ;; Return value:  Size  Location     Type
  3778 ;;                  1    wreg      void 
  3779 ;; Registers used:
  3780 ;;		wreg, status,2, status,0, pclath, tosl, cstack
  3781 ;; Tracked objects:
  3782 ;;		On entry : 0/0
  3783 ;;		On exit  : 0/0
  3784 ;;		Unchanged: 0/0
  3785 ;; Data sizes:     COMRAM   BANK5   BANK6   BANK7   BANK8   BANK9  BANK10  BANK11  BANK12  BANK13  BANK14  BANK15  BANK1
      +6  BANK17  BANK18  BANK19  BANK20  BANK21  BANK22  BANK23  BANK24  BANK25  BANK26  BANK27  BANK28  BANK29  BANK30  BANK3
      +1  BANK32  BANK33  BANK34  BANK35  BANK36  BANK37
  3786 ;;      Params:         0       0       0       0       0       0       0       0       0       0       0       0       
      +0       0       0       0       0       0       0       0       0       0       0       0       0       0       0       
      +0       0       0       0       0       0       0
  3787 ;;      Locals:         0       0       0       0       0       0       0       0       0       0       0       0       
      +0       0       0       0       0       0       0       0       0       0       0       0       0       0       0       
      +0       0       0       0       0       0       0
  3788 ;;      Temps:          0       0       0       0       0       0       0       0       0       0       0       0       
      +0       0       0       0       0       0       0       0       0       0       0       0       0       0       0       
      +0       0       0       0       0       0       0
  3789 ;;      Totals:         0       0       0       0       0       0       0       0       0       0       0       0       
      +0       0       0       0       0       0       0       0       0       0       0       0       0       0       0       
      +0       0       0       0       0       0       0
  3790 ;;Total ram usage:        0 bytes
  3791 ;; Hardware stack levels used: 1
  3792 ;; Hardware stack levels required when called: 1
  3793 ;; This function calls:
  3794 ;;		Absolute function
  3795 ;;		_INT0_DefaultInterruptHandler
  3796 ;;		_ReluctorFreqCount
  3797 ;;		_ReluctorPosCount
  3798 ;; This function is called by:
  3799 ;;		_INT0_ISR
  3800 ;; This function uses a non-reentrant model
  3801 ;;
  3802                           
  3803                           	psect	text44
  3804  002BE6                     __ptext44:
  3805                           	callstack 0
  3806  002BE6                     _INT0_CallBack:
  3807                           	callstack 119
  3808  002BE6                     
  3809                           ;mcc_generated_files/ext_int.c: 51:     ReluctorFreqCount();
  3810  002BE6  EC6D  F017         	call	_ReluctorFreqCount	;wreg free
  3811  002BEA                     
  3812                           ;mcc_generated_files/ext_int.c: 52:     ReluctorPosCount();
  3813  002BEA  EC0F  F017         	call	_ReluctorPosCount	;wreg free
  3814  002BEE                     
  3815                           ;mcc_generated_files/ext_int.c: 54:     if(INT0_InterruptHandler)
  3816  002BEE  5051               	movf	_INT0_InterruptHandler^(0+1280),w,c
  3817  002BF0  1052               	iorwf	(_INT0_InterruptHandler+1)^(0+1280),w,c
  3818  002BF2  B4D8               	btfsc	status,2,c
  3819  002BF4  EFFE  F015         	goto	i2u11_41
  3820  002BF8  EF00  F016         	goto	i2u11_40
  3821  002BFC                     i2u11_41:
  3822  002BFC  EF0C  F016         	goto	i2l1018
  3823  002C00                     i2u11_40:
  3824  002C00                     
  3825                           ;mcc_generated_files/ext_int.c: 55:     {;mcc_generated_files/ext_int.c: 56:         INT
      +                          0_InterruptHandler();
  3826  002C00  D802               	call	i2u12_48
  3827  002C02  EF0C  F016         	goto	i2u12_49
  3828  002C06                     i2u12_48:
  3829  002C06  0005               	push	
  3830  002C08  6EFA               	movwf	pclath,c
  3831  002C0A  5051               	movf	_INT0_InterruptHandler^(0+1280),w,c
  3832  002C0C  6EFD               	movwf	tosl,c
  3833  002C0E  5052               	movf	(_INT0_InterruptHandler+1)^(0+1280),w,c
  3834  002C10  6EFE               	movwf	tosh,c
  3835  002C12  6AFF               	clrf	tosu,c
  3836  002C14  50FA               	movf	pclath,w,c
  3837  002C16  0012               	return		;indir
  3838  002C18                     i2u12_49:
  3839  002C18                     i2l1018:
  3840  002C18  0012               	return		;funcret
  3841  002C1A                     __end_of_INT0_CallBack:
  3842                           	callstack 0
  3843                           
  3844 ;; *************** function _ReluctorPosCount *****************
  3845 ;; Defined at:
  3846 ;;		line 46 in file "reluctor.c"
  3847 ;; Parameters:    Size  Location     Type
  3848 ;;		None
  3849 ;; Auto vars:     Size  Location     Type
  3850 ;;		None
  3851 ;; Return value:  Size  Location     Type
  3852 ;;                  1    wreg      void 
  3853 ;; Registers used:
  3854 ;;		wreg, status,2, status,0
  3855 ;; Tracked objects:
  3856 ;;		On entry : 0/0
  3857 ;;		On exit  : 0/0
  3858 ;;		Unchanged: 0/0
  3859 ;; Data sizes:     COMRAM   BANK5   BANK6   BANK7   BANK8   BANK9  BANK10  BANK11  BANK12  BANK13  BANK14  BANK15  BANK1
      +6  BANK17  BANK18  BANK19  BANK20  BANK21  BANK22  BANK23  BANK24  BANK25  BANK26  BANK27  BANK28  BANK29  BANK30  BANK3
      +1  BANK32  BANK33  BANK34  BANK35  BANK36  BANK37
  3860 ;;      Params:         0       0       0       0       0       0       0       0       0       0       0       0       
      +0       0       0       0       0       0       0       0       0       0       0       0       0       0       0       
      +0       0       0       0       0       0       0
  3861 ;;      Locals:         0       0       0       0       0       0       0       0       0       0       0       0       
      +0       0       0       0       0       0       0       0       0       0       0       0       0       0       0       
      +0       0       0       0       0       0       0
  3862 ;;      Temps:          0       0       0       0       0       0       0       0       0       0       0       0       
      +0       0       0       0       0       0       0       0       0       0       0       0       0       0       0       
      +0       0       0       0       0       0       0
  3863 ;;      Totals:         0       0       0       0       0       0       0       0       0       0       0       0       
      +0       0       0       0       0       0       0       0       0       0       0       0       0       0       0       
      +0       0       0       0       0       0       0
  3864 ;;Total ram usage:        0 bytes
  3865 ;; Hardware stack levels used: 1
  3866 ;; This function calls:
  3867 ;;		Nothing
  3868 ;; This function is called by:
  3869 ;;		_INT0_CallBack
  3870 ;; This function uses a non-reentrant model
  3871 ;;
  3872                           
  3873                           	psect	text45
  3874  002E1E                     __ptext45:
  3875                           	callstack 0
  3876  002E1E                     _ReluctorPosCount:
  3877                           	callstack 119
  3878  002E1E                     
  3879                           ;reluctor.c: 48:     ucCountPos++;
  3880  002E1E  2A31               	incf	_ucCountPos^(0+1280),f,c
  3881  002E20                     
  3882                           ;reluctor.c: 49:     if(ucCountPos >= 32){
  3883  002E20  0E1F               	movlw	31
  3884  002E22  6431               	cpfsgt	_ucCountPos^(0+1280),c
  3885  002E24  EF16  F017         	goto	i2u8_41
  3886  002E28  EF18  F017         	goto	i2u8_40
  3887  002E2C                     i2u8_41:
  3888  002E2C  EF1B  F017         	goto	i2l1193
  3889  002E30                     i2u8_40:
  3890  002E30                     
  3891                           ;reluctor.c: 50:         ucCountPos = 0;
  3892  002E30  0E00               	movlw	0
  3893  002E32  6E31               	movwf	_ucCountPos^(0+1280),c
  3894  002E34                     
  3895                           ;reluctor.c: 51:         ucCountVueltaRueda++;
  3896  002E34  2A30               	incf	_ucCountVueltaRueda^(0+1280),f,c
  3897  002E36                     i2l1193:
  3898  002E36  0012               	return		;funcret
  3899  002E38                     __end_of_ReluctorPosCount:
  3900                           	callstack 0
  3901                           
  3902 ;; *************** function _ReluctorFreqCount *****************
  3903 ;; Defined at:
  3904 ;;		line 22 in file "reluctor.c"
  3905 ;; Parameters:    Size  Location     Type
  3906 ;;		None
  3907 ;; Auto vars:     Size  Location     Type
  3908 ;;		None
  3909 ;; Return value:  Size  Location     Type
  3910 ;;                  1    wreg      void 
  3911 ;; Registers used:
  3912 ;;		status,2, status,0
  3913 ;; Tracked objects:
  3914 ;;		On entry : 0/0
  3915 ;;		On exit  : 0/0
  3916 ;;		Unchanged: 0/0
  3917 ;; Data sizes:     COMRAM   BANK5   BANK6   BANK7   BANK8   BANK9  BANK10  BANK11  BANK12  BANK13  BANK14  BANK15  BANK1
      +6  BANK17  BANK18  BANK19  BANK20  BANK21  BANK22  BANK23  BANK24  BANK25  BANK26  BANK27  BANK28  BANK29  BANK30  BANK3
      +1  BANK32  BANK33  BANK34  BANK35  BANK36  BANK37
  3918 ;;      Params:         0       0       0       0       0       0       0       0       0       0       0       0       
      +0       0       0       0       0       0       0       0       0       0       0       0       0       0       0       
      +0       0       0       0       0       0       0
  3919 ;;      Locals:         0       0       0       0       0       0       0       0       0       0       0       0       
      +0       0       0       0       0       0       0       0       0       0       0       0       0       0       0       
      +0       0       0       0       0       0       0
  3920 ;;      Temps:          0       0       0       0       0       0       0       0       0       0       0       0       
      +0       0       0       0       0       0       0       0       0       0       0       0       0       0       0       
      +0       0       0       0       0       0       0
  3921 ;;      Totals:         0       0       0       0       0       0       0       0       0       0       0       0       
      +0       0       0       0       0       0       0       0       0       0       0       0       0       0       0       
      +0       0       0       0       0       0       0
  3922 ;;Total ram usage:        0 bytes
  3923 ;; Hardware stack levels used: 1
  3924 ;; This function calls:
  3925 ;;		Nothing
  3926 ;; This function is called by:
  3927 ;;		_INT0_CallBack
  3928 ;; This function uses a non-reentrant model
  3929 ;;
  3930                           
  3931                           	psect	text46
  3932  002EDA                     __ptext46:
  3933                           	callstack 0
  3934  002EDA                     _ReluctorFreqCount:
  3935                           	callstack 119
  3936  002EDA                     
  3937                           ;reluctor.c: 24:     ucCountFreq++;
  3938  002EDA  2A32               	incf	_ucCountFreq^(0+1280),f,c
  3939  002EDC  0012               	return		;funcret
  3940  002EDE                     __end_of_ReluctorFreqCount:
  3941                           	callstack 0
  3942                           
  3943 ;; *************** function _INT0_DefaultInterruptHandler *****************
  3944 ;; Defined at:
  3945 ;;		line 64 in file "mcc_generated_files/ext_int.c"
  3946 ;; Parameters:    Size  Location     Type
  3947 ;;		None
  3948 ;; Auto vars:     Size  Location     Type
  3949 ;;		None
  3950 ;; Return value:  Size  Location     Type
  3951 ;;                  1    wreg      void 
  3952 ;; Registers used:
  3953 ;;		None
  3954 ;; Tracked objects:
  3955 ;;		On entry : 0/0
  3956 ;;		On exit  : 0/0
  3957 ;;		Unchanged: 0/0
  3958 ;; Data sizes:     COMRAM   BANK5   BANK6   BANK7   BANK8   BANK9  BANK10  BANK11  BANK12  BANK13  BANK14  BANK15  BANK1
      +6  BANK17  BANK18  BANK19  BANK20  BANK21  BANK22  BANK23  BANK24  BANK25  BANK26  BANK27  BANK28  BANK29  BANK30  BANK3
      +1  BANK32  BANK33  BANK34  BANK35  BANK36  BANK37
  3959 ;;      Params:         0       0       0       0       0       0       0       0       0       0       0       0       
      +0       0       0       0       0       0       0       0       0       0       0       0       0       0       0       
      +0       0       0       0       0       0       0
  3960 ;;      Locals:         0       0       0       0       0       0       0       0       0       0       0       0       
      +0       0       0       0       0       0       0       0       0       0       0       0       0       0       0       
      +0       0       0       0       0       0       0
  3961 ;;      Temps:          0       0       0       0       0       0       0       0       0       0       0       0       
      +0       0       0       0       0       0       0       0       0       0       0       0       0       0       0       
      +0       0       0       0       0       0       0
  3962 ;;      Totals:         0       0       0       0       0       0       0       0       0       0       0       0       
      +0       0       0       0       0       0       0       0       0       0       0       0       0       0       0       
      +0       0       0       0       0       0       0
  3963 ;;Total ram usage:        0 bytes
  3964 ;; Hardware stack levels used: 1
  3965 ;; This function calls:
  3966 ;;		Nothing
  3967 ;; This function is called by:
  3968 ;;		_EXT_INT_Initialize
  3969 ;;		_INT0_CallBack
  3970 ;; This function uses a non-reentrant model
  3971 ;;
  3972                           
  3973                           	psect	text47
  3974  002EE6                     __ptext47:
  3975                           	callstack 0
  3976  002EE6                     _INT0_DefaultInterruptHandler:
  3977                           	callstack 119
  3978  002EE6  0012               	return		;funcret
  3979  002EE8                     __end_of_INT0_DefaultInterruptHandler:
  3980                           	callstack 0
  3981                           
  3982                           ;
  3983                           ; Interrupt Vector Table @ 0x8
  3984                           ;
  3985                           
  3986                           	psect	ivt0x8
  3987  000008                     __pivt0x8:
  3988                           	callstack 0
  3989  000008                     ivt0x8_base:
  3990                           	callstack 0
  3991                           
  3992                           ; high-priority vector
  3993  000008  EF7C  F013         	goto	_INTERRUPT_InterruptManager
  3994  000018                     	org	16
  3995                           
  3996                           ; low-priority vector
  3997  000018  00FF               	reset	
  3998                           
  3999                           	psect	text48
  4000  000000                     __ptext48:
  4001                           	callstack 0
  4002  000000                     
  4003                           	psect	rparam
  4004  0000                     
  4005                           	psect	idloc
  4006                           
  4007                           ;Config register IDLOC0 @ 0x200000
  4008                           ;	unspecified, using default values
  4009  200000                     	org	2097152
  4010  200000  0FFF               	dw	4095
  4011                           
  4012                           ;Config register IDLOC1 @ 0x200002
  4013                           ;	unspecified, using default values
  4014  200002                     	org	2097154
  4015  200002  0FFF               	dw	4095
  4016                           
  4017                           ;Config register IDLOC2 @ 0x200004
  4018                           ;	unspecified, using default values
  4019  200004                     	org	2097156
  4020  200004  0FFF               	dw	4095
  4021                           
  4022                           ;Config register IDLOC3 @ 0x200006
  4023                           ;	unspecified, using default values
  4024  200006                     	org	2097158
  4025  200006  0FFF               	dw	4095
  4026                           
  4027                           ;Config register IDLOC4 @ 0x200008
  4028                           ;	unspecified, using default values
  4029  200008                     	org	2097160
  4030  200008  0FFF               	dw	4095
  4031                           
  4032                           ;Config register IDLOC5 @ 0x20000A
  4033                           ;	unspecified, using default values
  4034  20000A                     	org	2097162
  4035  20000A  0FFF               	dw	4095
  4036                           
  4037                           ;Config register IDLOC6 @ 0x20000C
  4038                           ;	unspecified, using default values
  4039  20000C                     	org	2097164
  4040  20000C  0FFF               	dw	4095
  4041                           
  4042                           ;Config register IDLOC7 @ 0x20000E
  4043                           ;	unspecified, using default values
  4044  20000E                     	org	2097166
  4045  20000E  0FFF               	dw	4095
  4046                           
  4047                           ;Config register IDLOC8 @ 0x200010
  4048                           ;	unspecified, using default values
  4049  200010                     	org	2097168
  4050  200010  0FFF               	dw	4095
  4051                           
  4052                           ;Config register IDLOC9 @ 0x200012
  4053                           ;	unspecified, using default values
  4054  200012                     	org	2097170
  4055  200012  0FFF               	dw	4095
  4056                           
  4057                           ;Config register IDLOC10 @ 0x200014
  4058                           ;	unspecified, using default values
  4059  200014                     	org	2097172
  4060  200014  0FFF               	dw	4095
  4061                           
  4062                           ;Config register IDLOC11 @ 0x200016
  4063                           ;	unspecified, using default values
  4064  200016                     	org	2097174
  4065  200016  0FFF               	dw	4095
  4066                           
  4067                           ;Config register IDLOC12 @ 0x200018
  4068                           ;	unspecified, using default values
  4069  200018                     	org	2097176
  4070  200018  0FFF               	dw	4095
  4071                           
  4072                           ;Config register IDLOC13 @ 0x20001A
  4073                           ;	unspecified, using default values
  4074  20001A                     	org	2097178
  4075  20001A  0FFF               	dw	4095
  4076                           
  4077                           ;Config register IDLOC14 @ 0x20001C
  4078                           ;	unspecified, using default values
  4079  20001C                     	org	2097180
  4080  20001C  0FFF               	dw	4095
  4081                           
  4082                           ;Config register IDLOC15 @ 0x20001E
  4083                           ;	unspecified, using default values
  4084  20001E                     	org	2097182
  4085  20001E  0FFF               	dw	4095
  4086                           
  4087                           	psect	config
  4088                           
  4089                           ;Config register CONFIG1 @ 0x300000
  4090                           ;	External Oscillator Selection
  4091                           ;	FEXTOSC = HS, HS (crystal oscillator) above 8 MHz
  4092                           ;	Reset Oscillator Selection
  4093                           ;	RSTOSC = EXTOSC, EXTOSC operating per FEXTOSC bits (device manufacturing default)
  4094  300000                     	org	3145728
  4095  300000  FA                 	db	250
  4096                           
  4097                           ;Config register CONFIG2 @ 0x300001
  4098                           ;	Clock out Enable bit
  4099                           ;	CLKOUTEN = OFF, CLKOUT function is disabled
  4100                           ;	PRLOCKED One-Way Set Enable bit
  4101                           ;	PR1WAY = ON, PRLOCKED bit can be cleared and set only once
  4102                           ;	Clock Switch Enable bit
  4103                           ;	CSWEN = ON, Writing to NOSC and NDIV is allowed
  4104                           ;	JTAG Enable bit
  4105                           ;	JTAGEN = ON, Enable JTAG Boundary Scan mode and pins
  4106                           ;	Fail-Safe Clock Monitor Enable bit
  4107                           ;	FCMEN = ON, Fail-Safe Clock Monitor enabled
  4108                           ;	Fail-Safe Clock Monitor -Primary XTAL Enable bit
  4109                           ;	FCMENP = ON, FSCM timer will set FSCMP bit and OSFIF interrupt on Primary XTAL failure
  4110                           ;	Fail-Safe Clock Monitor -Secondary XTAL Enable bit
  4111                           ;	FCMENS = ON, FSCM timer will set FSCMS bit and OSFIF interrupt on Secondary XTAL failu
      +                          re
  4112  300001                     	org	3145729
  4113  300001  FF                 	db	255
  4114                           
  4115                           ;Config register CONFIG3 @ 0x300002
  4116                           ;	MCLR Enable bit
  4117                           ;	MCLRE = EXTMCLR, If LVP = 0, MCLR pin is MCLR; If LVP = 1, RE3 pin function is MCLR
  4118                           ;	Power-up timer selection bits
  4119                           ;	PWRTS = PWRT_OFF, PWRT is disabled
  4120                           ;	Multi-vector enable bit
  4121                           ;	MVECEN = OFF, Interrupt contoller does not use vector table to prioritze interrupts
  4122                           ;	IVTLOCK bit One-way set enable bit
  4123                           ;	IVT1WAY = ON, IVTLOCKED bit can be cleared and set only once
  4124                           ;	Low Power BOR Enable bit
  4125                           ;	LPBOREN = OFF, Low-Power BOR disabled
  4126                           ;	Brown-out Reset Enable bits
  4127                           ;	BOREN = SBORDIS, Brown-out Reset enabled , SBOREN bit is ignored
  4128  300002                     	org	3145730
  4129  300002  F7                 	db	247
  4130                           
  4131                           ;Config register CONFIG4 @ 0x300003
  4132                           ;	Brown-out Reset Voltage Selection bits
  4133                           ;	BORV = VBOR_1P9, Brown-out Reset Voltage (VBOR) set to 1.9V
  4134                           ;	ZCD Disable bit
  4135                           ;	ZCD = OFF, ZCD module is disabled. ZCD can be enabled by setting the ZCDSEN bit of ZCD
      +                          CON
  4136                           ;	PPSLOCK bit One-Way Set Enable bit
  4137                           ;	PPS1WAY = ON, PPSLOCKED bit can be cleared and set only once; PPS registers remain loc
      +                          ked after one clear/set cycle
  4138                           ;	Stack Full/Underflow Reset Enable bit
  4139                           ;	STVREN = ON, Stack full/underflow will cause Reset
  4140                           ;	Low Voltage Programming Enable bit
  4141                           ;	LVP = ON, Low voltage programming enabled. MCLR/VPP pin function is MCLR. MCLRE config
      +                          uration bit is ignored
  4142                           ;	Extended Instruction Set Enable bit
  4143                           ;	XINST = OFF, Extended Instruction Set and Indexed Addressing Mode disabled
  4144  300003                     	org	3145731
  4145  300003  FF                 	db	255
  4146                           
  4147                           ;Config register CONFIG5 @ 0x300004
  4148                           ;	WDT Period selection bits
  4149                           ;	WDTCPS = WDTCPS_31, Divider ratio 1:65536; software control of WDTPS
  4150                           ;	WDT operating mode
  4151                           ;	WDTE = OFF, WDT Disabled; SWDTEN is ignored
  4152  300004                     	org	3145732
  4153  300004  9F                 	db	159
  4154                           
  4155                           ;Config register CONFIG6 @ 0x300005
  4156                           ;	WDT Window Select bits
  4157                           ;	WDTCWS = WDTCWS_7, window always open (100%); software control; keyed access not requi
      +                          red
  4158                           ;	WDT input clock selector
  4159                           ;	WDTCCS = SC, Software Control
  4160  300005                     	org	3145733
  4161  300005  FF                 	db	255
  4162                           
  4163                           ;Config register CONFIG7 @ 0x300006
  4164                           ;	Boot Block Size selection bits
  4165                           ;	BBSIZE = BBSIZE_512, Boot Block size is 512 words
  4166                           ;	Boot Block enable bit
  4167                           ;	BBEN = OFF, Boot block disabled
  4168                           ;	Storage Area Flash enable bit
  4169                           ;	SAFEN = OFF, SAF disabled
  4170  300006                     	org	3145734
  4171  300006  FF                 	db	255
  4172                           
  4173                           ;Config register CONFIG8 @ 0x300007
  4174                           ;	Boot Block Write Protection bit
  4175                           ;	WRTB = OFF, Boot Block not Write protected
  4176                           ;	Configuration Register Write Protection bit
  4177                           ;	WRTC = OFF, Configuration registers not Write protected
  4178                           ;	Data EEPROM Write Protection bit
  4179                           ;	WRTD = OFF, Data EEPROM not Write protected
  4180                           ;	SAF Write protection bit
  4181                           ;	WRTSAF = OFF, SAF not Write Protected
  4182                           ;	Application Block write protection bit
  4183                           ;	WRTAPP = OFF, Application Block not write protected
  4184  300007                     	org	3145735
  4185  300007  FF                 	db	255
  4186                           
  4187                           ;Config register CONFIG9 @ 0x300008
  4188                           ;	CRC on boot output pin selection
  4189                           ;	BOOTPINSEL = RC5, CRC on boot output pin is RC5
  4190                           ;	CRC on boot output pin enable bit
  4191                           ;	BPEN = OFF, CRC on boot output pin disabled
  4192                           ;	CRC on boot output pin open drain bit
  4193                           ;	ODCON = OFF, Pin drives both high-going and low-going signals
  4194  300008                     	org	3145736
  4195  300008  FF                 	db	255
  4196                           
  4197                           ;Config register CONFIG10 @ 0x300009
  4198                           ;	PFM and Data EEPROM Code Protection bit
  4199                           ;	CP = OFF, PFM and Data EEPROM code protection disabled
  4200  300009                     	org	3145737
  4201  300009  FF                 	db	255
  4202                           
  4203                           ;Config register CONFIG11 @ 0x30000A
  4204                           ;	CRC on boot scan enable for boot area
  4205                           ;	BOOTSCEN = OFF, CRC on boot will not include the boot area of program memory in its ca
      +                          lculation
  4206                           ;	CRC on boot Continue on Error for boot areas bit
  4207                           ;	BOOTCOE = HALT, CRC on boot will stop device if error is detected in boot areas
  4208                           ;	CRC on boot application code scan enable
  4209                           ;	APPSCEN = OFF, CRC on boot will not include the application area of program memory in 
      +                          its calculation
  4210                           ;	CRC on boot SAF area scan enable
  4211                           ;	SAFSCEN = OFF, CRC on boot will not include the SAF area of program memory in its calc
      +                          ulation
  4212                           ;	CRC on boot Data EEPROM scan enable
  4213                           ;	DATASCEN = OFF, CRC on boot will not include data EEPROM in its calculation
  4214                           ;	CRC on boot Config fuses scan enable
  4215                           ;	CFGSCEN = OFF, CRC on boot will not include the configuration fuses in its calculation
  4216                           ;	CRC on boot Continue on Error for non-boot areas bit
  4217                           ;	COE = HALT, CRC on boot will stop device if error is detected in non-boot areas
  4218                           ;	Boot on CRC Enable bit
  4219                           ;	BOOTPOR = OFF, CRC on boot will not run
  4220  30000A                     	org	3145738
  4221  30000A  FF                 	db	255
  4222                           
  4223                           ;Config register CONFIG12 @ 0x30000B
  4224                           ;	Boot Sector Polynomial for CRC on boot bits 31-24
  4225                           ;	BCRCPOLT = hFF, Bits 31:24 of BCRCPOL are 0xFF
  4226  30000B                     	org	3145739
  4227  30000B  FF                 	db	255
  4228                           
  4229                           ;Config register CONFIG13 @ 0x30000C
  4230                           ;	Boot Sector Polynomial for CRC on boot bits 23-16
  4231                           ;	BCRCPOLU = hFF, Bits 23:16 of BCRCPOL are 0xFF
  4232  30000C                     	org	3145740
  4233  30000C  FF                 	db	255
  4234                           
  4235                           ;Config register CONFIG14 @ 0x30000D
  4236                           ;	Boot Sector Polynomial for CRC on boot bits 15-8
  4237                           ;	BCRCPOLH = hFF, Bits 15:8 of BCRCPOL are 0xFF
  4238  30000D                     	org	3145741
  4239  30000D  FF                 	db	255
  4240                           
  4241                           ;Config register CONFIG15 @ 0x30000E
  4242                           ;	Boot Sector Polynomial for CRC on boot bits 7-0
  4243                           ;	BCRCPOLL = hFF, Bits 7:0 of BCRCPOL are 0xFF
  4244  30000E                     	org	3145742
  4245  30000E  FF                 	db	255
  4246                           
  4247                           ;Config register CONFIG16 @ 0x30000F
  4248                           ;	Boot Sector Seed for CRC on boot bits 31-24
  4249                           ;	BCRCSEEDT = hFF, Bits 31:24 of BCRCSEED are 0xFF
  4250  30000F                     	org	3145743
  4251  30000F  FF                 	db	255
  4252                           
  4253                           ;Config register CONFIG17 @ 0x300010
  4254                           ;	Boot Sector Seed for CRC on boot bits 23-16
  4255                           ;	BCRCSEEDU = hFF, Bits 23:16 of BCRCSEED are 0xFF
  4256  300010                     	org	3145744
  4257  300010  FF                 	db	255
  4258                           
  4259                           ;Config register CONFIG18 @ 0x300011
  4260                           ;	Boot Sector Seed for CRC on boot bits 15-8
  4261                           ;	BCRCSEEDH = hFF, Bits 15:8 of BCRCSEED are 0xFF
  4262  300011                     	org	3145745
  4263  300011  FF                 	db	255
  4264                           
  4265                           ;Config register CONFIG19 @ 0x300012
  4266                           ;	Boot Sector Seed for CRC on boot bits 7-0
  4267                           ;	BCRCSEEDL = hFF, Bits 7:0 of BCRCSEED are 0xFF
  4268  300012                     	org	3145746
  4269  300012  FF                 	db	255
  4270                           
  4271                           ;Config register CONFIG20 @ 0x300013
  4272                           ;	unspecified, using default values
  4273                           ;	Boot Sector Expected Result for CRC on boot bits 31-24
  4274                           ;	BCRCEREST = 0xFF, unprogrammed default
  4275  300013                     	org	3145747
  4276  300013  FF                 	db	255
  4277                           
  4278                           ;Config register CONFIG21 @ 0x300014
  4279                           ;	unspecified, using default values
  4280                           ;	Boot Sector Expected Result for CRC on boot bits 23-16
  4281                           ;	BCRCERESU = 0xFF, unprogrammed default
  4282  300014                     	org	3145748
  4283  300014  FF                 	db	255
  4284                           
  4285                           ;Config register CONFIG22 @ 0x300015
  4286                           ;	unspecified, using default values
  4287                           ;	Boot Sector Expected Result for CRC on boot bits 15-8
  4288                           ;	BCRCERESH = 0xFF, unprogrammed default
  4289  300015                     	org	3145749
  4290  300015  FF                 	db	255
  4291                           
  4292                           ;Config register CONFIG23 @ 0x300016
  4293                           ;	unspecified, using default values
  4294                           ;	Boot Sector Expected Result for CRC on boot bits 7-0
  4295                           ;	BCRCERESL = 0xFF, unprogrammed default
  4296  300016                     	org	3145750
  4297  300016  FF                 	db	255
  4298                           
  4299                           ;Config register CONFIG24 @ 0x300017
  4300                           ;	Non-Boot Sector Polynomial for CRC on boot bits 31-24
  4301                           ;	CRCPOLT = hFF, Bits 31:24 of CRCPOL are 0xFF
  4302  300017                     	org	3145751
  4303  300017  FF                 	db	255
  4304                           
  4305                           ;Config register CONFIG25 @ 0x300018
  4306                           ;	Non-Boot Sector Polynomial for CRC on boot bits 23-16
  4307                           ;	CRCPOLU = hFF, Bits 23:16 of CRCPOL are 0xFF
  4308  300018                     	org	3145752
  4309  300018  FF                 	db	255
  4310                           
  4311                           ;Config register CONFIG26 @ 0x300019
  4312                           ;	Non-Boot Sector Polynomial for CRC on boot bits 15-8
  4313                           ;	CRCPOLH = hFF, Bits 15:8 of CRCPOL are 0xFF
  4314  300019                     	org	3145753
  4315  300019  FF                 	db	255
  4316                           
  4317                           ;Config register CONFIG27 @ 0x30001A
  4318                           ;	Non-Boot Sector Polynomial for CRC on boot bits 7-0
  4319                           ;	CRCPOLL = hFF, Bits 7:0 of CRCPOL are 0xFF
  4320  30001A                     	org	3145754
  4321  30001A  FF                 	db	255
  4322                           
  4323                           ;Config register CONFIG28 @ 0x30001B
  4324                           ;	Non-Boot Sector Seed for CRC on boot bits 31-24
  4325                           ;	CRCSEEDT = hFF, Bits 31:24 of CRCSEED are 0xFF
  4326  30001B                     	org	3145755
  4327  30001B  FF                 	db	255
  4328                           
  4329                           ;Config register CONFIG29 @ 0x30001C
  4330                           ;	Non-Boot Sector Seed for CRC on boot bits 23-16
  4331                           ;	CRCSEEDU = hFF, Bits 23:16 of CRCSEED are 0xFF
  4332  30001C                     	org	3145756
  4333  30001C  FF                 	db	255
  4334                           
  4335                           ;Config register CONFIG30 @ 0x30001D
  4336                           ;	Non-Boot Sector Seed for CRC on boot bits 15-8
  4337                           ;	CRCSEEDH = hFF, Bits 15:8 of CRCSEED are 0xFF
  4338  30001D                     	org	3145757
  4339  30001D  FF                 	db	255
  4340                           
  4341                           ;Config register CONFIG31 @ 0x30001E
  4342                           ;	Non-Boot Sector Seed for CRC on boot bits 7-0
  4343                           ;	CRCSEEDL = hFF, Bits 7:0 of CRCSEED are 0xFF
  4344  30001E                     	org	3145758
  4345  30001E  FF                 	db	255
  4346                           
  4347                           ;Config register CONFIG32 @ 0x30001F
  4348                           ;	unspecified, using default values
  4349                           ;	Non-Boot Sector Expected Result for CRC on boot bits 31-24
  4350                           ;	CRCEREST = 0xFF, unprogrammed default
  4351  30001F                     	org	3145759
  4352  30001F  FF                 	db	255
  4353                           
  4354                           ;Config register CONFIG33 @ 0x300020
  4355                           ;	unspecified, using default values
  4356                           ;	Non-Boot Sector Expected Result for CRC on boot bits 23-16
  4357                           ;	CRCERESU = 0xFF, unprogrammed default
  4358  300020                     	org	3145760
  4359  300020  FF                 	db	255
  4360                           
  4361                           ;Config register CONFIG34 @ 0x300021
  4362                           ;	unspecified, using default values
  4363                           ;	Non-Boot Sector Expected Result for CRC on boot bits 15-8
  4364                           ;	CRCERESH = 0xFF, unprogrammed default
  4365  300021                     	org	3145761
  4366  300021  FF                 	db	255
  4367                           
  4368                           ;Config register CONFIG35 @ 0x300022
  4369                           ;	unspecified, using default values
  4370                           ;	Non-Boot Sector Expected Result for CRC on boot bits 7-0
  4371                           ;	CRCERESL = 0xFF, unprogrammed default
  4372  300022                     	org	3145762
  4373  300022  FF                 	db	255
  4374                           
  4375                           ; Padding undefined space
  4376  300023                     	org	3145763
  4377  300023  FF                 	db	255
  4378                           tosu	equ	0x4FF
  4379                           tosh	equ	0x4FE
  4380                           tosl	equ	0x4FD
  4381                           stkptr	equ	0x4FC
  4382                           pclatu	equ	0x4FB
  4383                           pclath	equ	0x4FA
  4384                           pcl	equ	0x4F9
  4385                           tblptru	equ	0x4F8
  4386                           tblptrh	equ	0x4F7
  4387                           tblptrl	equ	0x4F6
  4388                           tablat	equ	0x4F5
  4389                           prodh	equ	0x4F4
  4390                           prodl	equ	0x4F3
  4391                           indf0	equ	0x4EF
  4392                           postinc0	equ	0x4EE
  4393                           postdec0	equ	0x4ED
  4394                           preinc0	equ	0x4EC
  4395                           plusw0	equ	0x4EB
  4396                           fsr0h	equ	0x4EA
  4397                           fsr0l	equ	0x4E9
  4398                           wreg	equ	0x4E8
  4399                           indf1	equ	0x4E7
  4400                           postinc1	equ	0x4E6
  4401                           postdec1	equ	0x4E5
  4402                           preinc1	equ	0x4E4
  4403                           plusw1	equ	0x4E3
  4404                           fsr1h	equ	0x4E2
  4405                           fsr1l	equ	0x4E1
  4406                           bsr	equ	0x4E0
  4407                           indf2	equ	0x4DF
  4408                           postinc2	equ	0x4DE
  4409                           postdec2	equ	0x4DD
  4410                           preinc2	equ	0x4DC
  4411                           plusw2	equ	0x4DB
  4412                           fsr2h	equ	0x4DA
  4413                           fsr2l	equ	0x4D9
  4414                           status	equ	0x4D8

Data Sizes:
    Strings     0
    Constant    49
    Data        1
    BSS         50
    Persistent  18
    Stack       0

Auto Spaces:
    Space          Size  Autos    Used
    COMRAM           95     20      89
    BANK5           160      0       0
    BANK6           256      0       0
    BANK7           256      0       0
    BANK8           256      0       0
    BANK9           256      0       0
    BANK10          256      0       0
    BANK11          256      0       0
    BANK12          256      0       0
    BANK13          256      0       0
    BANK14          256      0       0
    BANK15          256      0       0
    BANK16          256      0       0
    BANK17          256      0       0
    BANK18          256      0       0
    BANK19          256      0       0
    BANK20          256      0       0
    BANK21          256      0       0
    BANK22          256      0       0
    BANK23          256      0       0
    BANK24          256      0       0
    BANK25          256      0       0
    BANK26          256      0       0
    BANK27          256      0       0
    BANK28          256      0       0
    BANK29          256      0       0
    BANK30          256      0       0
    BANK31          256      0       0
    BANK32          256      0       0
    BANK33          256      0       0
    BANK34          256      0       0
    BANK35          256      0       0
    BANK36          256      0       0
    BANK37          256      0       0

Pointer List with Targets:

    I2C1_Read1ByteRegister@returnValue.data	PTR unsigned char  size(2) Largest target is 0

    I2C1_Read2ByteRegister@returnValue.data	PTR unsigned char  size(2) Largest target is 0

    I2C1_Write1ByteRegister@data.data	PTR unsigned char  size(2) Largest target is 0

    I2C1_Write2ByteRegister@data.data	PTR unsigned char  size(2) Largest target is 0

    I2C1_DO_TX$3558$0	PTR void  size(2) Largest target is 5
		 -> I2C1_ReadDataBlock@bufferBlock(COMRAM[4]), I2C1_Write2ByteRegister@data(COMRAM[2]), I2C1_Write1ByteRegister@data(COMRAM[1]), I2C1_Read2ByteRegister@returnValue(COMRAM[2]), 
		 -> NULL(NULL[0]), I2C1_Read1ByteRegister@returnValue(COMRAM[1]), 

    I2C1_DO_TX_EMPTY$3564$0	PTR void  size(2) Largest target is 5
		 -> I2C1_ReadDataBlock@bufferBlock(COMRAM[4]), I2C1_Write2ByteRegister@data(COMRAM[2]), I2C1_Write1ByteRegister@data(COMRAM[1]), I2C1_Read2ByteRegister@returnValue(COMRAM[2]), 
		 -> NULL(NULL[0]), I2C1_Read1ByteRegister@returnValue(COMRAM[1]), 

    I2C1_DO_RX_EMPTY$3570$0	PTR void  size(2) Largest target is 5
		 -> I2C1_ReadDataBlock@bufferBlock(COMRAM[4]), I2C1_Write2ByteRegister@data(COMRAM[2]), I2C1_Write1ByteRegister@data(COMRAM[1]), I2C1_Read2ByteRegister@returnValue(COMRAM[2]), 
		 -> NULL(NULL[0]), I2C1_Read1ByteRegister@returnValue(COMRAM[1]), 

    cb$0	PTR void  size(2) Largest target is 5
		 -> I2C1_ReadDataBlock@bufferBlock(COMRAM[4]), I2C1_Write2ByteRegister@data(COMRAM[2]), I2C1_Write1ByteRegister@data(COMRAM[1]), I2C1_Read2ByteRegister@returnValue(COMRAM[2]), 
		 -> NULL(NULL[0]), I2C1_Read1ByteRegister@returnValue(COMRAM[1]), 

    Absolute function$0	PTR void  size(2) Largest target is 5
		 -> I2C1_ReadDataBlock@bufferBlock(COMRAM[4]), I2C1_Write2ByteRegister@data(COMRAM[2]), I2C1_Write1ByteRegister@data(COMRAM[1]), I2C1_Read2ByteRegister@returnValue(COMRAM[2]), 
		 -> NULL(NULL[0]), I2C1_Read1ByteRegister@returnValue(COMRAM[1]), 

    cb$0	PTR void  size(2) Largest target is 5
		 -> I2C1_ReadDataBlock@bufferBlock(COMRAM[4]), I2C1_Write2ByteRegister@data(COMRAM[2]), I2C1_Write1ByteRegister@data(COMRAM[1]), I2C1_Read2ByteRegister@returnValue(COMRAM[2]), 
		 -> NULL(NULL[0]), I2C1_Read1ByteRegister@returnValue(COMRAM[1]), 

    S1381$0$0	PTR void  size(2) Largest target is 5
		 -> I2C1_ReadDataBlock@bufferBlock(COMRAM[4]), I2C1_Write2ByteRegister@data(COMRAM[2]), I2C1_Write1ByteRegister@data(COMRAM[1]), I2C1_Read2ByteRegister@returnValue(COMRAM[2]), 
		 -> NULL(NULL[0]), I2C1_Read1ByteRegister@returnValue(COMRAM[1]), 

    TMR0_SetInterruptHandler@InterruptHandler	PTR FTN()void  size(2) Largest target is 1
		 -> TMR0_DefaultInterruptHandler(), 

    TMR0_InterruptHandler	PTR FTN()void  size(2) Largest target is 1
		 -> TMR0_DefaultInterruptHandler(), Absolute function(), 

    TMR1_SetInterruptHandler@InterruptHandler	PTR FTN()void  size(2) Largest target is 1
		 -> TMR1_DefaultInterruptHandler(), 

    TMR1_InterruptHandler	PTR FTN()void  size(2) Largest target is 1
		 -> TMR1_DefaultInterruptHandler(), Absolute function(), 

    INT2_SetInterruptHandler@InterruptHandler	PTR FTN()void  size(2) Largest target is 1
		 -> INT2_DefaultInterruptHandler(), 

    INT2_InterruptHandler	PTR FTN()void  size(2) Largest target is 1
		 -> INT2_DefaultInterruptHandler(), Absolute function(), 

    INT1_SetInterruptHandler@InterruptHandler	PTR FTN()void  size(2) Largest target is 1
		 -> INT1_DefaultInterruptHandler(), 

    INT1_InterruptHandler	PTR FTN()void  size(2) Largest target is 1
		 -> INT1_DefaultInterruptHandler(), Absolute function(), 

    INT0_SetInterruptHandler@InterruptHandler	PTR FTN()void  size(2) Largest target is 1
		 -> INT0_DefaultInterruptHandler(), 

    INT0_InterruptHandler	PTR FTN()void  size(2) Largest target is 1
		 -> INT0_DefaultInterruptHandler(), Absolute function(), 

    S1381$data_ptr	PTR unsigned char  size(2) Largest target is 5
		 -> I2C1_ReadDataBlock@reg(COMRAM[1]), I2C1_ReadDataBlock@bufferBlock(COMRAM[4]), I2C1_Write2ByteRegister@reg(COMRAM[1]), I2C1_Write2ByteRegister@data(COMRAM[2]), 
		 -> I2C1_Write1ByteRegister@reg(COMRAM[1]), I2C1_Write1ByteRegister@data(COMRAM[1]), I2C1_Read2ByteRegister@reg(COMRAM[1]), I2C1_Read2ByteRegister@returnValue(COMRAM[2]), 
		 -> NULL(NULL[0]), I2C1_Read1ByteRegister@reg(COMRAM[1]), I2C1_Read1ByteRegister@returnValue(COMRAM[1]), 

    I2C1_Status.data_ptr	PTR unsigned char  size(2) Largest target is 5
		 -> I2C1_ReadDataBlock@reg(COMRAM[1]), I2C1_ReadDataBlock@bufferBlock(COMRAM[4]), I2C1_Write2ByteRegister@reg(COMRAM[1]), I2C1_Write2ByteRegister@data(COMRAM[2]), 
		 -> I2C1_Write1ByteRegister@reg(COMRAM[1]), I2C1_Write1ByteRegister@data(COMRAM[1]), I2C1_Read2ByteRegister@reg(COMRAM[1]), I2C1_Read2ByteRegister@returnValue(COMRAM[2]), 
		 -> NULL(NULL[0]), I2C1_Read1ByteRegister@reg(COMRAM[1]), I2C1_Read1ByteRegister@returnValue(COMRAM[1]), 

    S1381$callbackPayload	PTR void [6] size(2) Largest target is 5
		 -> I2C1_ReadDataBlock@bufferBlock(COMRAM[4]), I2C1_Write2ByteRegister@data(COMRAM[2]), I2C1_Write1ByteRegister@data(COMRAM[1]), I2C1_Read2ByteRegister@returnValue(COMRAM[2]), 
		 -> NULL(NULL[0]), I2C1_Read1ByteRegister@returnValue(COMRAM[1]), 

    I2C1_Status.callbackPayload	PTR void [6] size(2) Largest target is 5
		 -> I2C1_ReadDataBlock@bufferBlock(COMRAM[4]), I2C1_Write2ByteRegister@data(COMRAM[2]), I2C1_Write1ByteRegister@data(COMRAM[1]), I2C1_Read2ByteRegister@returnValue(COMRAM[2]), 
		 -> NULL(NULL[0]), I2C1_Read1ByteRegister@returnValue(COMRAM[1]), 

    S1381$callbackTable	PTR FTN(PTR void ,)enum E360[6] size(2) Largest target is 1
		 -> I2C1_CallbackReturnReset(), I2C1_CallbackReturnStop(), Absolute function(), rdBlkRegCompleteHandler(), 
		 -> wr2RegCompleteHandler(), wr1RegCompleteHandler(), rd2RegCompleteHandler(), rd1RegCompleteHandler(), 

    I2C1_Status.callbackTable	PTR FTN(PTR void ,)enum E360[6] size(2) Largest target is 1
		 -> I2C1_CallbackReturnReset(), I2C1_CallbackReturnStop(), Absolute function(), rdBlkRegCompleteHandler(), 
		 -> wr2RegCompleteHandler(), wr1RegCompleteHandler(), rd2RegCompleteHandler(), rd1RegCompleteHandler(), 

    i2c1_fsmStateTable	const PTR FTN()enum E22532[19] size(2) Largest target is 1
		 -> I2C1_DO_BUS_ERROR(), I2C1_DO_BUS_COLLISION(), I2C1_DO_ADDRESS_NACK(), I2C1_DO_RESET(), 
		 -> I2C1_DO_RX_NACK_RESTART(), I2C1_DO_RX_NACK_STOP(), I2C1_DO_TX_ACK(), I2C1_DO_RX_ACK(), 
		 -> I2C1_DO_SEND_STOP(), I2C1_DO_SEND_RESTART(), I2C1_DO_SEND_RESTART_WRITE(), I2C1_DO_SEND_RESTART_READ(), 
		 -> I2C1_DO_RX_EMPTY(), I2C1_DO_TX_EMPTY(), I2C1_DO_RX(), I2C1_DO_TX(), 
		 -> I2C1_DO_SEND_ADR_WRITE(), I2C1_DO_SEND_ADR_READ(), I2C1_DO_IDLE(), 

    ADC_SetActiveClockTuningInterruptHandler@InterruptHandler	PTR FTN()void  size(2) Largest target is 1
		 -> ADC_DefaultActiveClockTuning_ISR(), 

    ADC_SetContext1ThresholdInterruptHandler@InterruptHandler	PTR FTN()void  size(2) Largest target is 1
		 -> ADC_DefaultContext1Threshold_ISR(), 

    ADC_SetADIInterruptHandler@InterruptHandler	PTR FTN()void  size(2) Largest target is 1
		 -> ADC_DefaultADI_ISR(), 

    ADC_Context1Thereshld_ISR	PTR FTN()void  size(2) Largest target is 1
		 -> Absolute function(), ADC_DefaultContext1Threshold_ISR(), 

    ADC_ActiveClockTuning_ISR	PTR FTN()void  size(2) Largest target is 1
		 -> Absolute function(), ADC_DefaultActiveClockTuning_ISR(), 

    ADC_ConversionComplete_ISR	PTR FTN()void  size(2) Largest target is 1
		 -> Absolute function(), ADC_DefaultADI_ISR(), 

    FIFO	const PTR volatile struct CAN_FIFOREG size(2) Largest target is 1
		 -> C1TXQCONL(SFR_1[1]), 

    rdBlkRegCompleteHandler@ptr.data	PTR unsigned char  size(2) Largest target is 0

    S96$data	PTR unsigned char  size(2) Largest target is 0

    bufferBlock.data	PTR unsigned char  size(2) Largest target is 0


Critical Paths under _main in COMRAM

    _main->_ReluctorPosRead
    _SYSTEM_Initialize->_TMR1_Initialize
    _TMR1_Initialize->_TMR1_SetInterruptHandler
    _TMR0_Initialize->_TMR0_SetInterruptHandler
    _EXT_INT_Initialize->_INT0_SetInterruptHandler
    _EXT_INT_Initialize->_INT1_SetInterruptHandler
    _EXT_INT_Initialize->_INT2_SetInterruptHandler
    _CAN1_Initialize->_CAN1_OperationModeSet
    _ADC_Initialize->_ADC_SetADIInterruptHandler
    _ADC_Initialize->_ADC_SetActiveClockTuningInterruptHandler
    _ADC_Initialize->_ADC_SetContext1ThresholdInterruptHandler
    _ReluctorPosRead->___awdiv
    ___awdiv->___wmul
    _ReluctorFreqRead->___lwdiv
    ___lwdiv->___wmul

Critical Paths under _INTERRUPT_InterruptManager in COMRAM

    _TMR1_ISR->_TMR1_WriteTimer

Critical Paths under _main in BANK5

    None.

Critical Paths under _INTERRUPT_InterruptManager in BANK5

    None.

Critical Paths under _main in BANK6

    None.

Critical Paths under _INTERRUPT_InterruptManager in BANK6

    None.

Critical Paths under _main in BANK7

    None.

Critical Paths under _INTERRUPT_InterruptManager in BANK7

    None.

Critical Paths under _main in BANK8

    None.

Critical Paths under _INTERRUPT_InterruptManager in BANK8

    None.

Critical Paths under _main in BANK9

    None.

Critical Paths under _INTERRUPT_InterruptManager in BANK9

    None.

Critical Paths under _main in BANK10

    None.

Critical Paths under _INTERRUPT_InterruptManager in BANK10

    None.

Critical Paths under _main in BANK11

    None.

Critical Paths under _INTERRUPT_InterruptManager in BANK11

    None.

Critical Paths under _main in BANK12

    None.

Critical Paths under _INTERRUPT_InterruptManager in BANK12

    None.

Critical Paths under _main in BANK13

    None.

Critical Paths under _INTERRUPT_InterruptManager in BANK13

    None.

Critical Paths under _main in BANK14

    None.

Critical Paths under _INTERRUPT_InterruptManager in BANK14

    None.

Critical Paths under _main in BANK15

    None.

Critical Paths under _INTERRUPT_InterruptManager in BANK15

    None.

Critical Paths under _main in BANK16

    None.

Critical Paths under _INTERRUPT_InterruptManager in BANK16

    None.

Critical Paths under _main in BANK17

    None.

Critical Paths under _INTERRUPT_InterruptManager in BANK17

    None.

Critical Paths under _main in BANK18

    None.

Critical Paths under _INTERRUPT_InterruptManager in BANK18

    None.

Critical Paths under _main in BANK19

    None.

Critical Paths under _INTERRUPT_InterruptManager in BANK19

    None.

Critical Paths under _main in BANK20

    None.

Critical Paths under _INTERRUPT_InterruptManager in BANK20

    None.

Critical Paths under _main in BANK21

    None.

Critical Paths under _INTERRUPT_InterruptManager in BANK21

    None.

Critical Paths under _main in BANK22

    None.

Critical Paths under _INTERRUPT_InterruptManager in BANK22

    None.

Critical Paths under _main in BANK23

    None.

Critical Paths under _INTERRUPT_InterruptManager in BANK23

    None.

Critical Paths under _main in BANK24

    None.

Critical Paths under _INTERRUPT_InterruptManager in BANK24

    None.

Critical Paths under _main in BANK25

    None.

Critical Paths under _INTERRUPT_InterruptManager in BANK25

    None.

Critical Paths under _main in BANK26

    None.

Critical Paths under _INTERRUPT_InterruptManager in BANK26

    None.

Critical Paths under _main in BANK27

    None.

Critical Paths under _INTERRUPT_InterruptManager in BANK27

    None.

Critical Paths under _main in BANK28

    None.

Critical Paths under _INTERRUPT_InterruptManager in BANK28

    None.

Critical Paths under _main in BANK29

    None.

Critical Paths under _INTERRUPT_InterruptManager in BANK29

    None.

Critical Paths under _main in BANK30

    None.

Critical Paths under _INTERRUPT_InterruptManager in BANK30

    None.

Critical Paths under _main in BANK31

    None.

Critical Paths under _INTERRUPT_InterruptManager in BANK31

    None.

Critical Paths under _main in BANK32

    None.

Critical Paths under _INTERRUPT_InterruptManager in BANK32

    None.

Critical Paths under _main in BANK33

    None.

Critical Paths under _INTERRUPT_InterruptManager in BANK33

    None.

Critical Paths under _main in BANK34

    None.

Critical Paths under _INTERRUPT_InterruptManager in BANK34

    None.

Critical Paths under _main in BANK35

    None.

Critical Paths under _INTERRUPT_InterruptManager in BANK35

    None.

Critical Paths under _main in BANK36

    None.

Critical Paths under _INTERRUPT_InterruptManager in BANK36

    None.

Critical Paths under _main in BANK37

    None.

Critical Paths under _INTERRUPT_InterruptManager in BANK37

    None.

Call Graph Tables:

 ---------------------------------------------------------------------------------
 (Depth) Function   	        Calls       Base Space   Used Autos Params    Refs
 ---------------------------------------------------------------------------------
 (0) _main                                                 2     2      0    6182
                 _DELAY_milliseconds
                   _ReluctorFreqRead
                    _ReluctorPosRead
                  _SYSTEM_Initialize
 ---------------------------------------------------------------------------------
 (1) _SYSTEM_Initialize                                    0     0      0     859
                     _ADC_Initialize
                    _CAN1_Initialize
                 _EXT_INT_Initialize
                    _I2C1_Initialize
               _INTERRUPT_Initialize
              _OSCILLATOR_Initialize
             _PIN_MANAGER_Initialize
                     _PMD_Initialize
                    _TMR0_Initialize
                    _TMR1_Initialize
 ---------------------------------------------------------------------------------
 (2) _TMR1_Initialize                                      2     2      0      98
                                              4 COMRAM     2     2      0
           _TMR1_SetInterruptHandler
 ---------------------------------------------------------------------------------
 (3) _TMR1_SetInterruptHandler                             2     0      2      98
                                              2 COMRAM     2     0      2
 ---------------------------------------------------------------------------------
 (2) _TMR0_Initialize                                      0     0      0      98
           _TMR0_SetInterruptHandler
 ---------------------------------------------------------------------------------
 (3) _TMR0_SetInterruptHandler                             2     0      2      98
                                              2 COMRAM     2     0      2
 ---------------------------------------------------------------------------------
 (2) _PMD_Initialize                                       0     0      0       0
 ---------------------------------------------------------------------------------
 (2) _PIN_MANAGER_Initialize                               0     0      0       0
 ---------------------------------------------------------------------------------
 (2) _OSCILLATOR_Initialize                                0     0      0       0
 ---------------------------------------------------------------------------------
 (2) _INTERRUPT_Initialize                                 0     0      0       0
 ---------------------------------------------------------------------------------
 (2) _I2C1_Initialize                                      0     0      0       0
 ---------------------------------------------------------------------------------
 (2) _EXT_INT_Initialize                                   0     0      0     294
           _INT0_SetInterruptHandler
           _INT1_SetInterruptHandler
           _INT2_SetInterruptHandler
 ---------------------------------------------------------------------------------
 (3) _INT2_SetInterruptHandler                             2     0      2      98
                                              2 COMRAM     2     0      2
 ---------------------------------------------------------------------------------
 (3) _INT1_SetInterruptHandler                             2     0      2      98
                                              2 COMRAM     2     0      2
 ---------------------------------------------------------------------------------
 (3) _INT0_SetInterruptHandler                             2     0      2      98
                                              2 COMRAM     2     0      2
 ---------------------------------------------------------------------------------
 (2) _CAN1_Initialize                                      0     0      0      75
          _CAN1_BitRateConfiguration
              _CAN1_OperationModeSet
 ---------------------------------------------------------------------------------
 (3) _CAN1_OperationModeSet                                3     3      0      75
                                              2 COMRAM     3     3      0
              _CAN1_OperationModeGet
 ---------------------------------------------------------------------------------
 (4) _CAN1_OperationModeGet                                0     0      0       0
 ---------------------------------------------------------------------------------
 (3) _CAN1_BitRateConfiguration                            0     0      0       0
 ---------------------------------------------------------------------------------
 (2) _ADC_Initialize                                       0     0      0     294
         _ADC_SetADIInterruptHandler
_ADC_SetActiveClockTuningInterruptHa
_ADC_SetContext1ThresholdInterruptHa
 ---------------------------------------------------------------------------------
 (3) _ADC_SetContext1ThresholdInterruptHandler             2     0      2      98
                                              2 COMRAM     2     0      2
 ---------------------------------------------------------------------------------
 (3) _ADC_SetActiveClockTuningInterruptHandler             2     0      2      98
                                              2 COMRAM     2     0      2
 ---------------------------------------------------------------------------------
 (3) _ADC_SetADIInterruptHandler                           2     0      2      98
                                              2 COMRAM     2     0      2
 ---------------------------------------------------------------------------------
 (1) _ReluctorPosRead                                      4     2      2    2567
                                             16 COMRAM     4     2      2
                            ___awdiv
                             ___wmul
 ---------------------------------------------------------------------------------
 (2) ___awdiv                                              8     4      4     452
                                              8 COMRAM     8     4      4
                             ___wmul (ARG)
 ---------------------------------------------------------------------------------
 (1) _ReluctorFreqRead                                     0     0      0    2581
                            ___lwdiv
                             ___wmul
 ---------------------------------------------------------------------------------
 (2) ___wmul                                               6     2      4    2115
                                              2 COMRAM     6     2      4
 ---------------------------------------------------------------------------------
 (2) ___lwdiv                                              7     3      4     466
                                              8 COMRAM     7     3      4
                             ___wmul (ARG)
 ---------------------------------------------------------------------------------
 (1) _DELAY_milliseconds                                   3     1      2     174
                                              2 COMRAM     3     1      2
 ---------------------------------------------------------------------------------
 Estimated maximum stack depth 4
 ---------------------------------------------------------------------------------
 (Depth) Function   	        Calls       Base Space   Used Autos Params    Refs
 ---------------------------------------------------------------------------------
 (5) _INTERRUPT_InterruptManager                           0     0      0     240
                           _INT0_ISR
                           _INT1_ISR
                           _INT2_ISR
                           _TMR0_ISR
                           _TMR1_ISR
 ---------------------------------------------------------------------------------
 (6) _TMR1_ISR                                             0     0      0     240
                      _TMR1_CallBack
                    _TMR1_WriteTimer
 ---------------------------------------------------------------------------------
 (7) _TMR1_WriteTimer                                      2     0      2     240
                                              0 COMRAM     2     0      2
 ---------------------------------------------------------------------------------
 (7) _TMR1_CallBack                                        0     0      0       0
                   Absolute function *
       _TMR1_DefaultInterruptHandler *
 ---------------------------------------------------------------------------------
 (8) _TMR1_DefaultInterruptHandler                         0     0      0       0
 ---------------------------------------------------------------------------------
 (6) _TMR0_ISR                                             0     0      0       0
                      _TMR0_CallBack
 ---------------------------------------------------------------------------------
 (7) _TMR0_CallBack                                        0     0      0       0
                   Absolute function *
       _TMR0_DefaultInterruptHandler *
 ---------------------------------------------------------------------------------
 (8) _TMR0_DefaultInterruptHandler                         0     0      0       0
 ---------------------------------------------------------------------------------
 (6) _INT2_ISR                                             0     0      0       0
                      _INT2_CallBack
 ---------------------------------------------------------------------------------
 (7) _INT2_CallBack                                        0     0      0       0
                   Absolute function *
       _INT2_DefaultInterruptHandler *
 ---------------------------------------------------------------------------------
 (8) _INT2_DefaultInterruptHandler                         0     0      0       0
 ---------------------------------------------------------------------------------
 (6) _INT1_ISR                                             0     0      0       0
                      _INT1_CallBack
 ---------------------------------------------------------------------------------
 (7) _INT1_CallBack                                        0     0      0       0
                   Absolute function *
       _INT1_DefaultInterruptHandler *
 ---------------------------------------------------------------------------------
 (8) _INT1_DefaultInterruptHandler                         0     0      0       0
 ---------------------------------------------------------------------------------
 (6) _INT0_ISR                                             0     0      0       0
                      _INT0_CallBack
 ---------------------------------------------------------------------------------
 (7) _INT0_CallBack                                        0     0      0       0
                   Absolute function *
       _INT0_DefaultInterruptHandler *
                  _ReluctorFreqCount
                   _ReluctorPosCount
 ---------------------------------------------------------------------------------
 (8) _ReluctorPosCount                                     0     0      0       0
 ---------------------------------------------------------------------------------
 (8) _ReluctorFreqCount                                    0     0      0       0
 ---------------------------------------------------------------------------------
 (8) _INT0_DefaultInterruptHandler                         0     0      0       0
 ---------------------------------------------------------------------------------
 (8) Absolute function(Fake)                               2     0      2       0
 ---------------------------------------------------------------------------------
 Estimated maximum stack depth 8
 ---------------------------------------------------------------------------------

 Call Graph Graphs:

 _main (ROOT)
   _DELAY_milliseconds
   _ReluctorFreqRead
     ___lwdiv
       ___wmul (ARG)
     ___wmul
   _ReluctorPosRead
     ___awdiv
       ___wmul (ARG)
     ___wmul
   _SYSTEM_Initialize
     _ADC_Initialize
       _ADC_SetADIInterruptHandler
       _ADC_SetActiveClockTuningInterruptHandler
       _ADC_SetContext1ThresholdInterruptHandler
     _CAN1_Initialize
       _CAN1_BitRateConfiguration
       _CAN1_OperationModeSet
         _CAN1_OperationModeGet
     _EXT_INT_Initialize
       _INT0_SetInterruptHandler
       _INT1_SetInterruptHandler
       _INT2_SetInterruptHandler
     _I2C1_Initialize
     _INTERRUPT_Initialize
     _OSCILLATOR_Initialize
     _PIN_MANAGER_Initialize
     _PMD_Initialize
     _TMR0_Initialize
       _TMR0_SetInterruptHandler
     _TMR1_Initialize
       _TMR1_SetInterruptHandler

 _INTERRUPT_InterruptManager (ROOT)
   _INT0_ISR
     _INT0_CallBack
       Absolute function(Fake) *
       _INT0_DefaultInterruptHandler *
       _ReluctorFreqCount *
       _ReluctorPosCount *
   _INT1_ISR
     _INT1_CallBack
       Absolute function(Fake) *
       _INT1_DefaultInterruptHandler *
   _INT2_ISR
     _INT2_CallBack
       Absolute function(Fake) *
       _INT2_DefaultInterruptHandler *
   _TMR0_ISR
     _TMR0_CallBack
       Absolute function(Fake) *
       _TMR0_DefaultInterruptHandler *
   _TMR1_ISR
     _TMR1_CallBack
       Absolute function(Fake) *
       _TMR1_DefaultInterruptHandler *
     _TMR1_WriteTimer

 Address spaces:
Name               Size   Autos  Total    Cost      Usage
BIGRAM            20FF      0       0      71        0.0%
EEDATA             400      0       0       0        0.0%
BITBANK37          100      0       0      70        0.0%
BANK37             100      0       0      68        0.0%
BITBANK36          100      0       0      66        0.0%
BANK36             100      0       0      67        0.0%
BITBANK35          100      0       0      64        0.0%
BANK35             100      0       0      65        0.0%
BITBANK34          100      0       0      62        0.0%
BANK34             100      0       0      63        0.0%
BITBANK33          100      0       0      60        0.0%
BANK33             100      0       0      61        0.0%
BITBANK32          100      0       0      58        0.0%
BANK32             100      0       0      59        0.0%
BITBANK31          100      0       0      56        0.0%
BANK31             100      0       0      57        0.0%
BITBANK30          100      0       0      54        0.0%
BANK30             100      0       0      55        0.0%
BITBANK29          100      0       0      52        0.0%
BANK29             100      0       0      53        0.0%
BITBANK28          100      0       0      50        0.0%
BANK28             100      0       0      51        0.0%
BITBANK27          100      0       0      48        0.0%
BANK27             100      0       0      49        0.0%
BITBANK26          100      0       0      46        0.0%
BANK26             100      0       0      47        0.0%
BITBANK25          100      0       0      44        0.0%
BANK25             100      0       0      45        0.0%
BITBANK24          100      0       0      42        0.0%
BANK24             100      0       0      43        0.0%
BITBANK23          100      0       0      40        0.0%
BANK23             100      0       0      41        0.0%
BITBANK22          100      0       0      38        0.0%
BANK22             100      0       0      39        0.0%
BITBANK21          100      0       0      36        0.0%
BANK21             100      0       0      37        0.0%
BITBANK20          100      0       0      34        0.0%
BANK20             100      0       0      35        0.0%
BITBANK19          100      0       0      32        0.0%
BANK19             100      0       0      33        0.0%
BITBANK18          100      0       0      30        0.0%
BANK18             100      0       0      31        0.0%
BITBANK17          100      0       0      28        0.0%
BANK17             100      0       0      29        0.0%
BITBANK16          100      0       0      26        0.0%
BANK16             100      0       0      27        0.0%
BITBANK15          100      0       0      24        0.0%
BANK15             100      0       0      25        0.0%
BITBANK14          100      0       0      22        0.0%
BANK14             100      0       0      23        0.0%
BITBANK13          100      0       0      20        0.0%
BANK13             100      0       0      21        0.0%
BITBANK12          100      0       0      18        0.0%
BANK12             100      0       0      19        0.0%
BITBANK11          100      0       0      16        0.0%
BANK11             100      0       0      17        0.0%
BITBANK10          100      0       0      14        0.0%
BANK10             100      0       0      15        0.0%
BITBANK9           100      0       0      12        0.0%
BANK9              100      0       0      13        0.0%
BITBANK8           100      0       0      10        0.0%
BANK8              100      0       0      11        0.0%
BITBANK7           100      0       0       8        0.0%
BANK7              100      0       0       9        0.0%
BITBANK6           100      0       0       6        0.0%
BANK6              100      0       0       7        0.0%
BITBANK5            A0      0       0       4        0.0%
BANK5               A0      0       0       5        0.0%
BITCOMRAM           5F      0       0       0        0.0%
COMRAM              5F     14      59       1       93.7%
BITSFR_5             0      0       0     200        0.0%
SFR_5                0      0       0     200        0.0%
BITSFR_4             0      0       0     200        0.0%
SFR_4                0      0       0     200        0.0%
BITSFR_3             0      0       0     200        0.0%
SFR_3                0      0       0     200        0.0%
BITSFR_2             0      0       0     200        0.0%
SFR_2                0      0       0     200        0.0%
BITSFR_1             0      0       0     200        0.0%
SFR_1                0      0       0     200        0.0%
BITSFR               0      0       0     200        0.0%
SFR                  0      0       0     200        0.0%
STACK                0      0       0       2        0.0%
NULL                 0      0       0       0        0.0%
ABS                  0      0      59      69        0.0%
DATA                 0      0      59       3        0.0%
CODE                 0      0       0       0        0.0%


Microchip Technology PIC18 Macro Assembler V2.32 build 20210201212658 
Symbol Table                                                                                   Sat Oct 02 13:36:50 2021

                                                      u30 29F6  
                                                      u31 29F2  
                                                      u40 2A06  
                                                      u41 2A02  
                                                      u50 2A18  
                                                      u51 2A14  
                                                      u90 2ADE  
                                                      u91 2ADA  
                                            ___awdiv@sign 0540  
                                     ___wmul@multiplicand 0537  
                                                     l200 2A2E  
                                                     l203 2E9E  
                                                     l133 2ED8  
                                                     l193 2B06  
                                                     l338 2858  
                                                     l189 2E62  
                                                     l199 2A2C  
                                                     l472 2EB2  
                                                     l704 2CA0  
                                                     l552 2962  
                                                     l466 2EBC  
                                                     l469 2EA8  
                              __end_of_DELAY_milliseconds 2C48  
                              ??_INT0_SetInterruptHandler 0537  
                                         _timer1ReloadVal 054B  
                                 __size_of_PMD_Initialize 0028  
                                                     tosl 0004FD  
                                                     wreg 0004E8  
                                           _INT0_CallBack 2BE6  
                                    _I2C1_DO_RX_NACK_STOP 000000  
                                           _INT1_CallBack 2D26  
                                                    l1021 2E94  
                                                    l1110 2DF6  
                                                    l1104 2D7A  
                                                    l1034 2E8A  
                                                    l1107 2E4E  
                                                    l1053 2B7A  
                                                    l1118 2C46  
                                                    l1047 2E80  
                                                    l1323 2E76  
                                                    l1229 2AC2  
                                                    l2062 2E50  
                                                    l2070 29F6  
                                                    l2150 2AFC  
                                                    l2142 2ED6  
                                                    l1158 2B16  
                                                    l2072 2A06  
                                                    l2064 29DA  
                                                    l2152 2B00  
                                                    l2144 2AC4  
                                                    l1329 2DA4  
                                                    l1265 2E6C  
                                                    l2058 2E96  
                                                    l2074 2A18  
                                                    l2066 29DE  
                                                    l2146 2AC8  
                                                    l2170 28E4  
                                                    l2234 2DD0  
                                                    l1196 2A7C  
                                                    l2076 2A28  
                                                    l2068 29E4  
                                                    l2148 2ADE  
                                                    l3300 2B66  
                                                    l2236 2E38  
                                                    l2180 292E  
                                                    l2172 290A  
                                                    l1189 28E2  
                                                    l3302 2B68  
                                                    l2182 2930  
                                                    l2174 2928  
                                                    l3310 2A94  
                                                    l1295 2E1C  
                                                    l3400 2986  
                                                    l1560 26F6  
                                                    l3304 2B6A  
                                                    l2184 2932  
                                                    l2176 292A  
                                                    l3320 2DF8  
                                                    l3312 2A96  
                                                    l3410 29C0  
                                                    l3402 298E  
                                                    l3306 2B78  
                                                    l2186 2C76  
                                                    l2178 292C  
                                                    l3322 2E06  
                                                    l3314 2AAE  
                                                    l3412 29C2  
                                                    l3404 299C  
                                                    l1820 29CE  
                                                    l3260 2EA0  
                                                    l3324 2E08  
                                                    l3316 2AB0  
                                                    l3308 2A7E  
                                                    l3500 2B10  
                                                    l3414 29C8  
                                                    l3406 29A2  
                                                    l3350 2634  
                                                    l3262 2EAA  
                                                    l3326 2E0A  
                                                    l3270 2E64  
                                                    l3318 2ABC  
                                                    l3430 2D5A  
                                                    l3510 2B28  
                                                    l3502 2B12  
                                                    l3408 29B8  
                                                    l3344 2D7C  
                                                    l3360 2660  
                                                    l3352 2638  
                                                    l3280 282C  
                                                    l3264 2E8C  
                                                    l3272 2E6E  
                                                    l3328 2E16  
                                                    l3440 2D6E  
                                                    l3432 2D5E  
                                                    l3504 2B14  
                                                    l3450 2C2C  
                                                    l3346 2D9C  
                                                    l3370 268E  
                                                    l3362 2668  
                                                    l3354 2646  
                                                    l3258 2EB4  
                                                    l3282 282E  
                                                    l3274 27AE  
                                                    l3266 2E82  
                                                    l3290 2B44  
                                                    l3442 2D72  
                                                    l3434 2D62  
                                                    l3426 2D52  
                                                    l3506 2B22  
                                                    l1827 29D6  
                                                    l3460 28B8  
                                                    l3452 285A  
                                                    l3380 26C8  
                                                    l3372 2696  
                                                    l3364 266C  
                                                    l3356 264E  
                                                    l3284 283A  
                                                    l3276 2828  
                                                    l3268 2E78  
                                                    l3292 2B48  
                                                    l3444 2D76  
                                                    l3436 2D66  
                                                    l3428 2D56  
                                                    l3508 2B26  
                                                    l3446 2C1A  
                                                    l3462 28BC  
                                                    l3454 286A  
                                                    l3390 26EE  
                                                    l3382 26CA  
                                                    l3374 26A4  
                                                    l3366 2674  
                                                    l3358 2652  
                                                    l3286 2846  
                                                    l3278 282A  
                                                    l3294 2B54  
                                                    l3438 2D6A  
                                                    l3448 2C1E  
                                                    l3464 28D4  
                                                    l3456 289A  
                                                    l3384 26D0  
                                                    l3376 26AA  
                                                    l3368 2686  
                                                    l3288 2852  
                                                    l3296 2B56  
                                                    l3394 2964  
                                                    l3466 28DE  
                                                    l3458 28B0  
                                                    l3378 26C0  
                                                    l3386 26D6  
                                                    l3298 2B58  
                                                    l3396 296C  
                                                    l3388 26E6  
                                                    l3468 2A30  
                                                    l3398 297E  
                                                    l3494 2B08  
                                                    l3496 2B0C  
                                                    l3498 2B0E  
                                                    _ADCP 0003D8  
                                                    _FIFO 2630  
                                                    u1100 2660  
                                                    u1101 265C  
                                                    u1110 2686  
                                                    u1111 2682  
                                                    u1200 28B0  
                                                    u1120 26A4  
                                                    u1201 28AC  
                                                    u1121 26A0  
                                                    u1130 26C0  
                                                    u1131 26BC  
                                                    u1140 26E6  
                                                    u1141 26E2  
                                                    u1150 297E  
                                                    u1151 297A  
                                                    u1160 299C  
                                                    u1161 2998  
                                                    u1170 29B8  
                                                    u1090 2646  
                                                    u1171 29B4  
                                                    u1091 2642  
                                                    u1317 2C24  
                                                    _LATA 0004BE  
                                                    u1190 2C46  
                                                    _LATB 0004BF  
                                                    u1191 2C42  
                                                    _LATC 0004C0  
                                                    _PMD0 000060  
                                                    _PMD1 000061  
                                                    _PMD2 000062  
                                                    _PMD3 000063  
                                                    _PMD4 000064  
                                                    _PMD5 000065  
                                                    _PMD6 000066  
                                                    _PMD7 000067  
                                                    _PMD8 000068  
                                                    _WPUA 000401  
                                                    _WPUB 000409  
                                                    _WPUC 000411  
                                                    _WPUE 000421  
                                           _INT2_CallBack 2CFA  
                                                    _main 2B08  
                       __size_of_INT2_SetInterruptHandler 000A  
                               ?_INT2_SetInterruptHandler 0535  
                                                    prodh 0004F4  
                                                    prodl 0004F3  
                                                    start 001A  
                              ??_TMR1_SetInterruptHandler 0537  
                                            ___param_bank 000000  
                                 __end_of_TMR0_Initialize 2E1E  
                                        __end_of_INT0_ISR 2ED6  
                                        __end_of_INT1_ISR 2ECE  
                                        __end_of_INT2_ISR 2EC6  
                          ??_TMR0_DefaultInterruptHandler 0533  
                          __size_of_OSCILLATOR_Initialize 0018  
                           __end_of_OSCILLATOR_Initialize 2E50  
                                                   _ADACT 0003F9  
                                                   _ADCAP 0003F0  
                                                   ?_main 0533  
                                                   _ADCLK 0003FA  
                                                   _ADCNT 0003E6  
                                                   _ADCTX 0003FB  
                                                   _ADPCH 0003EC  
                                                   _ADREF 0003F8  
                                         __end_of___awdiv 26F8  
                                                   _ADRPT 0003E7  
                                                   _T1CLK 000321  
                                         ___awdiv@divisor 053D  
                                                   _T1CON 00031E  
                                         __end_of___lwdiv 29D8  
                                                   i2l140 2740  
                                                   i2l142 2764  
                                                   i2l143 27AC  
                                                   i2l144 2788  
                                                   i2l138 271C  
                                                   i2l148 27AC  
                                         ___awdiv@counter 053F  
                              __end_of_i2c1_fsmStateTable 2627  
                                                   _OSCEN 0000B3  
                                                   _TMR0H 000319  
                                                   _TMR1H 00031D  
                                                   _TMR0L 000318  
                                                   _TMR1L 00031C  
                                                   _TRISA 0004C6  
                                                   _TRISB 0004C7  
                                          ?_INT0_CallBack 0533  
                                                   _TRISC 0004C8  
                                                   _TRISE 0004CA  
                       __size_of_TMR0_SetInterruptHandler 000A  
                               ?_TMR0_SetInterruptHandler 0535  
                                       ??_I2C1_Initialize 0535  
                                __size_of_CAN1_Initialize 0044  
                                        __end_of_TMR0_ISR 2DD0  
                                        __end_of_TMR1_ISR 2BB2  
                                          ?_INT1_CallBack 0533  
                          ??_INT1_DefaultInterruptHandler 0533  
                                          ?_INT2_CallBack 0533  
                                _INT1_SetInterruptHandler 2E82  
                                 __end_of_TMR1_Initialize 2AC4  
                                                   pclath 0004FA  
                                                   tablat 0004F5  
                                                   status 0004D8  
                                         _TMR1_WriteTimer 2C48  
                                            __end_of_FIFO 2632  
                                         __initialization 2BB2  
                                       __end_of_DLC_BYTES 2630  
                                            __end_of_main 2B44  
                             ?_INTERRUPT_InterruptManager 0533  
                                                  ??_main 0547  
                               __size_of_ReluctorFreqRead 008A  
                                           __activetblptr 000003  
                                                  _C1CONH 000101  
                                                  _C1CONL 000100  
                                                  _C1CONU 000102  
                                                  _ADACCH 0003E4  
                                                  _ADACCL 0003E3  
                                                  _ADACCU 0003E5  
                                                  _ADACQH 0003EF  
                                                  _ADACQL 0003EE  
                                                  _ADCON0 0003F3  
                                                  _ADCON1 0003F4  
                                                  _ADCON2 0003F5  
                                                  _ADCON3 0003F6  
                               __size_of_ReluctorPosCount 001A  
                                                  _ADERRH 0003DE  
                                                  _ADERRL 0003DD  
                                                  _ADLTHH 0003DA  
                                                  _ADLTHL 0003D9  
                                                  _ADRESH 0003EB  
                                                  _ADRESL 0003EA  
                                                  _ADPREH 0003F2  
                                                  _ADPREL 0003F1  
                                                  _ADSTAT 0003F7  
                                                  _ADUTHH 0003DC  
                                        ___awdiv@dividend 053B  
                                                  _ADUTHL 0003DB  
                                                  _ANSELA 000400  
                                                  _ANSELB 000408  
                                                  _ANSELC 000410  
                                                  _T0CON0 00031A  
                                                  _T0CON1 00031B  
                                                  _T1GATE 000320  
                                                  _T1GCON 00031F  
                                                  _RB4PPS 00020D  
                                                  _RC3PPS 000214  
                                 TMR1_WriteTimer@timerVal 0533  
                                                  _RC4PPS 000215  
                                                  _ODCONA 000402  
                                                  _ODCONB 00040A  
                                                  _ODCONC 000412  
                                                  i2l1014 2ED4  
                                                  i2l1031 2D50  
                                                  i2l1024 2EE6  
                                                  i2l1040 2EC4  
                                                  i2l1018 2C18  
                                                  i2l1050 2EE2  
                                                  i2l1027 2ECC  
                                                  i2l1044 2D24  
                                                  i2l1037 2EE4  
                                                  i2l2200 2BE6  
                                                  i2l1320 2CF8  
                                                  i2l2122 2EDA  
                                                  i2l2130 2E34  
                                                  i2l2202 2BEA  
                                                  i2l2210 2D38  
                                                  i2l1243 2C74  
                                                  i2l2124 2E1E  
                                                  i2l2204 2BEE  
                                                  i2l2212 2CFA  
                                                  i2l1316 2DCE  
                                                  i2l2126 2E20  
                                                  i2l2206 2C00  
                                                  i2l2214 2D0C  
                                                  i2l1326 2EE0  
                                                  i2l1262 2CCC  
                                                  i2l1184 2EDC  
                                                  i2l2128 2E30  
                                                  i2l2208 2D26  
                                                  i2l1193 2E36  
                                                  i2l1258 2BB0  
                                                  i2l1268 2EDE  
                                                  i2l2280 2CE0  
                                                  i2l2360 2DC6  
                                                  i2l2362 2ECE  
                                                  i2l2370 2EBE  
                                                  i2l2354 2DA6  
                                                  i2l2274 2CA2  
                                                  i2l3330 2C48  
                                                  i2l2364 2ED0  
                                                  i2l2372 2EC0  
                                                  i2l2356 2DA8  
                                                  i2l2276 2CB4  
                                                  i2l3332 2C58  
                                                  i2l3340 2C6A  
                                                  i2l3420 2B8A  
                                                  i2l2366 2EC6  
                                                  i2l2278 2CCE  
                                                  i2l2358 2DC2  
                                                  i2l3342 2C6E  
                                                  i2l3334 2C5A  
                                                  i2l3422 2BA4  
                                                  i2l2368 2EC8  
                                                  i2l3336 2C5E  
                                                  i2l3424 2BA8  
                                                  i2l3416 2B7C  
                                                  i2l3338 2C64  
                                                  i2l3418 2B7E  
                                                  i2l3480 2738  
                                                  i2l3472 26F8  
                                                  i2l3490 2796  
                                                  i2l3482 274E  
                                                  i2l3474 2706  
                                                  i2l3492 27A4  
                                                  i2l3484 275C  
                                                  i2l3476 2714  
                                                  i2l3486 2772  
                                                  i2l3478 272A  
                                                  i2l3488 2780  
                                                  _INLVLA 000404  
                                                  _INLVLB 00040C  
                                                  _INLVLC 000414  
                                                  _INLVLE 000424  
                                 ??_CAN1_OperationModeGet 0535  
                                                  _OSCFRQ 0000B1  
                                 ??_CAN1_OperationModeSet 0535  
                                                  i2u8_40 2E30  
                                                  i2u8_41 2E2C  
                                         _ReluctorPosRead 2A30  
                                        _I2C1_DO_RX_EMPTY 000000  
                                      _ADC_DefaultADI_ISR 000000  
                                        _I2C1_DO_TX_EMPTY 000000  
                             ??_CAN1_BitRateConfiguration 0535  
                    __end_of_TMR1_DefaultInterruptHandler 2EE0  
                   __size_of_TMR1_DefaultInterruptHandler 0002  
                            _TMR1_DefaultInterruptHandler 2EDE  
                                                  ___wmul 2D7C  
                                               ??___awdiv 053F  
                                               ??___lwdiv 053F  
                                        ?_TMR0_Initialize 0533  
                                                  clear_0 2BCC  
                                        ___awdiv@quotient 0541  
                                                  isa$std 000001  
                                         ??_INT0_CallBack 0533  
                                   _I2C1_DO_SEND_ADR_READ 000000  
                                          _PMD_Initialize 2DD0  
                    __end_of_INT2_DefaultInterruptHandler 2EE4  
                   __size_of_INT2_DefaultInterruptHandler 0002  
                            _INT2_DefaultInterruptHandler 2EE2  
                                            __pdataCOMRAM 0559  
                                         ??_INT1_CallBack 0533  
                                            __mediumconst 0000  
                                                  tblptrh 0004F7  
                                                  tblptrl 0004F6  
                                                  tblptru 0004F8  
                                         ??_INT2_CallBack 0533  
                                   __end_of_TMR0_CallBack 2CFA  
                                         _ucReluctorState 052D  
                TMR0_SetInterruptHandler@InterruptHandler 0535  
                TMR1_SetInterruptHandler@InterruptHandler 0535  
                INT2_SetInterruptHandler@InterruptHandler 0535  
                INT1_SetInterruptHandler@InterruptHandler 0535  
                INT0_SetInterruptHandler@InterruptHandler 0535  
ADC_SetActiveClockTuningInterruptHandler@InterruptHandler 0535  
ADC_SetContext1ThresholdInterruptHandler@InterruptHandler 0535  
              ADC_SetADIInterruptHandler@InterruptHandler 0535  
                                 __end_of_TMR1_WriteTimer 2C76  
                                 _I2C1_DO_RX_NACK_RESTART 000000  
                           __size_of_INTERRUPT_Initialize 0004  
                                   __end_of_TMR1_CallBack 2CCE  
                                        ?_TMR1_Initialize 0533  
                                       _SYSTEM_Initialize 2D52  
                                              __accesstop 0560  
                                 __end_of__initialization 2BE0  
                                       ??_CAN1_Initialize 0538  
                                               ?_INT0_ISR 0533  
                                               ?_INT1_ISR 0533  
                                               ?_INT2_ISR 0533  
                                      ?_SYSTEM_Initialize 0533  
                                           ___rparam_used 000001  
                                 _rdBlkRegCompleteHandler 000000  
                                          __pcstackCOMRAM 0533  
                                     ??_SYSTEM_Initialize 0539  
                                               ?_TMR0_ISR 0533  
                                               ?_TMR1_ISR 0533  
                         fp__TMR1_DefaultInterruptHandler 0000  
                           ?_TMR1_DefaultInterruptHandler 0533  
                                  __end_of_PMD_Initialize 2DF8  
                             __size_of_EXT_INT_Initialize 0038  
                                   TMR0_ISR@CountCallBack 0525  
                               _CAN1_BitRateConfiguration 2E50  
        __end_of_ADC_SetActiveClockTuningInterruptHandler 2EB4  
       __size_of_ADC_SetActiveClockTuningInterruptHandler 000A  
              ??_ADC_SetActiveClockTuningInterruptHandler 0537  
               ?_ADC_SetActiveClockTuningInterruptHandler 0535  
                _ADC_SetActiveClockTuningInterruptHandler 2EAA  
                        __end_of_INT2_SetInterruptHandler 2E82  
                         fp__INT2_DefaultInterruptHandler 0000  
                           ?_INT2_DefaultInterruptHandler 0533  
                            ??_ADC_SetADIInterruptHandler 0537  
                                 __end_of_ReluctorPosRead 2A7E  
                                       _I2C1_DO_BUS_ERROR 000000  
                               __end_of_SYSTEM_Initialize 2D7C  
                                      _DELAY_milliseconds 2C1A  
                                   _INT0_InterruptHandler 0551  
                                              ??_INT0_ISR 0533  
                                              ??_INT1_ISR 0533  
                                              ??_INT2_ISR 0533  
                                              __pnvCOMRAM 0547  
                                   _rd1RegCompleteHandler 000000  
                                                 IVTBASEH 00045E  
                                                 IVTBASEL 00045D  
                                                 IVTBASEU 00045F  
                                       _I2C1_DO_SEND_STOP 000000  
                                   _wr1RegCompleteHandler 000000  
                                     ?_DELAY_milliseconds 0535  
                        __end_of_TMR0_SetInterruptHandler 2E78  
                                                 _I2C1CLK 00029E  
                                                 _I2C1ERR 000297  
                                                 _I2C1PIE 00029B  
                                                 ?___wmul 0535  
                                                 _I2C1PIR 00029A  
                                                 _I2C1RXB 00028A  
                                              ??_TMR0_ISR 0533  
                                                 _I2C1TXB 00028B  
                                              ??_TMR1_ISR 0535  
                                      _ucCountVueltaRueda 0530  
                                              _ucKPHData1 052F  
                                              _ucKPHData2 052E  
                                         _I2C1_Initialize 2C76  
                                                 _ADCSEL1 0003FC  
                                                 _ADFLTRH 0003E2  
                                                 _ADFLTRL 0003E1  
                     __size_of_ADC_SetADIInterruptHandler 000A  
                                                 _ADPREVH 0003E9  
                                                 _ADPREVL 0003E8  
                                               _C1NBTCFGH 000105  
                                               _C1NBTCFGL 000104  
                                                 _ADSTPTH 0003E0  
                                                 _ADSTPTL 0003DF  
                                               _C1NBTCFGT 000107  
                                               _C1NBTCFGU 000106  
                                         ?_PMD_Initialize 0533  
                                        _ReluctorFreqRead 285A  
                                 __size_of_ADC_Initialize 00AC  
                              ??_INT1_SetInterruptHandler 0537  
                                                 _INT0PPS 00023E  
                                                 _INT1PPS 00023F  
                                                 _INT2PPS 000240  
                                    ??_DELAY_milliseconds 0537  
                                                 _OSCCON1 0000AD  
                                                 _OSCCON3 0000AF  
                                                 i2u11_40 2C00  
                                                 i2u11_41 2BFC  
                                                 i2u20_40 2CE0  
                                                 i2u20_41 2CDC  
                                                 i2u12_48 2C06  
                                                 i2u13_40 2D38  
                                                 i2u12_49 2C18  
                                                 i2u13_41 2D34  
                                                 i2u21_48 2CE6  
                                                 i2u21_49 2CF8  
                                                 i2u14_48 2D3E  
                                                 i2u15_40 2D0C  
                                                 i2u31_40 2DC2  
                                                 i2u14_49 2D50  
                                                 i2u15_41 2D08  
                                                 i2u31_41 2DBE  
                                                 i2u16_48 2D12  
                                                 i2u16_49 2D24  
                                                 i2u18_40 2CB4  
                                                 i2u18_41 2CB0  
                                                 i2u19_48 2CBA  
                                                 i2u19_49 2CCC  
                                                 _OSCTUNE 0000B0  
                                                 _SLRCONA 000403  
                                                 _SLRCONB 00040B  
                                                 _SLRCONC 000413  
                                        _ReluctorPosCount 2E1E  
                                        _uiMeterPerSecond 052B  
                                        ?_TMR1_WriteTimer 0533  
                              _ADC_ConversionComplete_ISR 0557  
                                      _i2c1_fsmStateTable 2601  
                       __size_of_INT0_SetInterruptHandler 000A  
                               ?_INT0_SetInterruptHandler 0535  
                                              _ucCountPos 0531  
                                                 __Hparam 0000  
                                                 __Lparam 0000  
                                                 ___awdiv 2634  
                                         __size_of___wmul 002A  
                                                 ___lwdiv 2964  
                                            __psmallconst 2600  
                                               _DLC_BYTES 2627  
                                                 __pcinit 2BB2  
                                                 __ramtop 2600  
                                                 __ptext0 2B08  
                                                 __ptext1 2D52  
                                                 __ptext2 2A7E  
                                                 __ptext3 2E64  
                                                 __ptext4 2DF8  
                                                 __ptext5 2E6E  
                                                 __ptext6 2DD0  
                                                 __ptext7 28E4  
                                                 __ptext8 2E38  
                                                 __ptext9 2ED6  
                          ??_TMR1_DefaultInterruptHandler 0533  
                                               _T1CONbits 00031E  
                                   _OSCILLATOR_Initialize 2E38  
                                             _I2C1ERRbits 000297  
                       __size_of_TMR1_SetInterruptHandler 000A  
                                ??_PIN_MANAGER_Initialize 0535  
                                             _I2C1PIEbits 00029B  
                               ?_TMR1_SetInterruptHandler 0535  
                                             _I2C1PIRbits 00029A  
                                               _PIE10bits 0004A8  
                                        ?_ReluctorPosRead 0543  
                              __size_of_SYSTEM_Initialize 002A  
                                    end_of_initialization 2BE0  
                                _INT2_SetInterruptHandler 2E78  
                          ??_INT2_DefaultInterruptHandler 0533  
                                               _PIR10bits 0004B8  
                                             _C1TRECUbits 000136  
                                  _I2C1_DO_SEND_ADR_WRITE 000000  
                          __size_of_CAN1_OperationModeGet 000A  
                          __size_of_CAN1_OperationModeSet 0058  
                           __end_of_CAN1_OperationModeGet 2EA0  
                           __end_of_CAN1_OperationModeSet 2A30  
                                 __end_of_I2C1_Initialize 2CA2  
                                             _I2C1_Status 0501  
                                                 postinc0 0004EE  
                              _I2C1_DO_SEND_RESTART_WRITE 000000  
                                _TMR0_SetInterruptHandler 2E6E  
                                   _INT1_InterruptHandler 054F  
                      __end_of_ADC_SetADIInterruptHandler 2EBE  
                              _ADC_SetADIInterruptHandler 2EB4  
                                         _CAN1_Initialize 2AC4  
                                               _TRISAbits 0004C6  
                                               _TRISBbits 0004C7  
                                             _ADCSEL1bits 0003FC  
                                       __size_of_INT0_ISR 0008  
                                       __size_of_INT1_ISR 0008  
                                       __size_of_INT2_ISR 0008  
                            __end_of_INTERRUPT_Initialize 2EDA  
                    __end_of_INT0_DefaultInterruptHandler 2EE8  
                   __size_of_INT0_DefaultInterruptHandler 0002  
                            _INT0_DefaultInterruptHandler 2EE6  
                                          __end_of___wmul 2DA6  
                                          _I2C1_DO_RX_ACK 000000  
                                          _I2C1_DO_TX_ACK 000000  
                                           __pidataCOMRAM 2EE8  
                                       __size_of_TMR0_ISR 002A  
                                       __size_of_TMR1_ISR 0036  
                                          _ADC_Initialize 27AE  
                                  ?_OSCILLATOR_Initialize 0533  
                                   __end_of_INT0_CallBack 2C1A  
                                     start_initialization 2BB2  
                                __size_of_TMR0_Initialize 0026  
                         __size_of_PIN_MANAGER_Initialize 0080  
                                   __end_of_INT1_CallBack 2D52  
                                              ivt0x8_base 0008  
                                   __end_of_INT2_CallBack 2D26  
                                __end_of_ReluctorFreqRead 28E4  
                                        ?_I2C1_Initialize 0533  
                                __size_of_TMR1_Initialize 0046  
                                        ??_PMD_Initialize 0535  
                                                ??___wmul 0539  
                                __end_of_ReluctorPosCount 2E38  
        __end_of_ADC_SetContext1ThresholdInterruptHandler 2EAA  
       __size_of_ADC_SetContext1ThresholdInterruptHandler 000A  
              ??_ADC_SetContext1ThresholdInterruptHandler 0537  
               ?_ADC_SetContext1ThresholdInterruptHandler 0535  
                _ADC_SetContext1ThresholdInterruptHandler 2EA0  
                                  __size_of_TMR0_CallBack 002C  
                                  __end_of_ADC_Initialize 285A  
                                 __end_of_CAN1_Initialize 2B08  
                              __end_of_EXT_INT_Initialize 2B7C  
                         fp__INT0_DefaultInterruptHandler 0000  
                           ?_INT0_DefaultInterruptHandler 0533  
                                  __size_of_TMR1_CallBack 002C  
                                   TMR1_ISR@CountCallBack 0527  
                                             __pbssCOMRAM 0501  
                                    _I2C1_DO_SEND_RESTART 000000  
                        __end_of_INT0_SetInterruptHandler 2E96  
                                   _INT2_InterruptHandler 054D  
                                   _TMR0_InterruptHandler 0547  
                                   _rd2RegCompleteHandler 000000  
                                        ___lwdiv@dividend 053B  
                                  _PIN_MANAGER_Initialize 28E4  
                                   _wr2RegCompleteHandler 000000  
                                                _C1FIFOBA 00014C  
                        __end_of_TMR1_SetInterruptHandler 2E6E  
                                                ?___awdiv 053B  
                                                ?___lwdiv 053B  
                                                _I2C1BAUD 00029D  
                                                _I2C1CON0 000294  
                                                _I2C1CON1 000295  
                                                _I2C1CON2 000296  
                                         ?_ADC_Initialize 0533  
                                                _I2C1CNTH 00028D  
                                                _I2C1CNTL 00028C  
                            ??_INTERRUPT_InterruptManager 0535  
                                                _ADACTPPS 000269  
                                         _uiKmeterPerHour 0529  
                                             __smallconst 2600  
                              ??_INT2_SetInterruptHandler 0537  
                                                _ADCPbits 0003D8  
                                              _C1CONHbits 000101  
                        CAN1_OperationModeSet@requestMode 0537  
                                                _CANRXPPS 00023D  
                                              _C1CONTbits 000103  
                                              _C1CONUbits 000102  
                             __size_of_DELAY_milliseconds 002E  
                                        ___lwdiv@quotient 053F  
                                       _ReluctorFreqCount 2EDA  
                                           _TMR0_CallBack 2CCE  
                                               _ucWheelID 0559  
                                              _C1INTHbits 00011D  
                                    _INTERRUPT_Initialize 2ED6  
                                              _I2C1SDAPPS 000270  
                                              _C1INTTbits 00011F  
                                              _I2C1SCLPPS 000271  
                                      ?_ReluctorFreqCount 0533  
                                           _TMR1_CallBack 2CA2  
                                       ??_TMR0_Initialize 0537  
                                                _INT0_ISR 2ECE  
                                                _INT1_ISR 2EC6  
                                                _INT2_ISR 2EBE  
                                          ___wmul@product 0539  
                                                _LATAbits 0004BE  
                                              _I2C1_DO_RX 000000  
                                              _I2C1_DO_TX 000000  
                       __size_of_INT1_SetInterruptHandler 000A  
                               ?_INT1_SetInterruptHandler 0535  
                                                _PIE1bits 00049F  
                                                _PIE3bits 0004A1  
                                                _PIE6bits 0004A4  
                                                _PIE7bits 0004A5  
                                __size_of_TMR1_WriteTimer 002E  
                                                i2u121_40 2706  
                                                i2u121_41 2702  
                                     ??_ReluctorFreqCount 0533  
                                                i2u130_40 27A4  
                                                i2u122_40 2714  
                                                i2u130_41 27A0  
                                                i2u122_41 2710  
                                                i2u123_40 272A  
                                                i2u123_41 2726  
                                                i2u108_40 2C58  
                                                i2u124_40 2738  
                                                i2u108_41 2C54  
                                                i2u124_41 2734  
                                                i2u125_40 274E  
                                                i2u125_41 274A  
                                                i2u118_40 2BA4  
                                                i2u126_40 275C  
                                                i2u118_41 2BA0  
                                                i2u126_41 2758  
                                                i2u127_40 2772  
                                                i2u127_41 276E  
                     __size_of_INTERRUPT_InterruptManager 00B6  
                                                i2u128_40 2780  
                                                i2u128_41 277C  
                                                i2u129_40 2796  
                                                i2u129_41 2792  
                              ??_TMR0_SetInterruptHandler 0537  
                                           _I2C1STAT1bits 000299  
                                                _PIR1bits 0004AF  
                                                _PIR2bits 0004B0  
                                                _PIR3bits 0004B1  
                                                _PIR6bits 0004B4  
                                                _PIR7bits 0004B5  
                               _ADC_ActiveClockTuning_ISR 0553  
                          DELAY_milliseconds@milliseconds 0535  
                               _I2C1_DO_SEND_RESTART_READ 000000  
                        _ADC_DefaultActiveClockTuning_ISR 000000  
                                                _TMR0_ISR 2DA6  
                                                _TMR1_ISR 2B7C  
                                        ?_CAN1_Initialize 0533  
                                       ??_TMR1_Initialize 0537  
                                              _ADCON0bits 0003F3  
                                              _ADCON1bits 0003F4  
                                              _ADCON2bits 0003F5  
                                              _ADCON3bits 0003F6  
                                       ___wmul@multiplier 0535  
                             ?_ADC_SetADIInterruptHandler 0535  
                               __end_of_ReluctorFreqCount 2EDE  
                          ??_INT0_DefaultInterruptHandler 0533  
                                          ?_TMR0_CallBack 0533  
                                           _I2C1_DO_RESET 000000  
                                             _INTCON0bits 0004D6  
                                   ?_INTERRUPT_Initialize 0533  
                                _INT0_SetInterruptHandler 2E8C  
                                          ?_TMR1_CallBack 0533  
                                             _ucCountFreq 0532  
                                __size_of_ReluctorPosRead 004E  
                                              _ADSTATbits 0003F7  
                                                __Hrparam 0000  
                                   _CAN1_OperationModeGet 2E96  
                                                __Lrparam 0000  
                                   _CAN1_OperationModeSet 29D8  
                                 ??_OSCILLATOR_Initialize 0535  
                                        __size_of___awdiv 00C4  
                                        __size_of___lwdiv 0074  
                                _TMR1_SetInterruptHandler 2E64  
                                   _TMR1_InterruptHandler 0549  
                                              _T0CON0bits 00031A  
                               _ADC_Context1Thereshld_ISR 0555  
                                            _I2C1CON0bits 000294  
                                            _I2C1CON1bits 000295  
                                                __pivt0x8 0008  
                                         ___lwdiv@divisor 053D  
                                         ___lwdiv@counter 0541  
                                                __ptext10 2C76  
                                                __ptext11 2B44  
                                                __ptext20 2EA0  
                                                __ptext12 2E78  
                                                __ptext21 2EAA  
                                                __ptext13 2E82  
                                              _T1GCONbits 00031F  
                                                __ptext30 2B7C  
                                                __ptext22 2EB4  
                                                __ptext14 2E8C  
                                                __ptext31 2C48  
                                                __ptext23 2A30  
                                                __ptext15 2AC4  
                                                __ptext40 2EC6  
                                                __ptext32 2CA2  
                                                __ptext24 2634  
                                                __ptext16 29D8  
                                                __ptext41 2D26  
                                                __ptext33 2EDE  
                                                __ptext25 285A  
                                                __ptext17 2E96  
                                                __ptext42 2EE4  
                                                __ptext34 2DA6  
                                                __ptext26 2D7C  
                                                __ptext18 2E50  
                                                __ptext43 2ECE  
                                                __ptext35 2CCE  
                                                __ptext27 2964  
                                                __ptext19 27AE  
                                                __ptext44 2BE6  
                                                __ptext36 2EE0  
                                                __ptext28 2C1A  
                                                __ptext45 2E1E  
                                                __ptext37 2EBE  
                                                __ptext29 26F8  
                                                __ptext46 2EDA  
                                                __ptext38 2CFA  
                                                __ptext47 2EE6  
                                                __ptext39 2EE2  
                                                __ptext48 0000  
                             CAN1_OperationModeSet@opMode 0535  
                                   _I2C1_DO_BUS_COLLISION 000000  
                             CAN1_OperationModeSet@status 0536  
                                _I2C1_CallbackReturnReset 000000  
                                           __size_of_main 003C  
                                       ?_ReluctorFreqRead 0533  
                    __end_of_TMR0_DefaultInterruptHandler 2EE2  
                   __size_of_TMR0_DefaultInterruptHandler 0002  
                            _TMR0_DefaultInterruptHandler 2EE0  
                                      ??_ReluctorFreqRead 0542  
                                                isa$xinst 000000  
                                       ?_ReluctorPosCount 0533  
                      __end_of_INTERRUPT_InterruptManager 27AE  
                              _INTERRUPT_InterruptManager 26F8  
                                       ??_TMR1_WriteTimer 0535  
                                            _I2C1_DO_IDLE 000000  
                                      ??_ReluctorPosCount 0533  
                    __end_of_INT1_DefaultInterruptHandler 2EE6  
                   __size_of_INT1_DefaultInterruptHandler 0002  
                            _INT1_DefaultInterruptHandler 2EE4  
                                         ??_TMR0_CallBack 0533  
                              __size_of_ReluctorFreqCount 0004  
                                  ??_INTERRUPT_Initialize 0535  
                                         ??_TMR1_CallBack 0533  
                                      _EXT_INT_Initialize 2B44  
                                                intlevel2 0000  
                                 ?_PIN_MANAGER_Initialize 0533  
                                     ?_EXT_INT_Initialize 0533  
                      __size_of_CAN1_BitRateConfiguration 0014  
                                 _I2C1_CallbackReturnStop 000000  
                                  ?_CAN1_OperationModeGet 0533  
                              ?_CAN1_BitRateConfiguration 0533  
                                  ?_CAN1_OperationModeSet 0533  
                                        ??_ADC_Initialize 0537  
                                  __size_of_INT0_CallBack 0034  
                         fp__TMR0_DefaultInterruptHandler 0000  
                           ?_TMR0_DefaultInterruptHandler 0533  
                                    _I2C1_DO_ADDRESS_NACK 000000  
                                  __size_of_INT1_CallBack 002C  
                                       ??_ReluctorPosRead 0545  
                                  __size_of_INT2_CallBack 002C  
                                __size_of_I2C1_Initialize 002C  
                                    ??_EXT_INT_Initialize 0537  
                         fp__INT1_DefaultInterruptHandler 0000  
                           ?_INT1_DefaultInterruptHandler 0533  
                                         _TMR0_Initialize 2DF8  
                        __end_of_INT1_SetInterruptHandler 2E8C  
                          __end_of_PIN_MANAGER_Initialize 2964  
                        _ADC_DefaultContext1Threshold_ISR 000000  
                                         _TMR1_Initialize 2A7E  
                       __end_of_CAN1_BitRateConfiguration 2E64  
