

Microchip MPLAB XC8 Assembler V2.31 build 20201012212115 
                                                                                               Sat Oct 30 14:51:23 2021

Microchip MPLAB XC8 C Compiler v2.31 (Free license) build 20201012212115 Og1 
     1                           	processor	18F26Q84
     2                           	fnconf	rparam,??,?,0
     3                           	pagewidth 120
     4                           	opt	flic
     5                           	psect	idataBANK5,global,class=CODE,delta=1,noexec
     6                           	psect	smallconst,global,reloc=2,class=SMALLCONST,delta=1,noexec
     7                           	psect	nvCOMRAM,global,class=COMRAM,space=1,delta=1,lowdata,noexec
     8                           	psect	nvBANK5,global,class=BANK5,space=1,delta=1,lowdata,noexec
     9                           	psect	cinit,global,reloc=2,class=CODE,delta=1
    10                           	psect	bssCOMRAM,global,class=COMRAM,space=1,delta=1,lowdata,noexec
    11                           	psect	bssBANK5,global,class=BANK5,space=1,delta=1,lowdata,noexec
    12                           	psect	dataBANK5,global,class=BANK5,space=1,delta=1,lowdata,noexec
    13                           	psect	cstackBANK5,global,class=BANK5,space=1,delta=1,lowdata,noexec
    14                           	psect	cstackCOMRAM,global,class=COMRAM,space=1,delta=1,lowdata,noexec
    15                           	psect	text0,global,reloc=2,class=CODE,delta=1
    16                           	psect	text1,global,reloc=2,class=CODE,delta=1
    17                           	psect	text2,global,reloc=2,class=CODE,delta=1
    18                           	psect	text3,global,reloc=2,class=CODE,delta=1
    19                           	psect	text4,global,reloc=2,class=CODE,delta=1
    20                           	psect	text5,global,reloc=2,class=CODE,delta=1
    21                           	psect	text6,global,reloc=2,class=CODE,delta=1
    22                           	psect	text7,global,reloc=2,class=CODE,delta=1
    23                           	psect	text8,global,reloc=2,class=CODE,delta=1
    24                           	psect	text9,global,reloc=2,class=CODE,delta=1
    25                           	psect	text10,global,reloc=2,class=CODE,delta=1
    26                           	psect	text11,global,reloc=2,class=CODE,delta=1
    27                           	psect	text12,global,reloc=2,class=CODE,delta=1
    28                           	psect	text13,global,reloc=2,class=CODE,delta=1
    29                           	psect	text14,global,reloc=2,class=CODE,delta=1
    30                           	psect	text15,global,reloc=2,class=CODE,delta=1
    31                           	psect	text16,global,reloc=2,class=CODE,delta=1
    32                           	psect	text17,global,reloc=2,class=CODE,delta=1
    33                           	psect	text18,global,reloc=2,class=CODE,delta=1
    34                           	psect	text19,global,reloc=2,class=CODE,delta=1
    35                           	psect	text20,global,reloc=2,class=CODE,delta=1
    36                           	psect	text21,global,reloc=2,class=CODE,delta=1
    37                           	psect	text22,global,reloc=2,class=CODE,delta=1
    38                           	psect	text23,global,reloc=2,class=CODE,delta=1
    39                           	psect	text24,global,reloc=2,class=CODE,delta=1
    40                           	psect	text25,global,reloc=2,class=CODE,delta=1
    41                           	psect	text26,global,reloc=2,class=CODE,delta=1
    42                           	psect	text27,global,reloc=2,class=CODE,delta=1
    43                           	psect	text28,global,reloc=2,class=CODE,delta=1
    44                           	psect	text29,global,reloc=2,class=CODE,delta=1
    45                           	psect	text30,global,reloc=2,class=CODE,delta=1
    46                           	psect	text31,global,reloc=2,class=CODE,delta=1
    47                           	psect	text32,global,reloc=2,class=CODE,delta=1
    48                           	psect	text33,global,reloc=2,class=CODE,delta=1
    49                           	psect	text34,global,reloc=2,class=CODE,delta=1
    50                           	psect	text35,global,reloc=2,class=CODE,delta=1
    51                           	psect	text36,global,reloc=2,class=CODE,delta=1
    52                           	psect	text37,global,reloc=2,class=CODE,delta=1
    53                           	psect	text38,global,reloc=2,class=CODE,delta=1
    54                           	psect	text39,global,reloc=2,class=CODE,delta=1
    55                           	psect	text40,global,reloc=2,class=CODE,delta=1
    56                           	psect	text41,global,reloc=2,class=CODE,delta=1,group=1
    57                           	psect	text42,global,reloc=2,class=CODE,delta=1,group=1
    58                           	psect	text43,global,reloc=2,class=CODE,delta=1,group=1
    59                           	psect	text44,global,reloc=2,class=CODE,delta=1
    60                           	psect	text45,global,reloc=2,class=CODE,delta=1
    61                           	psect	text46,global,reloc=2,class=CODE,delta=1
    62                           	psect	text47,global,reloc=2,class=CODE,delta=1
    63                           	psect	text48,global,reloc=2,class=CODE,delta=1
    64                           	psect	text49,global,reloc=2,class=CODE,delta=1
    65                           	psect	text50,global,reloc=2,class=CODE,delta=1
    66                           	psect	text51,global,reloc=2,class=CODE,delta=1,group=2
    67                           	psect	text52,global,reloc=2,class=CODE,delta=1
    68                           	psect	text53,global,reloc=2,class=CODE,delta=1
    69                           	psect	text54,global,reloc=2,class=CODE,delta=1
    70                           	psect	text55,global,reloc=2,class=CODE,delta=1
    71                           	psect	text56,global,reloc=2,class=CODE,delta=1
    72                           	psect	text57,global,reloc=2,class=CODE,delta=1
    73                           	psect	text58,global,reloc=2,class=CODE,delta=1
    74                           	psect	text59,global,reloc=2,class=CODE,delta=1
    75                           	psect	text60,global,reloc=2,class=CODE,delta=1
    76                           	psect	text61,global,reloc=2,class=CODE,delta=1
    77                           	psect	text62,global,reloc=2,class=CODE,delta=1
    78                           	psect	text63,global,reloc=2,class=CODE,delta=1
    79                           	psect	text64,global,reloc=2,class=CODE,delta=1
    80                           	psect	text65,global,reloc=2,class=CODE,delta=1
    81                           	psect	text66,global,reloc=2,class=CODE,delta=1
    82                           	psect	text67,global,reloc=2,class=CODE,delta=1
    83                           	psect	text68,global,reloc=2,class=CODE,delta=1
    84                           	psect	text69,global,reloc=2,class=CODE,delta=1
    85                           	psect	text70,global,reloc=2,class=CODE,delta=1
    86                           	psect	ivt0x8,global,reloc=2,class=CODE,delta=1,noexec,keep,optim=
    87                           	psect	intsave_regs,global,class=BIGRAM,space=1,delta=1,noexec
    88                           	psect	text71,global,reloc=2,class=CODE,delta=1
    89                           	psect	rparam,global,class=COMRAM,space=1,delta=1,noexec
    90                           	psect	idloc,global,abs,ovrld,class=IDLOC,space=5,delta=1,noexec
    91                           	psect	config,global,abs,ovrld,class=CONFIG,space=4,delta=1,noexec
    92  0000                     
    93                           ; Version 2.35
    94                           ; Generated 04/06/2021 GMT
    95                           ; 
    96                           ; Copyright © 2021, Microchip Technology Inc. and its subsidiaries ("Microchip")
    97                           ; All rights reserved.
    98                           ; 
    99                           ; This software is developed by Microchip Technology Inc. and its subsidiaries ("Microch
      +                          ip").
   100                           ; 
   101                           ; Redistribution and use in source and binary forms, with or without modification, are
   102                           ; permitted provided that the following conditions are met:
   103                           ; 
   104                           ;     1. Redistributions of source code must retain the above copyright notice, this lis
      +                          t of
   105                           ;        conditions and the following disclaimer.
   106                           ; 
   107                           ;     2. Redistributions in binary form must reproduce the above copyright notice, this 
      +                          list
   108                           ;        of conditions and the following disclaimer in the documentation and/or other
   109                           ;        materials provided with the distribution. Publication is not required when
   110                           ;        this file is used in an embedded application.
   111                           ; 
   112                           ;     3. Microchip's name may not be used to endorse or promote products derived from th
      +                          is
   113                           ;        software without specific prior written permission.
   114                           ; 
   115                           ; THIS SOFTWARE IS PROVIDED BY MICROCHIP "AS IS" AND ANY EXPRESS OR IMPLIED WARRANTIES,
   116                           ; INCLUDING, BUT NOT LIMITED TO, THE IMPLIED WARRANTIES OF MERCHANTABILITY AND FITNESS F
      +                          OR
   117                           ; PURPOSE ARE DISCLAIMED.  IN NO EVENT SHALL MICROCHIP BE LIABLE FOR ANY DIRECT, INDIREC
      +                          T,
   118                           ; INCIDENTAL, SPECIAL, EXEMPLARY, OR CONSEQUENTIAL DAMAGES (INCLUDING BUT NOT LIMITED TO
   119                           ; PROCUREMENT OF SUBSTITUTE GOODS OR SERVICES; LOSS OF USE, DATA OR PROFITS; OR BUSINESS
   120                           ; INTERRUPTION) HOWSOEVER CAUSED AND ON ANY THEORY OF LIABILITY, WHETHER IN CONTRACT, ST
      +                          RICT
   121                           ; LIABILITY, OR TORT (INCLUDING NEGLIGENCE OR OTHERWISE) ARISING IN ANY WAY OUT OF THE U
      +                          SE OF
   122                           ; THIS SOFTWARE, EVEN IF ADVISED OF THE POSSIBILITY OF SUCH DAMAGE.
   123                           ; 
   124                           ; 
   125                           ; Code-generator required, PIC18F26Q84 Definitions
   126                           ; 
   127                           ; SFR Addresses
   128  0000                     
   129 ;; Function _rd1RegCompleteHandler is unused but had its address taken
   130  0000                     
   131 ;; Function _rd2RegCompleteHandler is unused but had its address taken
   132  0000                     
   133 ;; Function _wr1RegCompleteHandler is unused but had its address taken
   134  0000                     
   135 ;; Function _wr2RegCompleteHandler is unused but had its address taken
   136  0000                     
   137 ;; Function _rdBlkRegCompleteHandler is unused but had its address taken
   138  0000                     
   139 ;; Function _ADC_DefaultADI_ISR is unused but had its address taken
   140  0000                     
   141 ;; Function _ADC_DefaultContext1Threshold_ISR is unused but had its address taken
   142  0000                     
   143 ;; Function _ADC_DefaultActiveClockTuning_ISR is unused but had its address taken
   144  0000                     
   145 ;; Function _I2C1_DO_IDLE is unused but had its address taken
   146  0000                     
   147 ;; Function _I2C1_DO_SEND_ADR_READ is unused but had its address taken
   148  0000                     
   149 ;; Function _I2C1_DO_SEND_ADR_WRITE is unused but had its address taken
   150  0000                     
   151 ;; Function _I2C1_DO_TX is unused but had its address taken
   152  0000                     
   153 ;; Function _I2C1_DO_RX is unused but had its address taken
   154  0000                     
   155 ;; Function _I2C1_DO_TX_EMPTY is unused but had its address taken
   156  0000                     
   157 ;; Function _I2C1_DO_RX_EMPTY is unused but had its address taken
   158  0000                     
   159 ;; Function _I2C1_DO_SEND_RESTART_READ is unused but had its address taken
   160  0000                     
   161 ;; Function _I2C1_DO_SEND_RESTART_WRITE is unused but had its address taken
   162  0000                     
   163 ;; Function _I2C1_DO_SEND_RESTART is unused but had its address taken
   164  0000                     
   165 ;; Function _I2C1_DO_SEND_STOP is unused but had its address taken
   166  0000                     
   167 ;; Function _I2C1_DO_RX_ACK is unused but had its address taken
   168  0000                     
   169 ;; Function _I2C1_DO_TX_ACK is unused but had its address taken
   170  0000                     
   171 ;; Function _I2C1_DO_RX_NACK_STOP is unused but had its address taken
   172  0000                     
   173 ;; Function _I2C1_DO_RX_NACK_RESTART is unused but had its address taken
   174  0000                     
   175 ;; Function _I2C1_DO_RESET is unused but had its address taken
   176  0000                     
   177 ;; Function _I2C1_DO_ADDRESS_NACK is unused but had its address taken
   178  0000                     
   179 ;; Function _I2C1_DO_BUS_COLLISION is unused but had its address taken
   180  0000                     
   181 ;; Function _I2C1_DO_BUS_ERROR is unused but had its address taken
   182  0000                     
   183 ;; Function _I2C1_CallbackReturnStop is unused but had its address taken
   184  0000                     
   185 ;; Function _I2C1_CallbackReturnReset is unused but had its address taken
   186  0000                     
   187                           	psect	idataBANK5
   188  0036D6                     __pidataBANK5:
   189                           	callstack 0
   190                           
   191                           ;initializer for _rxFifos
   192  0036D6  01                 	db	1
   193  0036D7  00                 	db	0
   194                           
   195                           ;initializer for _CANDATAdata
   196  0036D8  42                 	db	66
   197  0036D9  55                 	db	85
   198  0036DA  46                 	db	70
   199  0036DB  46                 	db	70
   200  0036DC  45                 	db	69
   201  0036DD  52                 	db	82
   202  0036DE  43                 	db	67
   203  0036DF  41                 	db	65
   204  0036E0  4E                 	db	78
   205  0036E1  00                 	db	0
   206  0036E2  00                 	db	0
   207  0036E3  00                 	db	0
   208  0036E4  00                 	db	0
   209  0036E5  00                 	db	0
   210  0036E6  00                 	db	0
   211  0036E7  00                 	db	0
   212  0036E8  00                 	db	0
   213  0036E9  00                 	db	0
   214  0036EA  00                 	db	0
   215  0036EB  00                 	db	0
   216  0036EC  00                 	db	0
   217  0036ED  00                 	db	0
   218  0036EE  00                 	db	0
   219  0036EF  00                 	db	0
   220  0036F0  00                 	db	0
   221  0036F1  00                 	db	0
   222  0036F2  00                 	db	0
   223  0036F3  00                 	db	0
   224  0036F4  00                 	db	0
   225  0036F5  00                 	db	0
   226  0036F6  00                 	db	0
   227  0036F7  00                 	db	0
   228                           
   229                           	psect	smallconst
   230  002600                     __psmallconst:
   231                           	callstack 0
   232  002600  00                 	db	0
   233  002601                     _i2c1_fsmStateTable:
   234                           	callstack 0
   235  002601  00                 	db	0
   236  002602  00                 	db	0
   237  002603  00                 	db	0
   238  002604  00                 	db	0
   239  002605  00                 	db	0
   240  002606  00                 	db	0
   241  002607  00                 	db	0
   242  002608  00                 	db	0
   243  002609  00                 	db	0
   244  00260A  00                 	db	0
   245  00260B  00                 	db	0
   246  00260C  00                 	db	0
   247  00260D  00                 	db	0
   248  00260E  00                 	db	0
   249  00260F  00                 	db	0
   250  002610  00                 	db	0
   251  002611  00                 	db	0
   252  002612  00                 	db	0
   253  002613  00                 	db	0
   254  002614  00                 	db	0
   255  002615  00                 	db	0
   256  002616  00                 	db	0
   257  002617  00                 	db	0
   258  002618  00                 	db	0
   259  002619  00                 	db	0
   260  00261A  00                 	db	0
   261  00261B  00                 	db	0
   262  00261C  00                 	db	0
   263  00261D  00                 	db	0
   264  00261E  00                 	db	0
   265  00261F  00                 	db	0
   266  002620  00                 	db	0
   267  002621  00                 	db	0
   268  002622  00                 	db	0
   269  002623  00                 	db	0
   270  002624  00                 	db	0
   271  002625  00                 	db	0
   272  002626  00                 	db	0
   273  002627                     __end_of_i2c1_fsmStateTable:
   274                           	callstack 0
   275  002627                     _DLC_BYTES:
   276                           	callstack 0
   277  002627  00                 	db	0
   278  002628  01                 	db	1
   279  002629  02                 	db	2
   280  00262A  03                 	db	3
   281  00262B  04                 	db	4
   282  00262C  05                 	db	5
   283  00262D  06                 	db	6
   284  00262E  07                 	db	7
   285  00262F  08                 	db	8
   286  002630                     __end_of_DLC_BYTES:
   287                           	callstack 0
   288  002630  50                 	db	80
   289  002631  01                 	db	1
   290  002632                     __end_of_FIFO:
   291                           	callstack 0
   292  002632  00                 	db	0	; dummy byte at the end
   293  0000                     
   294                           	psect	nvCOMRAM
   295  000557                     __pnvCOMRAM:
   296                           	callstack 0
   297  000557                     _timer1ReloadVal:
   298                           	callstack 0
   299  000557                     	ds	2
   300                           
   301                           	psect	nvBANK5
   302  0005BC                     __pnvBANK5:
   303                           	callstack 0
   304  0005BC                     _TMR0_InterruptHandler:
   305                           	callstack 0
   306  0005BC                     	ds	2
   307  0005BE                     _TMR1_InterruptHandler:
   308                           	callstack 0
   309  0005BE                     	ds	2
   310  0005C0                     _INT0_InterruptHandler:
   311                           	callstack 0
   312  0005C0                     	ds	2
   313  0005C2                     _ADC_ActiveClockTuning_ISR:
   314                           	callstack 0
   315  0005C2                     	ds	2
   316  0005C4                     _ADC_Context1Thereshld_ISR:
   317                           	callstack 0
   318  0005C4                     	ds	2
   319  0005C6                     _ADC_ConversionComplete_ISR:
   320                           	callstack 0
   321  0005C6                     	ds	2
   322  0000                     _PMD8	set	104
   323  0000                     _PMD7	set	103
   324  0000                     _PMD6	set	102
   325  0000                     _PMD5	set	101
   326  0000                     _PMD4	set	100
   327  0000                     _PMD3	set	99
   328  0000                     _PMD2	set	98
   329  0000                     _PMD1	set	97
   330  0000                     _PMD0	set	96
   331  0000                     _OSCTUNE	set	176
   332  0000                     _OSCFRQ	set	177
   333  0000                     _OSCEN	set	179
   334  0000                     _OSCCON3	set	175
   335  0000                     _OSCCON1	set	173
   336  0000                     _C1FIFOBA	set	332
   337  0000                     _C1FIFOSTA1Lbits	set	352
   338  0000                     _C1TXQSTALbits	set	340
   339  0000                     _C1INTLbits	set	284
   340  0000                     _C1INTTbits	set	287
   341  0000                     _C1TRECUbits	set	310
   342  0000                     _C1CONUbits	set	258
   343  0000                     _C1INTHbits	set	285
   344  0000                     _C1CONTbits	set	259
   345  0000                     _C1CONU	set	258
   346  0000                     _C1CONH	set	257
   347  0000                     _C1CONL	set	256
   348  0000                     _C1CONHbits	set	257
   349  0000                     _C1INTT	set	287
   350  0000                     _C1INTU	set	286
   351  0000                     _C1INTH	set	285
   352  0000                     _C1INTL	set	284
   353  0000                     _C1NBTCFGT	set	263
   354  0000                     _C1NBTCFGU	set	262
   355  0000                     _C1NBTCFGH	set	261
   356  0000                     _C1NBTCFGL	set	260
   357  0000                     _C1TXQCONT	set	339
   358  0000                     _C1TXQCONU	set	338
   359  0000                     _C1TXQCONH	set	337
   360  0000                     _C1FIFOCON1T	set	351
   361  0000                     _C1FIFOCON1U	set	350
   362  0000                     _C1FIFOCON1H	set	349
   363  0000                     _C1FIFOCON1L	set	348
   364  0000                     _C1TXQCONL	set	336
   365  0000                     _I2C1PIEbits	set	667
   366  0000                     _I2C1PIRbits	set	666
   367  0000                     _I2C1ERRbits	set	663
   368  0000                     _I2C1CON1bits	set	661
   369  0000                     _I2C1TXB	set	651
   370  0000                     _I2C1RXB	set	650
   371  0000                     _I2C1STAT1bits	set	665
   372  0000                     _I2C1CON0bits	set	660
   373  0000                     _I2C1BAUD	set	669
   374  0000                     _I2C1CNTH	set	653
   375  0000                     _I2C1CNTL	set	652
   376  0000                     _I2C1ERR	set	663
   377  0000                     _I2C1PIE	set	667
   378  0000                     _I2C1PIR	set	666
   379  0000                     _I2C1CLK	set	670
   380  0000                     _I2C1CON2	set	662
   381  0000                     _I2C1CON1	set	661
   382  0000                     _I2C1CON0	set	660
   383  0000                     _I2C1SCLPPS	set	625
   384  0000                     _RB4PPS	set	525
   385  0000                     _CANRXPPS	set	573
   386  0000                     _RC4PPS	set	533
   387  0000                     _INT0PPS	set	574
   388  0000                     _RC3PPS	set	532
   389  0000                     _I2C1SDAPPS	set	624
   390  0000                     _ADACTPPS	set	617
   391  0000                     _T0CON0bits	set	794
   392  0000                     _T0CON0	set	794
   393  0000                     _TMR0L	set	792
   394  0000                     _TMR0H	set	793
   395  0000                     _T0CON1	set	795
   396  0000                     _T1GCONbits	set	799
   397  0000                     _T1CONbits	set	798
   398  0000                     _T1CON	set	798
   399  0000                     _TMR1L	set	796
   400  0000                     _TMR1H	set	797
   401  0000                     _T1CLK	set	801
   402  0000                     _T1GATE	set	800
   403  0000                     _T1GCON	set	799
   404  0000                     _ADCPbits	set	984
   405  0000                     _ADCON1bits	set	1012
   406  0000                     _ADERRL	set	989
   407  0000                     _ADERRH	set	990
   408  0000                     _ADPREVL	set	1000
   409  0000                     _ADPREVH	set	1001
   410  0000                     _ADFLTRL	set	993
   411  0000                     _ADFLTRH	set	994
   412  0000                     _ADSTATbits	set	1015
   413  0000                     _ADCON2bits	set	1013
   414  0000                     _ADCON3bits	set	1014
   415  0000                     _ADCSEL1bits	set	1020
   416  0000                     _ADCON0bits	set	1011
   417  0000                     _ADCSEL1	set	1020
   418  0000                     _ADREF	set	1016
   419  0000                     _ADSTAT	set	1015
   420  0000                     _ADCON3	set	1014
   421  0000                     _ADCON2	set	1013
   422  0000                     _ADCON1	set	1012
   423  0000                     _ADCON0	set	1011
   424  0000                     _ADPREH	set	1010
   425  0000                     _ADPREL	set	1009
   426  0000                     _ADCAP	set	1008
   427  0000                     _ADACQH	set	1007
   428  0000                     _ADACQL	set	1006
   429  0000                     _ADPCH	set	1004
   430  0000                     _ADRESH	set	1003
   431  0000                     _ADRESL	set	1002
   432  0000                     _ADRPT	set	999
   433  0000                     _ADCNT	set	998
   434  0000                     _ADACCU	set	997
   435  0000                     _ADACCH	set	996
   436  0000                     _ADACCL	set	995
   437  0000                     _ADSTPTH	set	992
   438  0000                     _ADSTPTL	set	991
   439  0000                     _ADUTHH	set	988
   440  0000                     _ADUTHL	set	987
   441  0000                     _ADLTHH	set	986
   442  0000                     _ADLTHL	set	985
   443  0000                     _ADCTX	set	1019
   444  0000                     _ADCP	set	984
   445  0000                     _ADCLK	set	1018
   446  0000                     _ADACT	set	1017
   447  0000                     _INLVLE	set	1060
   448  0000                     _INLVLC	set	1044
   449  0000                     _INLVLB	set	1036
   450  0000                     _INLVLA	set	1028
   451  0000                     _SLRCONC	set	1043
   452  0000                     _SLRCONB	set	1035
   453  0000                     _SLRCONA	set	1027
   454  0000                     _ODCONC	set	1042
   455  0000                     _ODCONB	set	1034
   456  0000                     _ODCONA	set	1026
   457  0000                     _WPUC	set	1041
   458  0000                     _WPUA	set	1025
   459  0000                     _WPUB	set	1033
   460  0000                     _WPUE	set	1057
   461  0000                     _ANSELA	set	1024
   462  0000                     _ANSELB	set	1032
   463  0000                     _ANSELC	set	1040
   464  0000                     _LATBbits	set	1215
   465  0000                     _TRISBbits	set	1223
   466  0000                     _LATAbits	set	1214
   467  0000                     _PIR7bits	set	1205
   468  0000                     _PIE7bits	set	1189
   469  0000                     _TRISC	set	1224
   470  0000                     _TRISB	set	1223
   471  0000                     _TRISA	set	1222
   472  0000                     _TRISE	set	1226
   473  0000                     _LATC	set	1216
   474  0000                     _LATB	set	1215
   475  0000                     _LATA	set	1214
   476  0000                     _PIR2bits	set	1200
   477  0000                     _PIR0bits	set	1198
   478  0000                     _PIE0bits	set	1182
   479  0000                     _PIR1bits	set	1199
   480  0000                     _PIE1bits	set	1183
   481  0000                     _PIR3bits	set	1201
   482  0000                     _PIE3bits	set	1185
   483  0000                     _INTCON0bits	set	1238
   484                           
   485                           ; #config settings
   486                           
   487                           	psect	cinit
   488  003326                     __pcinit:
   489                           	callstack 0
   490  003326                     start_initialization:
   491                           	callstack 0
   492  003326                     __initialization:
   493                           	callstack 0
   494                           
   495                           ; Initialize objects allocated to BANK5 (34 bytes)
   496                           ; load TBLPTR registers with __pidataBANK5
   497  003326  0ED6               	movlw	low __pidataBANK5
   498  003328  6EF6               	movwf	tblptrl,c
   499  00332A  0E36               	movlw	high __pidataBANK5
   500  00332C  6EF7               	movwf	tblptrh,c
   501  00332E  0E00               	movlw	low (__pidataBANK5 shr (0+16))
   502  003330  6EF8               	movwf	tblptru,c
   503  003332  EE01  F19A         	lfsr	0,__pdataBANK5
   504  003336  EE10 F022          	lfsr	1,34
   505  00333A                     copy_data0:
   506  00333A  0009               	tblrd		*+
   507  00333C  C4F5 F4EE          	movff	tablat,postinc0
   508  003340  50E5               	movf	postdec1,w,c
   509  003342  50E1               	movf	fsr1l,w,c
   510  003344  E1FA               	bnz	copy_data0
   511                           
   512                           ; Clear objects allocated to BANK5 (58 bytes)
   513  003346  EE01  F160         	lfsr	0,__pbssBANK5
   514  00334A  0E3A               	movlw	58
   515  00334C                     clear_0:
   516  00334C  6AEE               	clrf	postinc0,c
   517  00334E  06E8               	decf	wreg,f,c
   518  003350  E1FD               	bnz	clear_0
   519                           
   520                           ; Clear objects allocated to COMRAM (28 bytes)
   521  003352  EE01  F13B         	lfsr	0,__pbssCOMRAM
   522  003356  0E1C               	movlw	28
   523  003358                     clear_1:
   524  003358  6AEE               	clrf	postinc0,c
   525  00335A  06E8               	decf	wreg,f,c
   526  00335C  E1FD               	bnz	clear_1
   527                           
   528                           ;
   529                           ; Setup IVTBASE
   530                           ;
   531  00335E  0104               	movlb	4
   532  003360  0E08               	movlw	(ivt0x8_base shr 0)& (0+255)
   533  003362  6F5D               	movwf	93,b
   534  003364  0E00               	movlw	(ivt0x8_base shr (0+8))& (0+255)
   535  003366  6F5E               	movwf	94,b
   536  003368  0E00               	movlw	(ivt0x8_base shr (0+16))& (0+255)
   537  00336A  6F5F               	movwf	95,b
   538  00336C                     end_of_initialization:
   539                           	callstack 0
   540  00336C                     __end_of__initialization:
   541                           	callstack 0
   542  00336C  0100               	movlb	0
   543  00336E  EF1B  F01A         	goto	_main	;jump to C main() function
   544                           
   545                           	psect	bssCOMRAM
   546  00053B                     __pbssCOMRAM:
   547                           	callstack 0
   548  00053B                     _uiKPH_E_2:
   549                           	callstack 0
   550  00053B                     	ds	2
   551  00053D                     _ui_MeterPerSecond_E_2:
   552                           	callstack 0
   553  00053D                     	ds	2
   554  00053F                     _uiCountVueltaRueda:
   555                           	callstack 0
   556  00053F                     	ds	2
   557  000541                     TMR0_ISR@CountCallBack:
   558                           	callstack 0
   559  000541                     	ds	2
   560  000543                     TMR1_ISR@CountCallBack:
   561                           	callstack 0
   562  000543                     	ds	2
   563  000545                     _ucWheelID:
   564                           	callstack 0
   565  000545                     	ds	1
   566  000546                     _ucReluctorState:
   567                           	callstack 0
   568  000546                     	ds	1
   569  000547                     _ucKPHData2:
   570                           	callstack 0
   571  000547                     	ds	1
   572  000548                     _ucKPHData1:
   573                           	callstack 0
   574  000548                     	ds	1
   575  000549                     _ui_cm_in_period:
   576                           	callstack 0
   577  000549                     	ds	1
   578  00054A                     _ucCountVueltaRueda2:
   579                           	callstack 0
   580  00054A                     	ds	1
   581  00054B                     _ucCountVueltaRueda1:
   582                           	callstack 0
   583  00054B                     	ds	1
   584  00054C                     _ucCountPos:
   585                           	callstack 0
   586  00054C                     	ds	1
   587  00054D                     _ucCountTeeth:
   588                           	callstack 0
   589  00054D                     	ds	1
   590  00054E                     _ucWheelTeeth:
   591                           	callstack 0
   592  00054E                     	ds	1
   593  00054F                     _ucTyrePerimeter:
   594                           	callstack 0
   595  00054F                     	ds	1
   596  000550                     _msg:
   597                           	callstack 0
   598  000550                     	ds	7
   599                           
   600                           	psect	bssBANK5
   601  000560                     __pbssBANK5:
   602                           	callstack 0
   603  000560                     _I2C1_Status:
   604                           	callstack 0
   605  000560                     	ds	36
   606  000584                     _CAN1_RxBufferOverflowHandler:
   607                           	callstack 0
   608  000584                     	ds	2
   609  000586                     _CAN1_TxAttemptHandler:
   610                           	callstack 0
   611  000586                     	ds	2
   612  000588                     _CAN1_SystemErrorHandler:
   613                           	callstack 0
   614  000588                     	ds	2
   615  00058A                     _CAN1_ModeChangeHandler:
   616                           	callstack 0
   617  00058A                     	ds	2
   618  00058C                     _CAN1_BusErrorHandler:
   619                           	callstack 0
   620  00058C                     	ds	2
   621  00058E                     _CAN1_BusWakeUpActivityHandler:
   622                           	callstack 0
   623  00058E                     	ds	2
   624  000590                     _CAN1_InvalidMessageHandler:
   625                           	callstack 0
   626  000590                     	ds	2
   627  000592                     _rxMsgData:
   628                           	callstack 0
   629  000592                     	ds	8
   630                           
   631                           	psect	dataBANK5
   632  00059A                     __pdataBANK5:
   633                           	callstack 0
   634  00059A                     _rxFifos:
   635                           	callstack 0
   636  00059A                     	ds	2
   637  00059C                     _CANDATAdata:
   638                           	callstack 0
   639  00059C                     	ds	32
   640                           
   641                           	psect	cstackBANK5
   642  0005C8                     __pcstackBANK5:
   643                           	callstack 0
   644  0005C8                     CAN1_RX_FIFO_ResetInfo@index:
   645                           	callstack 0
   646  0005C8                     CAN1_OperationModeSet@opMode:
   647                           	callstack 0
   648  0005C8                     CAN1_SetInvalidMessageInterruptHandler@handler:
   649                           	callstack 0
   650  0005C8                     CAN1_SetBusWakeUpActivityInterruptHandler@handler:
   651                           	callstack 0
   652  0005C8                     CAN1_SetBusErrorInterruptHandler@handler:
   653                           	callstack 0
   654  0005C8                     CAN1_SetModeChangeInterruptHandler@handler:
   655                           	callstack 0
   656  0005C8                     CAN1_SetSystemErrorInterruptHandler@handler:
   657                           	callstack 0
   658  0005C8                     CAN1_SetTxAttemptInterruptHandler@handler:
   659                           	callstack 0
   660  0005C8                     CAN1_SetRxBufferOverFlowInterruptHandler@handler:
   661                           	callstack 0
   662  0005C8                     ADC_SetADIInterruptHandler@InterruptHandler:
   663                           	callstack 0
   664  0005C8                     ADC_SetContext1ThresholdInterruptHandler@InterruptHandler:
   665                           	callstack 0
   666  0005C8                     ADC_SetActiveClockTuningInterruptHandler@InterruptHandler:
   667                           	callstack 0
   668  0005C8                     INT0_SetInterruptHandler@InterruptHandler:
   669                           	callstack 0
   670  0005C8                     DELAY_milliseconds@milliseconds:
   671                           	callstack 0
   672  0005C8                     TMR1_SetInterruptHandler@InterruptHandler:
   673                           	callstack 0
   674  0005C8                     TMR0_SetInterruptHandler@InterruptHandler:
   675                           	callstack 0
   676                           
   677                           ; 2 bytes @ 0x0
   678  0005C8                     	ds	1
   679  0005C9                     CAN1_OperationModeSet@status:
   680                           	callstack 0
   681                           
   682                           ; 1 bytes @ 0x1
   683  0005C9                     	ds	1
   684  0005CA                     ??_TMR1_Initialize:
   685  0005CA                     ??_DELAY_milliseconds:
   686  0005CA                     CAN1_OperationModeSet@requestMode:
   687                           	callstack 0
   688                           
   689                           ; 1 bytes @ 0x2
   690  0005CA                     	ds	1
   691  0005CB                     
   692                           ; 1 bytes @ 0x3
   693  0005CB                     	ds	1
   694  0005CC                     
   695                           ; 1 bytes @ 0x4
   696                           
   697                           	psect	cstackCOMRAM
   698  000501                     __pcstackCOMRAM:
   699                           	callstack 0
   700  000501                     ?___wmul:
   701                           	callstack 0
   702  000501                     _isTxChannel$908:
   703                           	callstack 0
   704  000501                     GetTxFifoStatus@validChannel:
   705                           	callstack 0
   706  000501                     ___lbdiv@divisor:
   707                           	callstack 0
   708  000501                     i2CAN1_OperationModeSet@opMode:
   709                           	callstack 0
   710  000501                     TMR1_WriteTimer@timerVal:
   711                           	callstack 0
   712  000501                     ___wmul@multiplier:
   713                           	callstack 0
   714  000501                     memcpy@d1:
   715                           	callstack 0
   716                           
   717                           ; 2 bytes @ 0x0
   718  000501                     	ds	1
   719  000502                     isTxChannel@channel:
   720                           	callstack 0
   721  000502                     ___lbdiv@dividend:
   722                           	callstack 0
   723  000502                     i2CAN1_OperationModeSet@status:
   724                           	callstack 0
   725  000502                     ValidateTransmission@txCanMsg:
   726                           	callstack 0
   727                           
   728                           ; 2 bytes @ 0x1
   729  000502                     	ds	1
   730  000503                     CAN1_TransmitFIFOStatusGet@status:
   731                           	callstack 0
   732  000503                     ___lbdiv@counter:
   733                           	callstack 0
   734  000503                     i2CAN1_OperationModeSet@requestMode:
   735                           	callstack 0
   736  000503                     ___wmul@multiplicand:
   737                           	callstack 0
   738  000503                     memcpy@s1:
   739                           	callstack 0
   740                           
   741                           ; 2 bytes @ 0x2
   742  000503                     	ds	1
   743  000504                     ??_ValidateTransmission:
   744  000504                     CAN1_TransmitFIFOStatusGet@fifoChannel:
   745                           	callstack 0
   746  000504                     ___lbdiv@quotient:
   747                           	callstack 0
   748                           
   749                           ; 1 bytes @ 0x3
   750  000504                     	ds	1
   751  000505                     ___wmul@product:
   752                           	callstack 0
   753  000505                     memcpy@n:
   754                           	callstack 0
   755                           
   756                           ; 2 bytes @ 0x4
   757  000505                     	ds	2
   758  000507                     ?___lwdiv:
   759                           	callstack 0
   760  000507                     ValidateTransmission@validChannel:
   761                           	callstack 0
   762  000507                     ___lwdiv@dividend:
   763                           	callstack 0
   764  000507                     memcpy@d:
   765                           	callstack 0
   766                           
   767                           ; 2 bytes @ 0x6
   768  000507                     	ds	2
   769  000509                     ValidateTransmission@txMsgStatus:
   770                           	callstack 0
   771  000509                     ___lwdiv@divisor:
   772                           	callstack 0
   773  000509                     memcpy@s:
   774                           	callstack 0
   775                           
   776                           ; 2 bytes @ 0x8
   777  000509                     	ds	1
   778  00050A                     ValidateTransmission@field:
   779                           	callstack 0
   780                           
   781                           ; 1 bytes @ 0x9
   782  00050A                     	ds	1
   783  00050B                     memcpy@tmp:
   784                           	callstack 0
   785  00050B                     ___lwdiv@quotient:
   786                           	callstack 0
   787                           
   788                           ; 2 bytes @ 0xA
   789  00050B                     	ds	1
   790  00050C                     WriteMessageToFifo@txFifoObj:
   791                           	callstack 0
   792                           
   793                           ; 2 bytes @ 0xB
   794  00050C                     	ds	1
   795  00050D                     ___lwdiv@counter:
   796                           	callstack 0
   797                           
   798                           ; 1 bytes @ 0xC
   799  00050D                     	ds	1
   800  00050E                     WriteMessageToFifo@txCanMsg:
   801                           	callstack 0
   802                           
   803                           ; 2 bytes @ 0xD
   804  00050E                     	ds	2
   805  000510                     ??_WriteMessageToFifo:
   806                           
   807                           ; 1 bytes @ 0xF
   808  000510                     	ds	3
   809  000513                     WriteMessageToFifo@status:
   810                           	callstack 0
   811                           
   812                           ; 1 bytes @ 0x12
   813  000513                     	ds	1
   814  000514                     WriteMessageToFifo@msgId:
   815                           	callstack 0
   816                           
   817                           ; 4 bytes @ 0x13
   818  000514                     	ds	4
   819  000518                     CAN1_Transmit@txCanMsg:
   820                           	callstack 0
   821                           
   822                           ; 2 bytes @ 0x17
   823  000518                     	ds	2
   824  00051A                     CAN1_Transmit@status:
   825                           	callstack 0
   826                           
   827                           ; 1 bytes @ 0x19
   828  00051A                     	ds	1
   829  00051B                     CAN1_Transmit@txFifoObj:
   830                           	callstack 0
   831                           
   832                           ; 2 bytes @ 0x1A
   833  00051B                     	ds	2
   834  00051D                     CAN1_Transmit@fifoChannel:
   835                           	callstack 0
   836                           
   837                           ; 1 bytes @ 0x1C
   838  00051D                     	ds	1
   839  00051E                     CANWriteMessage@id:
   840                           	callstack 0
   841                           
   842                           ; 4 bytes @ 0x1D
   843  00051E                     	ds	4
   844  000522                     CANWriteMessage@dataLength:
   845                           	callstack 0
   846                           
   847                           ; 1 bytes @ 0x21
   848  000522                     	ds	1
   849  000523                     CANWriteMessage@data1:
   850                           	callstack 0
   851                           
   852                           ; 1 bytes @ 0x22
   853  000523                     	ds	1
   854  000524                     CANWriteMessage@data2:
   855                           	callstack 0
   856                           
   857                           ; 1 bytes @ 0x23
   858  000524                     	ds	1
   859  000525                     CANWriteMessage@data3:
   860                           	callstack 0
   861                           
   862                           ; 1 bytes @ 0x24
   863  000525                     	ds	1
   864  000526                     CANWriteMessage@data4:
   865                           	callstack 0
   866                           
   867                           ; 1 bytes @ 0x25
   868  000526                     	ds	1
   869  000527                     CANWriteMessage@data5:
   870                           	callstack 0
   871                           
   872                           ; 1 bytes @ 0x26
   873  000527                     	ds	1
   874  000528                     CANWriteMessage@data6:
   875                           	callstack 0
   876                           
   877                           ; 1 bytes @ 0x27
   878  000528                     	ds	1
   879  000529                     CANWriteMessage@data7:
   880                           	callstack 0
   881                           
   882                           ; 1 bytes @ 0x28
   883  000529                     	ds	1
   884  00052A                     CANWriteMessage@data8:
   885                           	callstack 0
   886                           
   887                           ; 1 bytes @ 0x29
   888  00052A                     	ds	1
   889  00052B                     ??_CANWriteMessage:
   890                           
   891                           ; 1 bytes @ 0x2A
   892  00052B                     	ds	2
   893  00052D                     CANWriteMessage@uiData1:
   894                           	callstack 0
   895                           
   896                           ; 2 bytes @ 0x2C
   897  00052D                     	ds	2
   898  00052F                     CANWriteMessage@uiData2:
   899                           	callstack 0
   900                           
   901                           ; 2 bytes @ 0x2E
   902  00052F                     	ds	2
   903  000531                     CANWriteMessage@uiData3:
   904                           	callstack 0
   905                           
   906                           ; 2 bytes @ 0x30
   907  000531                     	ds	2
   908  000533                     CANWriteMessage@uiData4:
   909                           	callstack 0
   910                           
   911                           ; 2 bytes @ 0x32
   912  000533                     	ds	2
   913  000535                     ??_MESSAGESSendEvery100ms:
   914                           
   915                           ; 1 bytes @ 0x34
   916  000535                     	ds	2
   917  000537                     ??_INTERRUPT_InterruptManager:
   918                           
   919                           ; 1 bytes @ 0x36
   920  000537                     	ds	4
   921                           
   922 ;;
   923 ;;Main: autosize = 0, tempsize = 0, incstack = 0, save=0
   924 ;;
   925 ;; *************** function _main *****************
   926 ;; Defined at:
   927 ;;		line 51 in file "main.c"
   928 ;; Parameters:    Size  Location     Type
   929 ;;		None
   930 ;; Auto vars:     Size  Location     Type
   931 ;;		None
   932 ;; Return value:  Size  Location     Type
   933 ;;                  1    wreg      void 
   934 ;; Registers used:
   935 ;;		wreg, fsr2l, fsr2h, status,2, status,0, prodl, prodh, cstack
   936 ;; Tracked objects:
   937 ;;		On entry : 0/0
   938 ;;		On exit  : 0/0
   939 ;;		Unchanged: 0/0
   940 ;; Data sizes:     COMRAM   BANK5   BANK6   BANK7   BANK8   BANK9  BANK10  BANK11  BANK12  BANK13  BANK14  BANK15  BANK1
      +6  BANK17  BANK18  BANK19  BANK20  BANK21  BANK22  BANK23  BANK24  BANK25  BANK26  BANK27  BANK28  BANK29  BANK30  BANK3
      +1  BANK32  BANK33  BANK34  BANK35  BANK36  BANK37
   941 ;;      Params:         0       0       0       0       0       0       0       0       0       0       0       0       
      +0       0       0       0       0       0       0       0       0       0       0       0       0       0       0       
      +0       0       0       0       0       0       0
   942 ;;      Locals:         0       0       0       0       0       0       0       0       0       0       0       0       
      +0       0       0       0       0       0       0       0       0       0       0       0       0       0       0       
      +0       0       0       0       0       0       0
   943 ;;      Temps:          0       0       0       0       0       0       0       0       0       0       0       0       
      +0       0       0       0       0       0       0       0       0       0       0       0       0       0       0       
      +0       0       0       0       0       0       0
   944 ;;      Totals:         0       0       0       0       0       0       0       0       0       0       0       0       
      +0       0       0       0       0       0       0       0       0       0       0       0       0       0       0       
      +0       0       0       0       0       0       0
   945 ;;Total ram usage:        0 bytes
   946 ;; Hardware stack levels required when called:   11
   947 ;; This function calls:
   948 ;;		_DELAY_milliseconds
   949 ;;		_PARAMETERSInit
   950 ;;		_SYSTEM_Initialize
   951 ;; This function is called by:
   952 ;;		Startup code after reset
   953 ;; This function uses a non-reentrant model
   954 ;;
   955                           
   956                           	psect	text0
   957  003436                     __ptext0:
   958                           	callstack 0
   959  003436                     _main:
   960                           	callstack 116
   961  003436                     
   962                           ;main.c: 54:     SYSTEM_Initialize();
   963  003436  ECC7  F01A         	call	_SYSTEM_Initialize	;wreg free
   964  00343A                     
   965                           ;main.c: 56:     PARAMETERSInit();
   966  00343A  ECBD  F01B         	call	_PARAMETERSInit	;wreg free
   967  00343E  9AC7               	bcf	199,5,c	;volatile
   968  003440  9ABF               	bcf	191,5,c	;volatile
   969  003442                     
   970                           ;main.c: 66:     (INTCON0bits.GIE = 1);
   971  003442  8ED6               	bsf	214,7,c	;volatile
   972  003444                     l5305:
   973  003444  88BE               	bsf	190,4,c	;volatile
   974  003446                     
   975                           ;main.c: 75:         DELAY_milliseconds(1000);
   976  003446  0E03               	movlw	3
   977  003448  0105               	movlb	5	; () banked
   978  00344A  6FC9               	movwf	(DELAY_milliseconds@milliseconds+1)& (0+255),b
   979  00344C  0EE8               	movlw	232
   980  00344E  6FC8               	movwf	DELAY_milliseconds@milliseconds& (0+255),b
   981  003450  EC51  F01A         	call	_DELAY_milliseconds	;wreg free
   982  003454  98BE               	bcf	190,4,c	;volatile
   983  003456                     
   984                           ;main.c: 77:         DELAY_milliseconds(1000);
   985  003456  0E03               	movlw	3
   986  003458  0105               	movlb	5	; () banked
   987  00345A  6FC9               	movwf	(DELAY_milliseconds@milliseconds+1)& (0+255),b
   988  00345C  0EE8               	movlw	232
   989  00345E  6FC8               	movwf	DELAY_milliseconds@milliseconds& (0+255),b
   990  003460  EC51  F01A         	call	_DELAY_milliseconds	;wreg free
   991  003464  EF22  F01A         	goto	l5305
   992  003468  EF0D  F000         	goto	start
   993  00346C                     __end_of_main:
   994                           	callstack 0
   995                           
   996 ;; *************** function _SYSTEM_Initialize *****************
   997 ;; Defined at:
   998 ;;		line 50 in file "mcc_generated_files/mcc.c"
   999 ;; Parameters:    Size  Location     Type
  1000 ;;		None
  1001 ;; Auto vars:     Size  Location     Type
  1002 ;;		None
  1003 ;; Return value:  Size  Location     Type
  1004 ;;                  1    wreg      void 
  1005 ;; Registers used:
  1006 ;;		wreg, fsr2l, fsr2h, status,2, status,0, prodl, prodh, cstack
  1007 ;; Tracked objects:
  1008 ;;		On entry : 0/0
  1009 ;;		On exit  : 0/0
  1010 ;;		Unchanged: 0/0
  1011 ;; Data sizes:     COMRAM   BANK5   BANK6   BANK7   BANK8   BANK9  BANK10  BANK11  BANK12  BANK13  BANK14  BANK15  BANK1
      +6  BANK17  BANK18  BANK19  BANK20  BANK21  BANK22  BANK23  BANK24  BANK25  BANK26  BANK27  BANK28  BANK29  BANK30  BANK3
      +1  BANK32  BANK33  BANK34  BANK35  BANK36  BANK37
  1012 ;;      Params:         0       0       0       0       0       0       0       0       0       0       0       0       
      +0       0       0       0       0       0       0       0       0       0       0       0       0       0       0       
      +0       0       0       0       0       0       0
  1013 ;;      Locals:         0       0       0       0       0       0       0       0       0       0       0       0       
      +0       0       0       0       0       0       0       0       0       0       0       0       0       0       0       
      +0       0       0       0       0       0       0
  1014 ;;      Temps:          0       0       0       0       0       0       0       0       0       0       0       0       
      +0       0       0       0       0       0       0       0       0       0       0       0       0       0       0       
      +0       0       0       0       0       0       0
  1015 ;;      Totals:         0       0       0       0       0       0       0       0       0       0       0       0       
      +0       0       0       0       0       0       0       0       0       0       0       0       0       0       0       
      +0       0       0       0       0       0       0
  1016 ;;Total ram usage:        0 bytes
  1017 ;; Hardware stack levels used:    1
  1018 ;; Hardware stack levels required when called:   10
  1019 ;; This function calls:
  1020 ;;		_ADC_Initialize
  1021 ;;		_CAN1_Initialize
  1022 ;;		_EXT_INT_Initialize
  1023 ;;		_I2C1_Initialize
  1024 ;;		_INTERRUPT_Initialize
  1025 ;;		_OSCILLATOR_Initialize
  1026 ;;		_PIN_MANAGER_Initialize
  1027 ;;		_PMD_Initialize
  1028 ;;		_TMR0_Initialize
  1029 ;;		_TMR1_Initialize
  1030 ;; This function is called by:
  1031 ;;		_main
  1032 ;; This function uses a non-reentrant model
  1033 ;;
  1034                           
  1035                           	psect	text1
  1036  00358E                     __ptext1:
  1037                           	callstack 0
  1038  00358E                     _SYSTEM_Initialize:
  1039                           	callstack 116
  1040  00358E                     
  1041                           ;mcc_generated_files/mcc.c: 52:     PIN_MANAGER_Initialize();
  1042  00358E  EC96  F018         	call	_PIN_MANAGER_Initialize	;wreg free
  1043  003592  88BE               	bsf	190,4,c	;volatile
  1044  003594                     
  1045                           ;mcc_generated_files/mcc.c: 54:     INTERRUPT_Initialize();
  1046  003594  EC13  F01C         	call	_INTERRUPT_Initialize	;wreg free
  1047  003598                     
  1048                           ;mcc_generated_files/mcc.c: 55:     PMD_Initialize();
  1049  003598  EC31  F01B         	call	_PMD_Initialize	;wreg free
  1050  00359C                     
  1051                           ;mcc_generated_files/mcc.c: 56:     I2C1_Initialize();
  1052  00359C  ECDD  F01A         	call	_I2C1_Initialize	;wreg free
  1053  0035A0                     
  1054                           ;mcc_generated_files/mcc.c: 57:     ADC_Initialize();
  1055  0035A0  ECD8  F016         	call	_ADC_Initialize	;wreg free
  1056  0035A4                     
  1057                           ;mcc_generated_files/mcc.c: 58:     OSCILLATOR_Initialize();
  1058  0035A4  EC7C  F01B         	call	_OSCILLATOR_Initialize	;wreg free
  1059  0035A8                     
  1060                           ;mcc_generated_files/mcc.c: 59:     TMR1_Initialize();
  1061  0035A8  ECB9  F019         	call	_TMR1_Initialize	;wreg free
  1062  0035AC                     
  1063                           ;mcc_generated_files/mcc.c: 60:     EXT_INT_Initialize();
  1064  0035AC  EC94  F01B         	call	_EXT_INT_Initialize	;wreg free
  1065  0035B0                     
  1066                           ;mcc_generated_files/mcc.c: 61:     TMR0_Initialize();
  1067  0035B0  EC1D  F01B         	call	_TMR0_Initialize	;wreg free
  1068  0035B4                     
  1069                           ;mcc_generated_files/mcc.c: 62:     CAN1_Initialize();
  1070  0035B4  EC67  F019         	call	_CAN1_Initialize	;wreg free
  1071  0035B8  0012               	return		;funcret
  1072  0035BA                     __end_of_SYSTEM_Initialize:
  1073                           	callstack 0
  1074                           
  1075 ;; *************** function _TMR1_Initialize *****************
  1076 ;; Defined at:
  1077 ;;		line 66 in file "mcc_generated_files/tmr1.c"
  1078 ;; Parameters:    Size  Location     Type
  1079 ;;		None
  1080 ;; Auto vars:     Size  Location     Type
  1081 ;;		None
  1082 ;; Return value:  Size  Location     Type
  1083 ;;                  1    wreg      void 
  1084 ;; Registers used:
  1085 ;;		wreg, status,2, status,0, cstack
  1086 ;; Tracked objects:
  1087 ;;		On entry : 0/0
  1088 ;;		On exit  : 0/0
  1089 ;;		Unchanged: 0/0
  1090 ;; Data sizes:     COMRAM   BANK5   BANK6   BANK7   BANK8   BANK9  BANK10  BANK11  BANK12  BANK13  BANK14  BANK15  BANK1
      +6  BANK17  BANK18  BANK19  BANK20  BANK21  BANK22  BANK23  BANK24  BANK25  BANK26  BANK27  BANK28  BANK29  BANK30  BANK3
      +1  BANK32  BANK33  BANK34  BANK35  BANK36  BANK37
  1091 ;;      Params:         0       0       0       0       0       0       0       0       0       0       0       0       
      +0       0       0       0       0       0       0       0       0       0       0       0       0       0       0       
      +0       0       0       0       0       0       0
  1092 ;;      Locals:         0       0       0       0       0       0       0       0       0       0       0       0       
      +0       0       0       0       0       0       0       0       0       0       0       0       0       0       0       
      +0       0       0       0       0       0       0
  1093 ;;      Temps:          0       2       0       0       0       0       0       0       0       0       0       0       
      +0       0       0       0       0       0       0       0       0       0       0       0       0       0       0       
      +0       0       0       0       0       0       0
  1094 ;;      Totals:         0       2       0       0       0       0       0       0       0       0       0       0       
      +0       0       0       0       0       0       0       0       0       0       0       0       0       0       0       
      +0       0       0       0       0       0       0
  1095 ;;Total ram usage:        2 bytes
  1096 ;; Hardware stack levels used:    1
  1097 ;; Hardware stack levels required when called:    8
  1098 ;; This function calls:
  1099 ;;		_TMR1_SetInterruptHandler
  1100 ;; This function is called by:
  1101 ;;		_SYSTEM_Initialize
  1102 ;; This function uses a non-reentrant model
  1103 ;;
  1104                           
  1105                           	psect	text2
  1106  003372                     __ptext2:
  1107                           	callstack 0
  1108  003372                     _TMR1_Initialize:
  1109                           	callstack 117
  1110  003372                     
  1111                           ;mcc_generated_files/tmr1.c: 71:     T1GCON = 0x00;
  1112  003372  0E00               	movlw	0
  1113  003374  0103               	movlb	3	; () banked
  1114  003376  6F1F               	movwf	31,b	;volatile
  1115                           
  1116                           ;mcc_generated_files/tmr1.c: 74:     T1GATE = 0x00;
  1117  003378  0E00               	movlw	0
  1118  00337A  6F20               	movwf	32,b	;volatile
  1119                           
  1120                           ;mcc_generated_files/tmr1.c: 77:     T1CLK = 0x01;
  1121  00337C  0E01               	movlw	1
  1122  00337E  6F21               	movwf	33,b	;volatile
  1123                           
  1124                           ;mcc_generated_files/tmr1.c: 80:     TMR1H = 0x0B;
  1125  003380  0E0B               	movlw	11
  1126  003382  6F1D               	movwf	29,b	;volatile
  1127                           
  1128                           ;mcc_generated_files/tmr1.c: 83:     TMR1L = 0xDC;
  1129  003384  0EDC               	movlw	220
  1130  003386  6F1C               	movwf	28,b	;volatile
  1131  003388                     
  1132                           ; BSR set to: 3
  1133                           ;mcc_generated_files/tmr1.c: 86:     PIR3bits.TMR1IF = 0;
  1134  003388  98B1               	bcf	177,4,c	;volatile
  1135  00338A                     
  1136                           ; BSR set to: 3
  1137                           ;mcc_generated_files/tmr1.c: 89:     timer1ReloadVal=(uint16_t)((TMR1H << 8) | TMR1L);
  1138  00338A  511C               	movf	28,w,b	;volatile
  1139  00338C  0060 FC74  F5CA    	movff	797,??_TMR1_Initialize	;volatile
  1140  003392  0105               	movlb	5	; () banked
  1141  003394  6BCB               	clrf	(??_TMR1_Initialize+1)& (0+255),b
  1142  003396  C5CA  F5CB         	movff	??_TMR1_Initialize,??_TMR1_Initialize+1
  1143  00339A  6BCA               	clrf	??_TMR1_Initialize& (0+255),b
  1144  00339C  11CA               	iorwf	??_TMR1_Initialize& (0+255),w,b
  1145  00339E  6E57               	movwf	_timer1ReloadVal^(0+1280),c	;volatile
  1146  0033A0  51CB               	movf	(??_TMR1_Initialize+1)& (0+255),w,b
  1147  0033A2  6E58               	movwf	(_timer1ReloadVal+1)^(0+1280),c	;volatile
  1148  0033A4                     
  1149                           ; BSR set to: 5
  1150                           ;mcc_generated_files/tmr1.c: 92:     PIE3bits.TMR1IE = 1;
  1151  0033A4  88A1               	bsf	161,4,c	;volatile
  1152  0033A6                     
  1153                           ; BSR set to: 5
  1154                           ;mcc_generated_files/tmr1.c: 95:     TMR1_SetInterruptHandler(TMR1_DefaultInterruptHandl
      +                          er);
  1155  0033A6  0E30               	movlw	low _TMR1_DefaultInterruptHandler
  1156  0033A8  6FC8               	movwf	TMR1_SetInterruptHandler@InterruptHandler& (0+255),b
  1157  0033AA  0E38               	movlw	high _TMR1_DefaultInterruptHandler
  1158  0033AC  6FC9               	movwf	(TMR1_SetInterruptHandler@InterruptHandler+1)& (0+255),b
  1159  0033AE  ECC4  F01B         	call	_TMR1_SetInterruptHandler	;wreg free
  1160  0033B2                     
  1161                           ;mcc_generated_files/tmr1.c: 98:     T1CON = 0x21;
  1162  0033B2  0E21               	movlw	33
  1163  0033B4  0103               	movlb	3	; () banked
  1164  0033B6  6F1E               	movwf	30,b	;volatile
  1165  0033B8                     
  1166                           ; BSR set to: 3
  1167  0033B8  0012               	return		;funcret
  1168  0033BA                     __end_of_TMR1_Initialize:
  1169                           	callstack 0
  1170                           
  1171 ;; *************** function _TMR1_SetInterruptHandler *****************
  1172 ;; Defined at:
  1173 ;;		line 201 in file "mcc_generated_files/tmr1.c"
  1174 ;; Parameters:    Size  Location     Type
  1175 ;;  InterruptHan    2    0[BANK5 ] PTR FTN()void 
  1176 ;;		 -> TMR1_DefaultInterruptHandler(1), 
  1177 ;; Auto vars:     Size  Location     Type
  1178 ;;		None
  1179 ;; Return value:  Size  Location     Type
  1180 ;;                  1    wreg      void 
  1181 ;; Registers used:
  1182 ;;		wreg, status,2, status,0
  1183 ;; Tracked objects:
  1184 ;;		On entry : 0/0
  1185 ;;		On exit  : 0/0
  1186 ;;		Unchanged: 0/0
  1187 ;; Data sizes:     COMRAM   BANK5   BANK6   BANK7   BANK8   BANK9  BANK10  BANK11  BANK12  BANK13  BANK14  BANK15  BANK1
      +6  BANK17  BANK18  BANK19  BANK20  BANK21  BANK22  BANK23  BANK24  BANK25  BANK26  BANK27  BANK28  BANK29  BANK30  BANK3
      +1  BANK32  BANK33  BANK34  BANK35  BANK36  BANK37
  1188 ;;      Params:         0       2       0       0       0       0       0       0       0       0       0       0       
      +0       0       0       0       0       0       0       0       0       0       0       0       0       0       0       
      +0       0       0       0       0       0       0
  1189 ;;      Locals:         0       0       0       0       0       0       0       0       0       0       0       0       
      +0       0       0       0       0       0       0       0       0       0       0       0       0       0       0       
      +0       0       0       0       0       0       0
  1190 ;;      Temps:          0       0       0       0       0       0       0       0       0       0       0       0       
      +0       0       0       0       0       0       0       0       0       0       0       0       0       0       0       
      +0       0       0       0       0       0       0
  1191 ;;      Totals:         0       2       0       0       0       0       0       0       0       0       0       0       
      +0       0       0       0       0       0       0       0       0       0       0       0       0       0       0       
      +0       0       0       0       0       0       0
  1192 ;;Total ram usage:        2 bytes
  1193 ;; Hardware stack levels used:    1
  1194 ;; Hardware stack levels required when called:    7
  1195 ;; This function calls:
  1196 ;;		Nothing
  1197 ;; This function is called by:
  1198 ;;		_TMR1_Initialize
  1199 ;; This function uses a non-reentrant model
  1200 ;;
  1201                           
  1202                           	psect	text3
  1203  003788                     __ptext3:
  1204                           	callstack 0
  1205  003788                     _TMR1_SetInterruptHandler:
  1206                           	callstack 117
  1207  003788                     
  1208                           ;mcc_generated_files/tmr1.c: 202:     TMR1_InterruptHandler = InterruptHandler;
  1209  003788  C5C8  F5BE         	movff	TMR1_SetInterruptHandler@InterruptHandler,_TMR1_InterruptHandler
  1210  00378C  C5C9  F5BF         	movff	TMR1_SetInterruptHandler@InterruptHandler+1,_TMR1_InterruptHandler+1
  1211  003790  0012               	return		;funcret
  1212  003792                     __end_of_TMR1_SetInterruptHandler:
  1213                           	callstack 0
  1214                           
  1215 ;; *************** function _TMR0_Initialize *****************
  1216 ;; Defined at:
  1217 ;;		line 62 in file "mcc_generated_files/tmr0.c"
  1218 ;; Parameters:    Size  Location     Type
  1219 ;;		None
  1220 ;; Auto vars:     Size  Location     Type
  1221 ;;		None
  1222 ;; Return value:  Size  Location     Type
  1223 ;;                  1    wreg      void 
  1224 ;; Registers used:
  1225 ;;		wreg, status,2, status,0, cstack
  1226 ;; Tracked objects:
  1227 ;;		On entry : 0/0
  1228 ;;		On exit  : 0/0
  1229 ;;		Unchanged: 0/0
  1230 ;; Data sizes:     COMRAM   BANK5   BANK6   BANK7   BANK8   BANK9  BANK10  BANK11  BANK12  BANK13  BANK14  BANK15  BANK1
      +6  BANK17  BANK18  BANK19  BANK20  BANK21  BANK22  BANK23  BANK24  BANK25  BANK26  BANK27  BANK28  BANK29  BANK30  BANK3
      +1  BANK32  BANK33  BANK34  BANK35  BANK36  BANK37
  1231 ;;      Params:         0       0       0       0       0       0       0       0       0       0       0       0       
      +0       0       0       0       0       0       0       0       0       0       0       0       0       0       0       
      +0       0       0       0       0       0       0
  1232 ;;      Locals:         0       0       0       0       0       0       0       0       0       0       0       0       
      +0       0       0       0       0       0       0       0       0       0       0       0       0       0       0       
      +0       0       0       0       0       0       0
  1233 ;;      Temps:          0       0       0       0       0       0       0       0       0       0       0       0       
      +0       0       0       0       0       0       0       0       0       0       0       0       0       0       0       
      +0       0       0       0       0       0       0
  1234 ;;      Totals:         0       0       0       0       0       0       0       0       0       0       0       0       
      +0       0       0       0       0       0       0       0       0       0       0       0       0       0       0       
      +0       0       0       0       0       0       0
  1235 ;;Total ram usage:        0 bytes
  1236 ;; Hardware stack levels used:    1
  1237 ;; Hardware stack levels required when called:    8
  1238 ;; This function calls:
  1239 ;;		_TMR0_SetInterruptHandler
  1240 ;; This function is called by:
  1241 ;;		_SYSTEM_Initialize
  1242 ;; This function uses a non-reentrant model
  1243 ;;
  1244                           
  1245                           	psect	text4
  1246  00363A                     __ptext4:
  1247                           	callstack 0
  1248  00363A                     _TMR0_Initialize:
  1249                           	callstack 117
  1250  00363A                     
  1251                           ;mcc_generated_files/tmr0.c: 67:     T0CON1 = 0x47;
  1252  00363A  0E47               	movlw	71
  1253  00363C  0103               	movlb	3	; () banked
  1254  00363E  6F1B               	movwf	27,b	;volatile
  1255                           
  1256                           ;mcc_generated_files/tmr0.c: 70:     TMR0H = 0xC2;
  1257  003640  0EC2               	movlw	194
  1258  003642  6F19               	movwf	25,b	;volatile
  1259                           
  1260                           ;mcc_generated_files/tmr0.c: 73:     TMR0L = 0x00;
  1261  003644  0E00               	movlw	0
  1262  003646  6F18               	movwf	24,b	;volatile
  1263  003648                     
  1264                           ; BSR set to: 3
  1265                           ;mcc_generated_files/tmr0.c: 76:     PIR3bits.TMR0IF = 0;
  1266  003648  9EB1               	bcf	177,7,c	;volatile
  1267  00364A                     
  1268                           ; BSR set to: 3
  1269                           ;mcc_generated_files/tmr0.c: 79:     PIE3bits.TMR0IE = 1;
  1270  00364A  8EA1               	bsf	161,7,c	;volatile
  1271  00364C                     
  1272                           ; BSR set to: 3
  1273                           ;mcc_generated_files/tmr0.c: 82:     TMR0_SetInterruptHandler(TMR0_DefaultInterruptHandl
      +                          er);
  1274  00364C  0E32               	movlw	low _TMR0_DefaultInterruptHandler
  1275  00364E  0105               	movlb	5	; () banked
  1276  003650  6FC8               	movwf	TMR0_SetInterruptHandler@InterruptHandler& (0+255),b
  1277  003652  0E38               	movlw	high _TMR0_DefaultInterruptHandler
  1278  003654  6FC9               	movwf	(TMR0_SetInterruptHandler@InterruptHandler+1)& (0+255),b
  1279  003656  ECC9  F01B         	call	_TMR0_SetInterruptHandler	;wreg free
  1280  00365A                     
  1281                           ;mcc_generated_files/tmr0.c: 85:     T0CON0 = 0x80;
  1282  00365A  0E80               	movlw	128
  1283  00365C  0103               	movlb	3	; () banked
  1284  00365E  6F1A               	movwf	26,b	;volatile
  1285  003660                     
  1286                           ; BSR set to: 3
  1287  003660  0012               	return		;funcret
  1288  003662                     __end_of_TMR0_Initialize:
  1289                           	callstack 0
  1290                           
  1291 ;; *************** function _TMR0_SetInterruptHandler *****************
  1292 ;; Defined at:
  1293 ;;		line 155 in file "mcc_generated_files/tmr0.c"
  1294 ;; Parameters:    Size  Location     Type
  1295 ;;  InterruptHan    2    0[BANK5 ] PTR FTN()void 
  1296 ;;		 -> TMR0_DefaultInterruptHandler(1), 
  1297 ;; Auto vars:     Size  Location     Type
  1298 ;;		None
  1299 ;; Return value:  Size  Location     Type
  1300 ;;                  1    wreg      void 
  1301 ;; Registers used:
  1302 ;;		wreg, status,2, status,0
  1303 ;; Tracked objects:
  1304 ;;		On entry : 0/0
  1305 ;;		On exit  : 0/0
  1306 ;;		Unchanged: 0/0
  1307 ;; Data sizes:     COMRAM   BANK5   BANK6   BANK7   BANK8   BANK9  BANK10  BANK11  BANK12  BANK13  BANK14  BANK15  BANK1
      +6  BANK17  BANK18  BANK19  BANK20  BANK21  BANK22  BANK23  BANK24  BANK25  BANK26  BANK27  BANK28  BANK29  BANK30  BANK3
      +1  BANK32  BANK33  BANK34  BANK35  BANK36  BANK37
  1308 ;;      Params:         0       2       0       0       0       0       0       0       0       0       0       0       
      +0       0       0       0       0       0       0       0       0       0       0       0       0       0       0       
      +0       0       0       0       0       0       0
  1309 ;;      Locals:         0       0       0       0       0       0       0       0       0       0       0       0       
      +0       0       0       0       0       0       0       0       0       0       0       0       0       0       0       
      +0       0       0       0       0       0       0
  1310 ;;      Temps:          0       0       0       0       0       0       0       0       0       0       0       0       
      +0       0       0       0       0       0       0       0       0       0       0       0       0       0       0       
      +0       0       0       0       0       0       0
  1311 ;;      Totals:         0       2       0       0       0       0       0       0       0       0       0       0       
      +0       0       0       0       0       0       0       0       0       0       0       0       0       0       0       
      +0       0       0       0       0       0       0
  1312 ;;Total ram usage:        2 bytes
  1313 ;; Hardware stack levels used:    1
  1314 ;; Hardware stack levels required when called:    7
  1315 ;; This function calls:
  1316 ;;		Nothing
  1317 ;; This function is called by:
  1318 ;;		_TMR0_Initialize
  1319 ;; This function uses a non-reentrant model
  1320 ;;
  1321                           
  1322                           	psect	text5
  1323  003792                     __ptext5:
  1324                           	callstack 0
  1325  003792                     _TMR0_SetInterruptHandler:
  1326                           	callstack 117
  1327  003792                     
  1328                           ;mcc_generated_files/tmr0.c: 156:     TMR0_InterruptHandler = InterruptHandler;
  1329  003792  C5C8  F5BC         	movff	TMR0_SetInterruptHandler@InterruptHandler,_TMR0_InterruptHandler
  1330  003796  C5C9  F5BD         	movff	TMR0_SetInterruptHandler@InterruptHandler+1,_TMR0_InterruptHandler+1
  1331  00379A  0012               	return		;funcret
  1332  00379C                     __end_of_TMR0_SetInterruptHandler:
  1333                           	callstack 0
  1334                           
  1335 ;; *************** function _PMD_Initialize *****************
  1336 ;; Defined at:
  1337 ;;		line 79 in file "mcc_generated_files/mcc.c"
  1338 ;; Parameters:    Size  Location     Type
  1339 ;;		None
  1340 ;; Auto vars:     Size  Location     Type
  1341 ;;		None
  1342 ;; Return value:  Size  Location     Type
  1343 ;;                  1    wreg      void 
  1344 ;; Registers used:
  1345 ;;		wreg, status,2
  1346 ;; Tracked objects:
  1347 ;;		On entry : 0/0
  1348 ;;		On exit  : 0/0
  1349 ;;		Unchanged: 0/0
  1350 ;; Data sizes:     COMRAM   BANK5   BANK6   BANK7   BANK8   BANK9  BANK10  BANK11  BANK12  BANK13  BANK14  BANK15  BANK1
      +6  BANK17  BANK18  BANK19  BANK20  BANK21  BANK22  BANK23  BANK24  BANK25  BANK26  BANK27  BANK28  BANK29  BANK30  BANK3
      +1  BANK32  BANK33  BANK34  BANK35  BANK36  BANK37
  1351 ;;      Params:         0       0       0       0       0       0       0       0       0       0       0       0       
      +0       0       0       0       0       0       0       0       0       0       0       0       0       0       0       
      +0       0       0       0       0       0       0
  1352 ;;      Locals:         0       0       0       0       0       0       0       0       0       0       0       0       
      +0       0       0       0       0       0       0       0       0       0       0       0       0       0       0       
      +0       0       0       0       0       0       0
  1353 ;;      Temps:          0       0       0       0       0       0       0       0       0       0       0       0       
      +0       0       0       0       0       0       0       0       0       0       0       0       0       0       0       
      +0       0       0       0       0       0       0
  1354 ;;      Totals:         0       0       0       0       0       0       0       0       0       0       0       0       
      +0       0       0       0       0       0       0       0       0       0       0       0       0       0       0       
      +0       0       0       0       0       0       0
  1355 ;;Total ram usage:        0 bytes
  1356 ;; Hardware stack levels used:    1
  1357 ;; Hardware stack levels required when called:    7
  1358 ;; This function calls:
  1359 ;;		Nothing
  1360 ;; This function is called by:
  1361 ;;		_SYSTEM_Initialize
  1362 ;; This function uses a non-reentrant model
  1363 ;;
  1364                           
  1365                           	psect	text6
  1366  003662                     __ptext6:
  1367                           	callstack 0
  1368  003662                     _PMD_Initialize:
  1369                           	callstack 118
  1370  003662                     
  1371                           ;mcc_generated_files/mcc.c: 82:     PMD0 = 0x00;
  1372  003662  0E00               	movlw	0
  1373  003664  0100               	movlb	0	; () banked
  1374  003666  6F60               	movwf	96,b	;volatile
  1375                           
  1376                           ;mcc_generated_files/mcc.c: 84:     PMD1 = 0x00;
  1377  003668  0E00               	movlw	0
  1378  00366A  6F61               	movwf	97,b	;volatile
  1379                           
  1380                           ;mcc_generated_files/mcc.c: 86:     PMD2 = 0x00;
  1381  00366C  0E00               	movlw	0
  1382  00366E  6F62               	movwf	98,b	;volatile
  1383                           
  1384                           ;mcc_generated_files/mcc.c: 88:     PMD3 = 0x00;
  1385  003670  0E00               	movlw	0
  1386  003672  6F63               	movwf	99,b	;volatile
  1387                           
  1388                           ;mcc_generated_files/mcc.c: 90:     PMD4 = 0x00;
  1389  003674  0E00               	movlw	0
  1390  003676  6F64               	movwf	100,b	;volatile
  1391                           
  1392                           ;mcc_generated_files/mcc.c: 92:     PMD5 = 0x00;
  1393  003678  0E00               	movlw	0
  1394  00367A  6F65               	movwf	101,b	;volatile
  1395                           
  1396                           ;mcc_generated_files/mcc.c: 94:     PMD6 = 0x00;
  1397  00367C  0E00               	movlw	0
  1398  00367E  6F66               	movwf	102,b	;volatile
  1399                           
  1400                           ;mcc_generated_files/mcc.c: 96:     PMD7 = 0x00;
  1401  003680  0E00               	movlw	0
  1402  003682  6F67               	movwf	103,b	;volatile
  1403                           
  1404                           ;mcc_generated_files/mcc.c: 98:     PMD8 = 0x00;
  1405  003684  0E00               	movlw	0
  1406  003686  6F68               	movwf	104,b	;volatile
  1407  003688                     
  1408                           ; BSR set to: 0
  1409  003688  0012               	return		;funcret
  1410  00368A                     __end_of_PMD_Initialize:
  1411                           	callstack 0
  1412                           
  1413 ;; *************** function _PIN_MANAGER_Initialize *****************
  1414 ;; Defined at:
  1415 ;;		line 55 in file "mcc_generated_files/pin_manager.c"
  1416 ;; Parameters:    Size  Location     Type
  1417 ;;		None
  1418 ;; Auto vars:     Size  Location     Type
  1419 ;;		None
  1420 ;; Return value:  Size  Location     Type
  1421 ;;                  1    wreg      void 
  1422 ;; Registers used:
  1423 ;;		wreg, status,2
  1424 ;; Tracked objects:
  1425 ;;		On entry : 0/0
  1426 ;;		On exit  : 0/0
  1427 ;;		Unchanged: 0/0
  1428 ;; Data sizes:     COMRAM   BANK5   BANK6   BANK7   BANK8   BANK9  BANK10  BANK11  BANK12  BANK13  BANK14  BANK15  BANK1
      +6  BANK17  BANK18  BANK19  BANK20  BANK21  BANK22  BANK23  BANK24  BANK25  BANK26  BANK27  BANK28  BANK29  BANK30  BANK3
      +1  BANK32  BANK33  BANK34  BANK35  BANK36  BANK37
  1429 ;;      Params:         0       0       0       0       0       0       0       0       0       0       0       0       
      +0       0       0       0       0       0       0       0       0       0       0       0       0       0       0       
      +0       0       0       0       0       0       0
  1430 ;;      Locals:         0       0       0       0       0       0       0       0       0       0       0       0       
      +0       0       0       0       0       0       0       0       0       0       0       0       0       0       0       
      +0       0       0       0       0       0       0
  1431 ;;      Temps:          0       0       0       0       0       0       0       0       0       0       0       0       
      +0       0       0       0       0       0       0       0       0       0       0       0       0       0       0       
      +0       0       0       0       0       0       0
  1432 ;;      Totals:         0       0       0       0       0       0       0       0       0       0       0       0       
      +0       0       0       0       0       0       0       0       0       0       0       0       0       0       0       
      +0       0       0       0       0       0       0
  1433 ;;Total ram usage:        0 bytes
  1434 ;; Hardware stack levels used:    1
  1435 ;; Hardware stack levels required when called:    7
  1436 ;; This function calls:
  1437 ;;		Nothing
  1438 ;; This function is called by:
  1439 ;;		_SYSTEM_Initialize
  1440 ;; This function uses a non-reentrant model
  1441 ;;
  1442                           
  1443                           	psect	text7
  1444  00312C                     __ptext7:
  1445                           	callstack 0
  1446  00312C                     _PIN_MANAGER_Initialize:
  1447                           	callstack 118
  1448  00312C                     
  1449                           ;mcc_generated_files/pin_manager.c: 60:     LATA = 0x00;
  1450  00312C  0E00               	movlw	0
  1451  00312E  6EBE               	movwf	190,c	;volatile
  1452                           
  1453                           ;mcc_generated_files/pin_manager.c: 61:     LATB = 0x00;
  1454  003130  0E00               	movlw	0
  1455  003132  6EBF               	movwf	191,c	;volatile
  1456                           
  1457                           ;mcc_generated_files/pin_manager.c: 62:     LATC = 0x00;
  1458  003134  0E00               	movlw	0
  1459  003136  6EC0               	movwf	192,c	;volatile
  1460                           
  1461                           ;mcc_generated_files/pin_manager.c: 67:     TRISE = 0x08;
  1462  003138  0E08               	movlw	8
  1463  00313A  6ECA               	movwf	202,c	;volatile
  1464                           
  1465                           ;mcc_generated_files/pin_manager.c: 68:     TRISA = 0xEF;
  1466  00313C  0EEF               	movlw	239
  1467  00313E  6EC6               	movwf	198,c	;volatile
  1468                           
  1469                           ;mcc_generated_files/pin_manager.c: 69:     TRISB = 0xCF;
  1470  003140  0ECF               	movlw	207
  1471  003142  6EC7               	movwf	199,c	;volatile
  1472                           
  1473                           ;mcc_generated_files/pin_manager.c: 70:     TRISC = 0xE7;
  1474  003144  0EE7               	movlw	231
  1475  003146  6EC8               	movwf	200,c	;volatile
  1476                           
  1477                           ;mcc_generated_files/pin_manager.c: 75:     ANSELC = 0x67;
  1478  003148  0E67               	movlw	103
  1479  00314A  0104               	movlb	4	; () banked
  1480  00314C  6F10               	movwf	16,b	;volatile
  1481                           
  1482                           ;mcc_generated_files/pin_manager.c: 76:     ANSELB = 0xF6;
  1483  00314E  0EF6               	movlw	246
  1484  003150  6F08               	movwf	8,b	;volatile
  1485  003152                     
  1486                           ; BSR set to: 4
  1487                           ;mcc_generated_files/pin_manager.c: 77:     ANSELA = 0xFF;
  1488  003152  6900               	setf	0,b	;volatile
  1489                           
  1490                           ;mcc_generated_files/pin_manager.c: 82:     WPUE = 0x00;
  1491  003154  0E00               	movlw	0
  1492  003156  6F21               	movwf	33,b	;volatile
  1493                           
  1494                           ;mcc_generated_files/pin_manager.c: 83:     WPUB = 0x00;
  1495  003158  0E00               	movlw	0
  1496  00315A  6F09               	movwf	9,b	;volatile
  1497                           
  1498                           ;mcc_generated_files/pin_manager.c: 84:     WPUA = 0x00;
  1499  00315C  0E00               	movlw	0
  1500  00315E  6F01               	movwf	1,b	;volatile
  1501                           
  1502                           ;mcc_generated_files/pin_manager.c: 85:     WPUC = 0x00;
  1503  003160  0E00               	movlw	0
  1504  003162  6F11               	movwf	17,b	;volatile
  1505                           
  1506                           ;mcc_generated_files/pin_manager.c: 90:     ODCONA = 0x00;
  1507  003164  0E00               	movlw	0
  1508  003166  6F02               	movwf	2,b	;volatile
  1509                           
  1510                           ;mcc_generated_files/pin_manager.c: 91:     ODCONB = 0x00;
  1511  003168  0E00               	movlw	0
  1512  00316A  6F0A               	movwf	10,b	;volatile
  1513                           
  1514                           ;mcc_generated_files/pin_manager.c: 92:     ODCONC = 0x18;
  1515  00316C  0E18               	movlw	24
  1516  00316E  6F12               	movwf	18,b	;volatile
  1517  003170                     
  1518                           ; BSR set to: 4
  1519                           ;mcc_generated_files/pin_manager.c: 97:     SLRCONA = 0xFF;
  1520  003170  6903               	setf	3,b	;volatile
  1521  003172                     
  1522                           ; BSR set to: 4
  1523                           ;mcc_generated_files/pin_manager.c: 98:     SLRCONB = 0xFF;
  1524  003172  690B               	setf	11,b	;volatile
  1525  003174                     
  1526                           ; BSR set to: 4
  1527                           ;mcc_generated_files/pin_manager.c: 99:     SLRCONC = 0xFF;
  1528  003174  6913               	setf	19,b	;volatile
  1529  003176                     
  1530                           ; BSR set to: 4
  1531                           ;mcc_generated_files/pin_manager.c: 104:     INLVLA = 0xFF;
  1532  003176  6904               	setf	4,b	;volatile
  1533  003178                     
  1534                           ; BSR set to: 4
  1535                           ;mcc_generated_files/pin_manager.c: 105:     INLVLB = 0xFF;
  1536  003178  690C               	setf	12,b	;volatile
  1537  00317A                     
  1538                           ; BSR set to: 4
  1539                           ;mcc_generated_files/pin_manager.c: 106:     INLVLC = 0xFF;
  1540  00317A  6914               	setf	20,b	;volatile
  1541                           
  1542                           ;mcc_generated_files/pin_manager.c: 107:     INLVLE = 0x08;
  1543  00317C  0E08               	movlw	8
  1544  00317E  6F24               	movwf	36,b	;volatile
  1545                           
  1546                           ;mcc_generated_files/pin_manager.c: 116:     ADACTPPS = 0x17;
  1547  003180  0E17               	movlw	23
  1548  003182  0102               	movlb	2	; () banked
  1549  003184  6F69               	movwf	105,b	;volatile
  1550                           
  1551                           ;mcc_generated_files/pin_manager.c: 117:     I2C1SDAPPS = 0x14;
  1552  003186  0E14               	movlw	20
  1553  003188  6F70               	movwf	112,b	;volatile
  1554                           
  1555                           ;mcc_generated_files/pin_manager.c: 118:     RC3PPS = 0x37;
  1556  00318A  0E37               	movlw	55
  1557  00318C  6F14               	movwf	20,b	;volatile
  1558                           
  1559                           ;mcc_generated_files/pin_manager.c: 119:     INT0PPS = 0x08;
  1560  00318E  0E08               	movlw	8
  1561  003190  6F3E               	movwf	62,b	;volatile
  1562                           
  1563                           ;mcc_generated_files/pin_manager.c: 120:     RC4PPS = 0x38;
  1564  003192  0E38               	movlw	56
  1565  003194  6F15               	movwf	21,b	;volatile
  1566                           
  1567                           ;mcc_generated_files/pin_manager.c: 121:     CANRXPPS = 0x0B;
  1568  003196  0E0B               	movlw	11
  1569  003198  6F3D               	movwf	61,b	;volatile
  1570                           
  1571                           ;mcc_generated_files/pin_manager.c: 122:     RB4PPS = 0x46;
  1572  00319A  0E46               	movlw	70
  1573  00319C  6F0D               	movwf	13,b	;volatile
  1574                           
  1575                           ;mcc_generated_files/pin_manager.c: 123:     I2C1SCLPPS = 0x13;
  1576  00319E  0E13               	movlw	19
  1577  0031A0  6F71               	movwf	113,b	;volatile
  1578  0031A2                     
  1579                           ; BSR set to: 2
  1580  0031A2  0012               	return		;funcret
  1581  0031A4                     __end_of_PIN_MANAGER_Initialize:
  1582                           	callstack 0
  1583                           
  1584 ;; *************** function _OSCILLATOR_Initialize *****************
  1585 ;; Defined at:
  1586 ;;		line 65 in file "mcc_generated_files/mcc.c"
  1587 ;; Parameters:    Size  Location     Type
  1588 ;;		None
  1589 ;; Auto vars:     Size  Location     Type
  1590 ;;		None
  1591 ;; Return value:  Size  Location     Type
  1592 ;;                  1    wreg      void 
  1593 ;; Registers used:
  1594 ;;		wreg, status,2
  1595 ;; Tracked objects:
  1596 ;;		On entry : 0/0
  1597 ;;		On exit  : 0/0
  1598 ;;		Unchanged: 0/0
  1599 ;; Data sizes:     COMRAM   BANK5   BANK6   BANK7   BANK8   BANK9  BANK10  BANK11  BANK12  BANK13  BANK14  BANK15  BANK1
      +6  BANK17  BANK18  BANK19  BANK20  BANK21  BANK22  BANK23  BANK24  BANK25  BANK26  BANK27  BANK28  BANK29  BANK30  BANK3
      +1  BANK32  BANK33  BANK34  BANK35  BANK36  BANK37
  1600 ;;      Params:         0       0       0       0       0       0       0       0       0       0       0       0       
      +0       0       0       0       0       0       0       0       0       0       0       0       0       0       0       
      +0       0       0       0       0       0       0
  1601 ;;      Locals:         0       0       0       0       0       0       0       0       0       0       0       0       
      +0       0       0       0       0       0       0       0       0       0       0       0       0       0       0       
      +0       0       0       0       0       0       0
  1602 ;;      Temps:          0       0       0       0       0       0       0       0       0       0       0       0       
      +0       0       0       0       0       0       0       0       0       0       0       0       0       0       0       
      +0       0       0       0       0       0       0
  1603 ;;      Totals:         0       0       0       0       0       0       0       0       0       0       0       0       
      +0       0       0       0       0       0       0       0       0       0       0       0       0       0       0       
      +0       0       0       0       0       0       0
  1604 ;;Total ram usage:        0 bytes
  1605 ;; Hardware stack levels used:    1
  1606 ;; Hardware stack levels required when called:    7
  1607 ;; This function calls:
  1608 ;;		Nothing
  1609 ;; This function is called by:
  1610 ;;		_SYSTEM_Initialize
  1611 ;; This function uses a non-reentrant model
  1612 ;;
  1613                           
  1614                           	psect	text8
  1615  0036F8                     __ptext8:
  1616                           	callstack 0
  1617  0036F8                     _OSCILLATOR_Initialize:
  1618                           	callstack 118
  1619  0036F8                     
  1620                           ;mcc_generated_files/mcc.c: 68:     OSCCON1 = 0x70;
  1621  0036F8  0E70               	movlw	112
  1622  0036FA  0100               	movlb	0	; () banked
  1623  0036FC  6FAD               	movwf	173,b	;volatile
  1624                           
  1625                           ;mcc_generated_files/mcc.c: 70:     OSCCON3 = 0x00;
  1626  0036FE  0E00               	movlw	0
  1627  003700  6FAF               	movwf	175,b	;volatile
  1628                           
  1629                           ;mcc_generated_files/mcc.c: 72:     OSCEN = 0x00;
  1630  003702  0E00               	movlw	0
  1631  003704  6FB3               	movwf	179,b	;volatile
  1632                           
  1633                           ;mcc_generated_files/mcc.c: 74:     OSCFRQ = 0x02;
  1634  003706  0E02               	movlw	2
  1635  003708  6FB1               	movwf	177,b	;volatile
  1636                           
  1637                           ;mcc_generated_files/mcc.c: 76:     OSCTUNE = 0x00;
  1638  00370A  0E00               	movlw	0
  1639  00370C  6FB0               	movwf	176,b	;volatile
  1640  00370E                     
  1641                           ; BSR set to: 0
  1642  00370E  0012               	return		;funcret
  1643  003710                     __end_of_OSCILLATOR_Initialize:
  1644                           	callstack 0
  1645                           
  1646 ;; *************** function _INTERRUPT_Initialize *****************
  1647 ;; Defined at:
  1648 ;;		line 52 in file "mcc_generated_files/interrupt_manager.c"
  1649 ;; Parameters:    Size  Location     Type
  1650 ;;		None
  1651 ;; Auto vars:     Size  Location     Type
  1652 ;;		None
  1653 ;; Return value:  Size  Location     Type
  1654 ;;                  1    wreg      void 
  1655 ;; Registers used:
  1656 ;;		None
  1657 ;; Tracked objects:
  1658 ;;		On entry : 0/0
  1659 ;;		On exit  : 0/0
  1660 ;;		Unchanged: 0/0
  1661 ;; Data sizes:     COMRAM   BANK5   BANK6   BANK7   BANK8   BANK9  BANK10  BANK11  BANK12  BANK13  BANK14  BANK15  BANK1
      +6  BANK17  BANK18  BANK19  BANK20  BANK21  BANK22  BANK23  BANK24  BANK25  BANK26  BANK27  BANK28  BANK29  BANK30  BANK3
      +1  BANK32  BANK33  BANK34  BANK35  BANK36  BANK37
  1662 ;;      Params:         0       0       0       0       0       0       0       0       0       0       0       0       
      +0       0       0       0       0       0       0       0       0       0       0       0       0       0       0       
      +0       0       0       0       0       0       0
  1663 ;;      Locals:         0       0       0       0       0       0       0       0       0       0       0       0       
      +0       0       0       0       0       0       0       0       0       0       0       0       0       0       0       
      +0       0       0       0       0       0       0
  1664 ;;      Temps:          0       0       0       0       0       0       0       0       0       0       0       0       
      +0       0       0       0       0       0       0       0       0       0       0       0       0       0       0       
      +0       0       0       0       0       0       0
  1665 ;;      Totals:         0       0       0       0       0       0       0       0       0       0       0       0       
      +0       0       0       0       0       0       0       0       0       0       0       0       0       0       0       
      +0       0       0       0       0       0       0
  1666 ;;Total ram usage:        0 bytes
  1667 ;; Hardware stack levels used:    1
  1668 ;; Hardware stack levels required when called:    7
  1669 ;; This function calls:
  1670 ;;		Nothing
  1671 ;; This function is called by:
  1672 ;;		_SYSTEM_Initialize
  1673 ;; This function uses a non-reentrant model
  1674 ;;
  1675                           
  1676                           	psect	text9
  1677  003826                     __ptext9:
  1678                           	callstack 0
  1679  003826                     _INTERRUPT_Initialize:
  1680                           	callstack 118
  1681  003826                     
  1682                           ;mcc_generated_files/interrupt_manager.c: 55:     INTCON0bits.IPEN = 0;
  1683  003826  9AD6               	bcf	214,5,c	;volatile
  1684  003828  0012               	return		;funcret
  1685  00382A                     __end_of_INTERRUPT_Initialize:
  1686                           	callstack 0
  1687                           
  1688 ;; *************** function _I2C1_Initialize *****************
  1689 ;; Defined at:
  1690 ;;		line 183 in file "mcc_generated_files/i2c1_master.c"
  1691 ;; Parameters:    Size  Location     Type
  1692 ;;		None
  1693 ;; Auto vars:     Size  Location     Type
  1694 ;;		None
  1695 ;; Return value:  Size  Location     Type
  1696 ;;                  1    wreg      void 
  1697 ;; Registers used:
  1698 ;;		wreg, status,2
  1699 ;; Tracked objects:
  1700 ;;		On entry : 0/0
  1701 ;;		On exit  : 0/0
  1702 ;;		Unchanged: 0/0
  1703 ;; Data sizes:     COMRAM   BANK5   BANK6   BANK7   BANK8   BANK9  BANK10  BANK11  BANK12  BANK13  BANK14  BANK15  BANK1
      +6  BANK17  BANK18  BANK19  BANK20  BANK21  BANK22  BANK23  BANK24  BANK25  BANK26  BANK27  BANK28  BANK29  BANK30  BANK3
      +1  BANK32  BANK33  BANK34  BANK35  BANK36  BANK37
  1704 ;;      Params:         0       0       0       0       0       0       0       0       0       0       0       0       
      +0       0       0       0       0       0       0       0       0       0       0       0       0       0       0       
      +0       0       0       0       0       0       0
  1705 ;;      Locals:         0       0       0       0       0       0       0       0       0       0       0       0       
      +0       0       0       0       0       0       0       0       0       0       0       0       0       0       0       
      +0       0       0       0       0       0       0
  1706 ;;      Temps:          0       0       0       0       0       0       0       0       0       0       0       0       
      +0       0       0       0       0       0       0       0       0       0       0       0       0       0       0       
      +0       0       0       0       0       0       0
  1707 ;;      Totals:         0       0       0       0       0       0       0       0       0       0       0       0       
      +0       0       0       0       0       0       0       0       0       0       0       0       0       0       0       
      +0       0       0       0       0       0       0
  1708 ;;Total ram usage:        0 bytes
  1709 ;; Hardware stack levels used:    1
  1710 ;; Hardware stack levels required when called:    7
  1711 ;; This function calls:
  1712 ;;		Nothing
  1713 ;; This function is called by:
  1714 ;;		_SYSTEM_Initialize
  1715 ;; This function uses a non-reentrant model
  1716 ;;
  1717                           
  1718                           	psect	text10
  1719  0035BA                     __ptext10:
  1720                           	callstack 0
  1721  0035BA                     _I2C1_Initialize:
  1722                           	callstack 118
  1723  0035BA                     
  1724                           ;mcc_generated_files/i2c1_master.c: 186:     I2C1CON0 = 0x04;
  1725  0035BA  0E04               	movlw	4
  1726  0035BC  0102               	movlb	2	; () banked
  1727  0035BE  6F94               	movwf	148,b	;volatile
  1728                           
  1729                           ;mcc_generated_files/i2c1_master.c: 188:     I2C1CON1 = 0x80;
  1730  0035C0  0E80               	movlw	128
  1731  0035C2  6F95               	movwf	149,b	;volatile
  1732                           
  1733                           ;mcc_generated_files/i2c1_master.c: 190:     I2C1CON2 = 0x18;
  1734  0035C4  0E18               	movlw	24
  1735  0035C6  6F96               	movwf	150,b	;volatile
  1736                           
  1737                           ;mcc_generated_files/i2c1_master.c: 192:     I2C1CLK = 0x03;
  1738  0035C8  0E03               	movlw	3
  1739  0035CA  6F9E               	movwf	158,b	;volatile
  1740                           
  1741                           ;mcc_generated_files/i2c1_master.c: 194:     I2C1PIR = 0x00;
  1742  0035CC  0E00               	movlw	0
  1743  0035CE  6F9A               	movwf	154,b	;volatile
  1744                           
  1745                           ;mcc_generated_files/i2c1_master.c: 196:     I2C1PIE = 0x00;
  1746  0035D0  0E00               	movlw	0
  1747  0035D2  6F9B               	movwf	155,b	;volatile
  1748                           
  1749                           ;mcc_generated_files/i2c1_master.c: 198:     I2C1ERR = 0x00;
  1750  0035D4  0E00               	movlw	0
  1751  0035D6  6F97               	movwf	151,b	;volatile
  1752                           
  1753                           ;mcc_generated_files/i2c1_master.c: 200:     I2C1CNTL = 0x00;
  1754  0035D8  0E00               	movlw	0
  1755  0035DA  6F8C               	movwf	140,b	;volatile
  1756                           
  1757                           ;mcc_generated_files/i2c1_master.c: 201:     I2C1CNTH = 0x00;
  1758  0035DC  0E00               	movlw	0
  1759  0035DE  6F8D               	movwf	141,b	;volatile
  1760                           
  1761                           ;mcc_generated_files/i2c1_master.c: 203:     I2C1BAUD = 0x00;
  1762  0035E0  0E00               	movlw	0
  1763  0035E2  6F9D               	movwf	157,b	;volatile
  1764  0035E4                     
  1765                           ; BSR set to: 2
  1766  0035E4  0012               	return		;funcret
  1767  0035E6                     __end_of_I2C1_Initialize:
  1768                           	callstack 0
  1769                           
  1770 ;; *************** function _EXT_INT_Initialize *****************
  1771 ;; Defined at:
  1772 ;;		line 66 in file "mcc_generated_files/ext_int.c"
  1773 ;; Parameters:    Size  Location     Type
  1774 ;;		None
  1775 ;; Auto vars:     Size  Location     Type
  1776 ;;		None
  1777 ;; Return value:  Size  Location     Type
  1778 ;;                  1    wreg      void 
  1779 ;; Registers used:
  1780 ;;		wreg, status,2, status,0, cstack
  1781 ;; Tracked objects:
  1782 ;;		On entry : 0/0
  1783 ;;		On exit  : 0/0
  1784 ;;		Unchanged: 0/0
  1785 ;; Data sizes:     COMRAM   BANK5   BANK6   BANK7   BANK8   BANK9  BANK10  BANK11  BANK12  BANK13  BANK14  BANK15  BANK1
      +6  BANK17  BANK18  BANK19  BANK20  BANK21  BANK22  BANK23  BANK24  BANK25  BANK26  BANK27  BANK28  BANK29  BANK30  BANK3
      +1  BANK32  BANK33  BANK34  BANK35  BANK36  BANK37
  1786 ;;      Params:         0       0       0       0       0       0       0       0       0       0       0       0       
      +0       0       0       0       0       0       0       0       0       0       0       0       0       0       0       
      +0       0       0       0       0       0       0
  1787 ;;      Locals:         0       0       0       0       0       0       0       0       0       0       0       0       
      +0       0       0       0       0       0       0       0       0       0       0       0       0       0       0       
      +0       0       0       0       0       0       0
  1788 ;;      Temps:          0       0       0       0       0       0       0       0       0       0       0       0       
      +0       0       0       0       0       0       0       0       0       0       0       0       0       0       0       
      +0       0       0       0       0       0       0
  1789 ;;      Totals:         0       0       0       0       0       0       0       0       0       0       0       0       
      +0       0       0       0       0       0       0       0       0       0       0       0       0       0       0       
      +0       0       0       0       0       0       0
  1790 ;;Total ram usage:        0 bytes
  1791 ;; Hardware stack levels used:    1
  1792 ;; Hardware stack levels required when called:    8
  1793 ;; This function calls:
  1794 ;;		_INT0_SetInterruptHandler
  1795 ;; This function is called by:
  1796 ;;		_SYSTEM_Initialize
  1797 ;; This function uses a non-reentrant model
  1798 ;;
  1799                           
  1800                           	psect	text11
  1801  003728                     __ptext11:
  1802                           	callstack 0
  1803  003728                     _EXT_INT_Initialize:
  1804                           	callstack 117
  1805  003728                     
  1806                           ;mcc_generated_files/ext_int.c: 71:     (PIR1bits.INT0IF = 0);
  1807  003728  90AF               	bcf	175,0,c	;volatile
  1808                           
  1809                           ;mcc_generated_files/ext_int.c: 72:     (INTCON0bits.INT0EDG = 1);
  1810  00372A  80D6               	bsf	214,0,c	;volatile
  1811  00372C                     
  1812                           ;mcc_generated_files/ext_int.c: 74:     INT0_SetInterruptHandler(INT0_DefaultInterruptHa
      +                          ndler);
  1813  00372C  0E34               	movlw	low _INT0_DefaultInterruptHandler
  1814  00372E  0105               	movlb	5	; () banked
  1815  003730  6FC8               	movwf	INT0_SetInterruptHandler@InterruptHandler& (0+255),b
  1816  003732  0E38               	movlw	high _INT0_DefaultInterruptHandler
  1817  003734  6FC9               	movwf	(INT0_SetInterruptHandler@InterruptHandler+1)& (0+255),b
  1818  003736  ECCE  F01B         	call	_INT0_SetInterruptHandler	;wreg free
  1819  00373A                     
  1820                           ;mcc_generated_files/ext_int.c: 75:     (PIE1bits.INT0IE = 1);
  1821  00373A  809F               	bsf	159,0,c	;volatile
  1822  00373C  0012               	return		;funcret
  1823  00373E                     __end_of_EXT_INT_Initialize:
  1824                           	callstack 0
  1825                           
  1826 ;; *************** function _INT0_SetInterruptHandler *****************
  1827 ;; Defined at:
  1828 ;;		line 58 in file "mcc_generated_files/ext_int.c"
  1829 ;; Parameters:    Size  Location     Type
  1830 ;;  InterruptHan    2    0[BANK5 ] PTR FTN()void 
  1831 ;;		 -> INT0_DefaultInterruptHandler(1), 
  1832 ;; Auto vars:     Size  Location     Type
  1833 ;;		None
  1834 ;; Return value:  Size  Location     Type
  1835 ;;                  1    wreg      void 
  1836 ;; Registers used:
  1837 ;;		wreg, status,2, status,0
  1838 ;; Tracked objects:
  1839 ;;		On entry : 0/0
  1840 ;;		On exit  : 0/0
  1841 ;;		Unchanged: 0/0
  1842 ;; Data sizes:     COMRAM   BANK5   BANK6   BANK7   BANK8   BANK9  BANK10  BANK11  BANK12  BANK13  BANK14  BANK15  BANK1
      +6  BANK17  BANK18  BANK19  BANK20  BANK21  BANK22  BANK23  BANK24  BANK25  BANK26  BANK27  BANK28  BANK29  BANK30  BANK3
      +1  BANK32  BANK33  BANK34  BANK35  BANK36  BANK37
  1843 ;;      Params:         0       2       0       0       0       0       0       0       0       0       0       0       
      +0       0       0       0       0       0       0       0       0       0       0       0       0       0       0       
      +0       0       0       0       0       0       0
  1844 ;;      Locals:         0       0       0       0       0       0       0       0       0       0       0       0       
      +0       0       0       0       0       0       0       0       0       0       0       0       0       0       0       
      +0       0       0       0       0       0       0
  1845 ;;      Temps:          0       0       0       0       0       0       0       0       0       0       0       0       
      +0       0       0       0       0       0       0       0       0       0       0       0       0       0       0       
      +0       0       0       0       0       0       0
  1846 ;;      Totals:         0       2       0       0       0       0       0       0       0       0       0       0       
      +0       0       0       0       0       0       0       0       0       0       0       0       0       0       0       
      +0       0       0       0       0       0       0
  1847 ;;Total ram usage:        2 bytes
  1848 ;; Hardware stack levels used:    1
  1849 ;; Hardware stack levels required when called:    7
  1850 ;; This function calls:
  1851 ;;		Nothing
  1852 ;; This function is called by:
  1853 ;;		_EXT_INT_Initialize
  1854 ;; This function uses a non-reentrant model
  1855 ;;
  1856                           
  1857                           	psect	text12
  1858  00379C                     __ptext12:
  1859                           	callstack 0
  1860  00379C                     _INT0_SetInterruptHandler:
  1861                           	callstack 117
  1862  00379C                     
  1863                           ;mcc_generated_files/ext_int.c: 59:     INT0_InterruptHandler = InterruptHandler;
  1864  00379C  C5C8  F5C0         	movff	INT0_SetInterruptHandler@InterruptHandler,_INT0_InterruptHandler
  1865  0037A0  C5C9  F5C1         	movff	INT0_SetInterruptHandler@InterruptHandler+1,_INT0_InterruptHandler+1
  1866  0037A4  0012               	return		;funcret
  1867  0037A6                     __end_of_INT0_SetInterruptHandler:
  1868                           	callstack 0
  1869                           
  1870 ;; *************** function _CAN1_Initialize *****************
  1871 ;; Defined at:
  1872 ;;		line 237 in file "mcc_generated_files/can1.c"
  1873 ;; Parameters:    Size  Location     Type
  1874 ;;		None
  1875 ;; Auto vars:     Size  Location     Type
  1876 ;;		None
  1877 ;; Return value:  Size  Location     Type
  1878 ;;                  1    wreg      void 
  1879 ;; Registers used:
  1880 ;;		wreg, fsr2l, fsr2h, status,2, status,0, prodl, prodh, cstack
  1881 ;; Tracked objects:
  1882 ;;		On entry : 0/0
  1883 ;;		On exit  : 0/0
  1884 ;;		Unchanged: 0/0
  1885 ;; Data sizes:     COMRAM   BANK5   BANK6   BANK7   BANK8   BANK9  BANK10  BANK11  BANK12  BANK13  BANK14  BANK15  BANK1
      +6  BANK17  BANK18  BANK19  BANK20  BANK21  BANK22  BANK23  BANK24  BANK25  BANK26  BANK27  BANK28  BANK29  BANK30  BANK3
      +1  BANK32  BANK33  BANK34  BANK35  BANK36  BANK37
  1886 ;;      Params:         0       0       0       0       0       0       0       0       0       0       0       0       
      +0       0       0       0       0       0       0       0       0       0       0       0       0       0       0       
      +0       0       0       0       0       0       0
  1887 ;;      Locals:         0       0       0       0       0       0       0       0       0       0       0       0       
      +0       0       0       0       0       0       0       0       0       0       0       0       0       0       0       
      +0       0       0       0       0       0       0
  1888 ;;      Temps:          0       0       0       0       0       0       0       0       0       0       0       0       
      +0       0       0       0       0       0       0       0       0       0       0       0       0       0       0       
      +0       0       0       0       0       0       0
  1889 ;;      Totals:         0       0       0       0       0       0       0       0       0       0       0       0       
      +0       0       0       0       0       0       0       0       0       0       0       0       0       0       0       
      +0       0       0       0       0       0       0
  1890 ;;Total ram usage:        0 bytes
  1891 ;; Hardware stack levels used:    1
  1892 ;; Hardware stack levels required when called:    9
  1893 ;; This function calls:
  1894 ;;		_CAN1_BitRateConfiguration
  1895 ;;		_CAN1_ErrorNotificationInterruptEnable
  1896 ;;		_CAN1_OperationModeSet
  1897 ;;		_CAN1_RX_FIFO_Configuration
  1898 ;;		_CAN1_RX_FIFO_FilterMaskConfiguration
  1899 ;;		_CAN1_RX_FIFO_ResetInfo
  1900 ;;		_CAN1_TX_FIFO_Configuration
  1901 ;; This function is called by:
  1902 ;;		_SYSTEM_Initialize
  1903 ;; This function uses a non-reentrant model
  1904 ;;
  1905                           
  1906                           	psect	text13
  1907  0032CE                     __ptext13:
  1908                           	callstack 0
  1909  0032CE                     _CAN1_Initialize:
  1910                           	callstack 116
  1911  0032CE                     
  1912                           ;mcc_generated_files/can1.c: 240:     C1CONHbits.ON = 1;
  1913  0032CE  0101               	movlb	1	; () banked
  1914  0032D0  8F01               	bsf	1,7,b	;volatile
  1915  0032D2                     
  1916                           ; BSR set to: 1
  1917                           ;mcc_generated_files/can1.c: 242:     if (CAN_OP_MODE_REQUEST_SUCCESS == CAN1_OperationM
      +                          odeSet(CAN_CONFIGURATION_MODE))
  1918  0032D2  0E04               	movlw	4
  1919  0032D4  EC7F  F017         	call	_CAN1_OperationModeSet
  1920  0032D8  0900               	iorlw	0
  1921  0032DA  A4D8               	btfss	status,2,c
  1922  0032DC  EF72  F019         	goto	u2241
  1923  0032E0  EF74  F019         	goto	u2240
  1924  0032E4                     u2241:
  1925  0032E4  EF92  F019         	goto	l289
  1926  0032E8                     u2240:
  1927  0032E8                     
  1928                           ;mcc_generated_files/can1.c: 243:     {;mcc_generated_files/can1.c: 245:         C1FIFOB
      +                          A = 0x2600;
  1929  0032E8  0E00               	movlw	0
  1930  0032EA  0101               	movlb	1	; () banked
  1931  0032EC  6F4C               	movwf	76,b	;volatile
  1932  0032EE  0E26               	movlw	38
  1933  0032F0  6F4D               	movwf	77,b	;volatile
  1934  0032F2  0E00               	movlw	0
  1935  0032F4  6F4E               	movwf	78,b	;volatile
  1936  0032F6  0E00               	movlw	0
  1937  0032F8  6F4F               	movwf	79,b	;volatile
  1938                           
  1939                           ;mcc_generated_files/can1.c: 248:         C1CONL = 0x60;
  1940  0032FA  0E60               	movlw	96
  1941  0032FC  6F00               	movwf	0,b	;volatile
  1942                           
  1943                           ;mcc_generated_files/can1.c: 251:         C1CONH = 0x97;
  1944  0032FE  0E97               	movlw	151
  1945  003300  6F01               	movwf	1,b	;volatile
  1946                           
  1947                           ;mcc_generated_files/can1.c: 254:         C1CONU = 0x10;
  1948  003302  0E10               	movlw	16
  1949  003304  6F02               	movwf	2,b	;volatile
  1950  003306                     
  1951                           ; BSR set to: 1
  1952                           ;mcc_generated_files/can1.c: 256:         CAN1_BitRateConfiguration();
  1953  003306  ECB3  F01B         	call	_CAN1_BitRateConfiguration	;wreg free
  1954  00330A                     
  1955                           ;mcc_generated_files/can1.c: 257:         CAN1_TX_FIFO_Configuration();
  1956  00330A  EC9F  F01B         	call	_CAN1_TX_FIFO_Configuration	;wreg free
  1957  00330E                     
  1958                           ;mcc_generated_files/can1.c: 258:         CAN1_RX_FIFO_Configuration();
  1959  00330E  ECA9  F01B         	call	_CAN1_RX_FIFO_Configuration	;wreg free
  1960                           
  1961                           ;mcc_generated_files/can1.c: 259:         CAN1_RX_FIFO_FilterMaskConfiguration();
  1962  003312  EC17  F01C         	call	_CAN1_RX_FIFO_FilterMaskConfiguration	;wreg free
  1963  003316                     
  1964                           ;mcc_generated_files/can1.c: 260:         CAN1_RX_FIFO_ResetInfo();
  1965  003316  EC6B  F01A         	call	_CAN1_RX_FIFO_ResetInfo	;wreg free
  1966  00331A                     
  1967                           ;mcc_generated_files/can1.c: 261:         CAN1_ErrorNotificationInterruptEnable();
  1968  00331A  EC59  F018         	call	_CAN1_ErrorNotificationInterruptEnable	;wreg free
  1969  00331E                     
  1970                           ;mcc_generated_files/can1.c: 262:         CAN1_OperationModeSet(CAN_NORMAL_2_0_MODE);
  1971  00331E  0E06               	movlw	6
  1972  003320  EC7F  F017         	call	_CAN1_OperationModeSet
  1973  003324                     l289:
  1974  003324  0012               	return		;funcret
  1975  003326                     __end_of_CAN1_Initialize:
  1976                           	callstack 0
  1977                           
  1978 ;; *************** function _CAN1_TX_FIFO_Configuration *****************
  1979 ;; Defined at:
  1980 ;;		line 179 in file "mcc_generated_files/can1.c"
  1981 ;; Parameters:    Size  Location     Type
  1982 ;;		None
  1983 ;; Auto vars:     Size  Location     Type
  1984 ;;		None
  1985 ;; Return value:  Size  Location     Type
  1986 ;;                  1    wreg      void 
  1987 ;; Registers used:
  1988 ;;		wreg, status,2
  1989 ;; Tracked objects:
  1990 ;;		On entry : 0/0
  1991 ;;		On exit  : 0/0
  1992 ;;		Unchanged: 0/0
  1993 ;; Data sizes:     COMRAM   BANK5   BANK6   BANK7   BANK8   BANK9  BANK10  BANK11  BANK12  BANK13  BANK14  BANK15  BANK1
      +6  BANK17  BANK18  BANK19  BANK20  BANK21  BANK22  BANK23  BANK24  BANK25  BANK26  BANK27  BANK28  BANK29  BANK30  BANK3
      +1  BANK32  BANK33  BANK34  BANK35  BANK36  BANK37
  1994 ;;      Params:         0       0       0       0       0       0       0       0       0       0       0       0       
      +0       0       0       0       0       0       0       0       0       0       0       0       0       0       0       
      +0       0       0       0       0       0       0
  1995 ;;      Locals:         0       0       0       0       0       0       0       0       0       0       0       0       
      +0       0       0       0       0       0       0       0       0       0       0       0       0       0       0       
      +0       0       0       0       0       0       0
  1996 ;;      Temps:          0       0       0       0       0       0       0       0       0       0       0       0       
      +0       0       0       0       0       0       0       0       0       0       0       0       0       0       0       
      +0       0       0       0       0       0       0
  1997 ;;      Totals:         0       0       0       0       0       0       0       0       0       0       0       0       
      +0       0       0       0       0       0       0       0       0       0       0       0       0       0       0       
      +0       0       0       0       0       0       0
  1998 ;;Total ram usage:        0 bytes
  1999 ;; Hardware stack levels used:    1
  2000 ;; Hardware stack levels required when called:    7
  2001 ;; This function calls:
  2002 ;;		Nothing
  2003 ;; This function is called by:
  2004 ;;		_CAN1_Initialize
  2005 ;; This function uses a non-reentrant model
  2006 ;;
  2007                           
  2008                           	psect	text14
  2009  00373E                     __ptext14:
  2010                           	callstack 0
  2011  00373E                     _CAN1_TX_FIFO_Configuration:
  2012                           	callstack 117
  2013  00373E                     
  2014                           ;mcc_generated_files/can1.c: 182:     C1TXQCONL = 0x10;
  2015  00373E  0E10               	movlw	16
  2016  003740  0101               	movlb	1	; () banked
  2017  003742  6F50               	movwf	80,b	;volatile
  2018                           
  2019                           ;mcc_generated_files/can1.c: 185:     C1TXQCONH = 0x04;
  2020  003744  0E04               	movlw	4
  2021  003746  6F51               	movwf	81,b	;volatile
  2022                           
  2023                           ;mcc_generated_files/can1.c: 188:     C1TXQCONU = 0x60;
  2024  003748  0E60               	movlw	96
  2025  00374A  6F52               	movwf	82,b	;volatile
  2026                           
  2027                           ;mcc_generated_files/can1.c: 191:     C1TXQCONT = 0x05;
  2028  00374C  0E05               	movlw	5
  2029  00374E  6F53               	movwf	83,b	;volatile
  2030  003750                     
  2031                           ; BSR set to: 1
  2032  003750  0012               	return		;funcret
  2033  003752                     __end_of_CAN1_TX_FIFO_Configuration:
  2034                           	callstack 0
  2035                           
  2036 ;; *************** function _CAN1_RX_FIFO_ResetInfo *****************
  2037 ;; Defined at:
  2038 ;;		line 149 in file "mcc_generated_files/can1.c"
  2039 ;; Parameters:    Size  Location     Type
  2040 ;;		None
  2041 ;; Auto vars:     Size  Location     Type
  2042 ;;  index           1    0[BANK5 ] unsigned char 
  2043 ;; Return value:  Size  Location     Type
  2044 ;;                  1    wreg      void 
  2045 ;; Registers used:
  2046 ;;		wreg, fsr2l, fsr2h, status,2, status,0, prodl, prodh
  2047 ;; Tracked objects:
  2048 ;;		On entry : 0/0
  2049 ;;		On exit  : 0/0
  2050 ;;		Unchanged: 0/0
  2051 ;; Data sizes:     COMRAM   BANK5   BANK6   BANK7   BANK8   BANK9  BANK10  BANK11  BANK12  BANK13  BANK14  BANK15  BANK1
      +6  BANK17  BANK18  BANK19  BANK20  BANK21  BANK22  BANK23  BANK24  BANK25  BANK26  BANK27  BANK28  BANK29  BANK30  BANK3
      +1  BANK32  BANK33  BANK34  BANK35  BANK36  BANK37
  2052 ;;      Params:         0       0       0       0       0       0       0       0       0       0       0       0       
      +0       0       0       0       0       0       0       0       0       0       0       0       0       0       0       
      +0       0       0       0       0       0       0
  2053 ;;      Locals:         0       1       0       0       0       0       0       0       0       0       0       0       
      +0       0       0       0       0       0       0       0       0       0       0       0       0       0       0       
      +0       0       0       0       0       0       0
  2054 ;;      Temps:          0       0       0       0       0       0       0       0       0       0       0       0       
      +0       0       0       0       0       0       0       0       0       0       0       0       0       0       0       
      +0       0       0       0       0       0       0
  2055 ;;      Totals:         0       1       0       0       0       0       0       0       0       0       0       0       
      +0       0       0       0       0       0       0       0       0       0       0       0       0       0       0       
      +0       0       0       0       0       0       0
  2056 ;;Total ram usage:        1 bytes
  2057 ;; Hardware stack levels used:    1
  2058 ;; Hardware stack levels required when called:    7
  2059 ;; This function calls:
  2060 ;;		Nothing
  2061 ;; This function is called by:
  2062 ;;		_CAN1_Initialize
  2063 ;; This function uses a non-reentrant model
  2064 ;;
  2065                           
  2066                           	psect	text15
  2067  0034D6                     __ptext15:
  2068                           	callstack 0
  2069  0034D6                     _CAN1_RX_FIFO_ResetInfo:
  2070                           	callstack 117
  2071  0034D6                     
  2072                           ;mcc_generated_files/can1.c: 151:     uint8_t index;;mcc_generated_files/can1.c: 153:   
      +                            for (index = 0; index < (1U); index++)
  2073  0034D6  0E00               	movlw	0
  2074  0034D8  0105               	movlb	5	; () banked
  2075  0034DA  6FC8               	movwf	CAN1_RX_FIFO_ResetInfo@index& (0+255),b
  2076  0034DC                     l4101:
  2077                           
  2078                           ; BSR set to: 5
  2079                           ;mcc_generated_files/can1.c: 154:     {;mcc_generated_files/can1.c: 155:         rxFifos
      +                          [index].fifoHead = 0;
  2080  0034DC  51C8               	movf	CAN1_RX_FIFO_ResetInfo@index& (0+255),w,b
  2081  0034DE  0D02               	mullw	2
  2082  0034E0  0E9B               	movlw	low (_rxFifos+1)
  2083  0034E2  24F3               	addwf	243,w,c
  2084  0034E4  6ED9               	movwf	fsr2l,c
  2085  0034E6  0E05               	movlw	high (_rxFifos+1)
  2086  0034E8  20F4               	addwfc	prodh,w,c
  2087  0034EA  6EDA               	movwf	fsr2h,c
  2088  0034EC  0E00               	movlw	0
  2089  0034EE  6EDF               	movwf	indf2,c
  2090  0034F0                     
  2091                           ; BSR set to: 5
  2092                           ;mcc_generated_files/can1.c: 156:     }
  2093  0034F0  2BC8               	incf	CAN1_RX_FIFO_ResetInfo@index& (0+255),f,b
  2094  0034F2                     
  2095                           ; BSR set to: 5
  2096  0034F2  51C8               	movf	CAN1_RX_FIFO_ResetInfo@index& (0+255),w,b
  2097  0034F4  B4D8               	btfsc	status,2,c
  2098  0034F6  EF7F  F01A         	goto	u2061
  2099  0034FA  EF81  F01A         	goto	u2060
  2100  0034FE                     u2061:
  2101  0034FE  EF6E  F01A         	goto	l4101
  2102  003502                     u2060:
  2103  003502                     
  2104                           ; BSR set to: 5
  2105  003502  0012               	return		;funcret
  2106  003504                     __end_of_CAN1_RX_FIFO_ResetInfo:
  2107                           	callstack 0
  2108                           
  2109 ;; *************** function _CAN1_RX_FIFO_FilterMaskConfiguration *****************
  2110 ;; Defined at:
  2111 ;;		line 175 in file "mcc_generated_files/can1.c"
  2112 ;; Parameters:    Size  Location     Type
  2113 ;;		None
  2114 ;; Auto vars:     Size  Location     Type
  2115 ;;		None
  2116 ;; Return value:  Size  Location     Type
  2117 ;;                  1    wreg      void 
  2118 ;; Registers used:
  2119 ;;		None
  2120 ;; Tracked objects:
  2121 ;;		On entry : 0/0
  2122 ;;		On exit  : 0/0
  2123 ;;		Unchanged: 0/0
  2124 ;; Data sizes:     COMRAM   BANK5   BANK6   BANK7   BANK8   BANK9  BANK10  BANK11  BANK12  BANK13  BANK14  BANK15  BANK1
      +6  BANK17  BANK18  BANK19  BANK20  BANK21  BANK22  BANK23  BANK24  BANK25  BANK26  BANK27  BANK28  BANK29  BANK30  BANK3
      +1  BANK32  BANK33  BANK34  BANK35  BANK36  BANK37
  2125 ;;      Params:         0       0       0       0       0       0       0       0       0       0       0       0       
      +0       0       0       0       0       0       0       0       0       0       0       0       0       0       0       
      +0       0       0       0       0       0       0
  2126 ;;      Locals:         0       0       0       0       0       0       0       0       0       0       0       0       
      +0       0       0       0       0       0       0       0       0       0       0       0       0       0       0       
      +0       0       0       0       0       0       0
  2127 ;;      Temps:          0       0       0       0       0       0       0       0       0       0       0       0       
      +0       0       0       0       0       0       0       0       0       0       0       0       0       0       0       
      +0       0       0       0       0       0       0
  2128 ;;      Totals:         0       0       0       0       0       0       0       0       0       0       0       0       
      +0       0       0       0       0       0       0       0       0       0       0       0       0       0       0       
      +0       0       0       0       0       0       0
  2129 ;;Total ram usage:        0 bytes
  2130 ;; Hardware stack levels used:    1
  2131 ;; Hardware stack levels required when called:    7
  2132 ;; This function calls:
  2133 ;;		Nothing
  2134 ;; This function is called by:
  2135 ;;		_CAN1_Initialize
  2136 ;; This function uses a non-reentrant model
  2137 ;;
  2138                           
  2139                           	psect	text16
  2140  00382E                     __ptext16:
  2141                           	callstack 0
  2142  00382E                     _CAN1_RX_FIFO_FilterMaskConfiguration:
  2143                           	callstack 117
  2144  00382E  0012               	return		;funcret
  2145  003830                     __end_of_CAN1_RX_FIFO_FilterMaskConfiguration:
  2146                           	callstack 0
  2147                           
  2148 ;; *************** function _CAN1_RX_FIFO_Configuration *****************
  2149 ;; Defined at:
  2150 ;;		line 159 in file "mcc_generated_files/can1.c"
  2151 ;; Parameters:    Size  Location     Type
  2152 ;;		None
  2153 ;; Auto vars:     Size  Location     Type
  2154 ;;		None
  2155 ;; Return value:  Size  Location     Type
  2156 ;;                  1    wreg      void 
  2157 ;; Registers used:
  2158 ;;		wreg, status,2
  2159 ;; Tracked objects:
  2160 ;;		On entry : 0/0
  2161 ;;		On exit  : 0/0
  2162 ;;		Unchanged: 0/0
  2163 ;; Data sizes:     COMRAM   BANK5   BANK6   BANK7   BANK8   BANK9  BANK10  BANK11  BANK12  BANK13  BANK14  BANK15  BANK1
      +6  BANK17  BANK18  BANK19  BANK20  BANK21  BANK22  BANK23  BANK24  BANK25  BANK26  BANK27  BANK28  BANK29  BANK30  BANK3
      +1  BANK32  BANK33  BANK34  BANK35  BANK36  BANK37
  2164 ;;      Params:         0       0       0       0       0       0       0       0       0       0       0       0       
      +0       0       0       0       0       0       0       0       0       0       0       0       0       0       0       
      +0       0       0       0       0       0       0
  2165 ;;      Locals:         0       0       0       0       0       0       0       0       0       0       0       0       
      +0       0       0       0       0       0       0       0       0       0       0       0       0       0       0       
      +0       0       0       0       0       0       0
  2166 ;;      Temps:          0       0       0       0       0       0       0       0       0       0       0       0       
      +0       0       0       0       0       0       0       0       0       0       0       0       0       0       0       
      +0       0       0       0       0       0       0
  2167 ;;      Totals:         0       0       0       0       0       0       0       0       0       0       0       0       
      +0       0       0       0       0       0       0       0       0       0       0       0       0       0       0       
      +0       0       0       0       0       0       0
  2168 ;;Total ram usage:        0 bytes
  2169 ;; Hardware stack levels used:    1
  2170 ;; Hardware stack levels required when called:    7
  2171 ;; This function calls:
  2172 ;;		Nothing
  2173 ;; This function is called by:
  2174 ;;		_CAN1_Initialize
  2175 ;; This function uses a non-reentrant model
  2176 ;;
  2177                           
  2178                           	psect	text17
  2179  003752                     __ptext17:
  2180                           	callstack 0
  2181  003752                     _CAN1_RX_FIFO_Configuration:
  2182                           	callstack 117
  2183  003752                     
  2184                           ;mcc_generated_files/can1.c: 162:     C1FIFOCON1L = 0x08;
  2185  003752  0E08               	movlw	8
  2186  003754  0101               	movlb	1	; () banked
  2187  003756  6F5C               	movwf	92,b	;volatile
  2188                           
  2189                           ;mcc_generated_files/can1.c: 165:     C1FIFOCON1H = 0x04;
  2190  003758  0E04               	movlw	4
  2191  00375A  6F5D               	movwf	93,b	;volatile
  2192                           
  2193                           ;mcc_generated_files/can1.c: 168:     C1FIFOCON1U = 0x60;
  2194  00375C  0E60               	movlw	96
  2195  00375E  6F5E               	movwf	94,b	;volatile
  2196                           
  2197                           ;mcc_generated_files/can1.c: 171:     C1FIFOCON1T = 0x05;
  2198  003760  0E05               	movlw	5
  2199  003762  6F5F               	movwf	95,b	;volatile
  2200  003764                     
  2201                           ; BSR set to: 1
  2202  003764  0012               	return		;funcret
  2203  003766                     __end_of_CAN1_RX_FIFO_Configuration:
  2204                           	callstack 0
  2205                           
  2206 ;; *************** function _CAN1_OperationModeSet *****************
  2207 ;; Defined at:
  2208 ;;		line 266 in file "mcc_generated_files/can1.c"
  2209 ;; Parameters:    Size  Location     Type
  2210 ;;  requestMode     1    wreg     const enum E22346
  2211 ;; Auto vars:     Size  Location     Type
  2212 ;;  requestMode     1    2[BANK5 ] const enum E22346
  2213 ;;  status          1    1[BANK5 ] enum E22356
  2214 ;;  opMode          1    0[BANK5 ] enum E22346
  2215 ;; Return value:  Size  Location     Type
  2216 ;;                  1    wreg      enum E22356
  2217 ;; Registers used:
  2218 ;;		wreg, status,2, status,0, cstack
  2219 ;; Tracked objects:
  2220 ;;		On entry : 0/0
  2221 ;;		On exit  : 0/0
  2222 ;;		Unchanged: 0/0
  2223 ;; Data sizes:     COMRAM   BANK5   BANK6   BANK7   BANK8   BANK9  BANK10  BANK11  BANK12  BANK13  BANK14  BANK15  BANK1
      +6  BANK17  BANK18  BANK19  BANK20  BANK21  BANK22  BANK23  BANK24  BANK25  BANK26  BANK27  BANK28  BANK29  BANK30  BANK3
      +1  BANK32  BANK33  BANK34  BANK35  BANK36  BANK37
  2224 ;;      Params:         0       0       0       0       0       0       0       0       0       0       0       0       
      +0       0       0       0       0       0       0       0       0       0       0       0       0       0       0       
      +0       0       0       0       0       0       0
  2225 ;;      Locals:         0       3       0       0       0       0       0       0       0       0       0       0       
      +0       0       0       0       0       0       0       0       0       0       0       0       0       0       0       
      +0       0       0       0       0       0       0
  2226 ;;      Temps:          0       0       0       0       0       0       0       0       0       0       0       0       
      +0       0       0       0       0       0       0       0       0       0       0       0       0       0       0       
      +0       0       0       0       0       0       0
  2227 ;;      Totals:         0       3       0       0       0       0       0       0       0       0       0       0       
      +0       0       0       0       0       0       0       0       0       0       0       0       0       0       0       
      +0       0       0       0       0       0       0
  2228 ;;Total ram usage:        3 bytes
  2229 ;; Hardware stack levels used:    1
  2230 ;; Hardware stack levels required when called:    8
  2231 ;; This function calls:
  2232 ;;		_CAN1_OperationModeGet
  2233 ;; This function is called by:
  2234 ;;		_CAN1_Initialize
  2235 ;;		_CAN1_Sleep
  2236 ;; This function uses a non-reentrant model
  2237 ;;
  2238                           
  2239                           	psect	text18
  2240  002EFE                     __ptext18:
  2241                           	callstack 0
  2242  002EFE                     _CAN1_OperationModeSet:
  2243                           	callstack 116
  2244                           
  2245                           ; BSR set to: 1
  2246                           ;incstack = 0
  2247                           ;CAN1_OperationModeSet@requestMode stored from wreg
  2248  002EFE  0105               	movlb	5	; () banked
  2249  002F00  6FCA               	movwf	CAN1_OperationModeSet@requestMode& (0+255),b
  2250  002F02                     
  2251                           ;mcc_generated_files/can1.c: 266: CAN_OP_MODE_STATUS CAN1_OperationModeSet(const CAN_OP_
      +                          MODES requestMode);mcc_generated_files/can1.c: 267: {;mcc_generated_files/can1.c: 268:  
      +                             CAN_OP_MODE_STATUS status = CAN_OP_MODE_REQUEST_SUCCESS;
  2252  002F02  0E00               	movlw	0
  2253  002F04  0105               	movlb	5	; () banked
  2254  002F06  6FC9               	movwf	CAN1_OperationModeSet@status& (0+255),b
  2255  002F08                     
  2256                           ; BSR set to: 5
  2257                           ;mcc_generated_files/can1.c: 269:     CAN_OP_MODES opMode = CAN1_OperationModeGet();
  2258  002F08  ECD3  F01B         	call	_CAN1_OperationModeGet	;wreg free
  2259  002F0C  0105               	movlb	5	; () banked
  2260  002F0E  6FC8               	movwf	CAN1_OperationModeSet@opMode& (0+255),b
  2261  002F10                     
  2262                           ; BSR set to: 5
  2263                           ;mcc_generated_files/can1.c: 271:     if (CAN_CONFIGURATION_MODE == opMode
  2264  002F10  0E04               	movlw	4
  2265  002F12  19C8               	xorwf	CAN1_OperationModeSet@opMode& (0+255),w,b
  2266  002F14  B4D8               	btfsc	status,2,c
  2267  002F16  EF8F  F017         	goto	u2071
  2268  002F1A  EF91  F017         	goto	u2070
  2269  002F1E                     u2071:
  2270  002F1E  EFA2  F017         	goto	l4137
  2271  002F22                     u2070:
  2272  002F22                     
  2273                           ; BSR set to: 5
  2274  002F22  05CA               	decf	CAN1_OperationModeSet@requestMode& (0+255),w,b
  2275  002F24  B4D8               	btfsc	status,2,c
  2276  002F26  EF97  F017         	goto	u2081
  2277  002F2A  EF99  F017         	goto	u2080
  2278  002F2E                     u2081:
  2279  002F2E  EFA2  F017         	goto	l4137
  2280  002F32                     u2080:
  2281  002F32                     
  2282                           ; BSR set to: 5
  2283  002F32  0E04               	movlw	4
  2284  002F34  19CA               	xorwf	CAN1_OperationModeSet@requestMode& (0+255),w,b
  2285  002F36  A4D8               	btfss	status,2,c
  2286  002F38  EFA0  F017         	goto	u2091
  2287  002F3C  EFA2  F017         	goto	u2090
  2288  002F40                     u2091:
  2289  002F40  EFC7  F017         	goto	l4143
  2290  002F44                     u2090:
  2291  002F44                     l4137:
  2292                           
  2293                           ; BSR set to: 5
  2294                           ;mcc_generated_files/can1.c: 274:     {;mcc_generated_files/can1.c: 275:         C1CONTb
      +                          its.REQOP = requestMode;
  2295  002F44  0101               	movlb	1	; () banked
  2296  002F46  5103               	movf	3,w,b	;volatile
  2297  002F48  0105               	movlb	5	; () banked
  2298  002F4A  19CA               	xorwf	CAN1_OperationModeSet@requestMode& (0+255),w,b
  2299  002F4C  0BF8               	andlw	-8
  2300  002F4E  19CA               	xorwf	CAN1_OperationModeSet@requestMode& (0+255),w,b
  2301  002F50  0101               	movlb	1	; () banked
  2302  002F52  6F03               	movwf	3,b	;volatile
  2303                           
  2304                           ;mcc_generated_files/can1.c: 277:         while (C1CONUbits.OPMOD != requestMode)
  2305  002F54  EFB9  F017         	goto	l4141
  2306  002F58                     l296:
  2307                           
  2308                           ; BSR set to: 5
  2309                           ;mcc_generated_files/can1.c: 278:         {;mcc_generated_files/can1.c: 280:            
      +                           if (1 == C1INTHbits.SERRIF)
  2310  002F58  0101               	movlb	1	; () banked
  2311  002F5A  A91D               	btfss	29,4,b	;volatile
  2312  002F5C  EFB2  F017         	goto	u2101
  2313  002F60  EFB4  F017         	goto	u2100
  2314  002F64                     u2101:
  2315  002F64  EFB9  F017         	goto	l4141
  2316  002F68                     u2100:
  2317  002F68                     
  2318                           ; BSR set to: 1
  2319                           ;mcc_generated_files/can1.c: 281:             {;mcc_generated_files/can1.c: 282:        
      +                                   status = CAN_OP_MODE_SYS_ERROR_OCCURED;
  2320  002F68  0E02               	movlw	2
  2321  002F6A  0105               	movlb	5	; () banked
  2322  002F6C  6FC9               	movwf	CAN1_OperationModeSet@status& (0+255),b
  2323                           
  2324                           ;mcc_generated_files/can1.c: 283:                 break;
  2325  002F6E  EFC9  F017         	goto	l299
  2326  002F72                     l4141:
  2327                           
  2328                           ; BSR set to: 1
  2329                           ;mcc_generated_files/can1.c: 277:         while (C1CONUbits.OPMOD != requestMode)
  2330  002F72  3902               	swapf	2,w,b	;volatile
  2331  002F74  32E8               	rrcf	wreg,f,c
  2332  002F76  0B07               	andlw	7
  2333  002F78  0105               	movlb	5	; () banked
  2334  002F7A  19CA               	xorwf	CAN1_OperationModeSet@requestMode& (0+255),w,b
  2335  002F7C  A4D8               	btfss	status,2,c
  2336  002F7E  EFC3  F017         	goto	u2111
  2337  002F82  EFC5  F017         	goto	u2110
  2338  002F86                     u2111:
  2339  002F86  EFAC  F017         	goto	l296
  2340  002F8A                     u2110:
  2341  002F8A  EFC9  F017         	goto	l299
  2342  002F8E                     l4143:
  2343                           
  2344                           ; BSR set to: 5
  2345                           ;mcc_generated_files/can1.c: 288:     {;mcc_generated_files/can1.c: 289:         status 
      +                          = CAN_OP_MODE_REQUEST_FAIL;
  2346  002F8E  0E01               	movlw	1
  2347  002F90  6FC9               	movwf	CAN1_OperationModeSet@status& (0+255),b
  2348  002F92                     l299:
  2349                           
  2350                           ; BSR set to: 5
  2351                           ;mcc_generated_files/can1.c: 292:     return status;
  2352  002F92  51C9               	movf	CAN1_OperationModeSet@status& (0+255),w,b
  2353  002F94                     
  2354                           ; BSR set to: 5
  2355  002F94  0012               	return		;funcret
  2356  002F96                     __end_of_CAN1_OperationModeSet:
  2357                           	callstack 0
  2358                           
  2359 ;; *************** function _CAN1_OperationModeGet *****************
  2360 ;; Defined at:
  2361 ;;		line 295 in file "mcc_generated_files/can1.c"
  2362 ;; Parameters:    Size  Location     Type
  2363 ;;		None
  2364 ;; Auto vars:     Size  Location     Type
  2365 ;;		None
  2366 ;; Return value:  Size  Location     Type
  2367 ;;                  1    wreg      enum E22346
  2368 ;; Registers used:
  2369 ;;		wreg, status,2, status,0
  2370 ;; Tracked objects:
  2371 ;;		On entry : 0/0
  2372 ;;		On exit  : 0/0
  2373 ;;		Unchanged: 0/0
  2374 ;; Data sizes:     COMRAM   BANK5   BANK6   BANK7   BANK8   BANK9  BANK10  BANK11  BANK12  BANK13  BANK14  BANK15  BANK1
      +6  BANK17  BANK18  BANK19  BANK20  BANK21  BANK22  BANK23  BANK24  BANK25  BANK26  BANK27  BANK28  BANK29  BANK30  BANK3
      +1  BANK32  BANK33  BANK34  BANK35  BANK36  BANK37
  2375 ;;      Params:         0       0       0       0       0       0       0       0       0       0       0       0       
      +0       0       0       0       0       0       0       0       0       0       0       0       0       0       0       
      +0       0       0       0       0       0       0
  2376 ;;      Locals:         0       0       0       0       0       0       0       0       0       0       0       0       
      +0       0       0       0       0       0       0       0       0       0       0       0       0       0       0       
      +0       0       0       0       0       0       0
  2377 ;;      Temps:          0       0       0       0       0       0       0       0       0       0       0       0       
      +0       0       0       0       0       0       0       0       0       0       0       0       0       0       0       
      +0       0       0       0       0       0       0
  2378 ;;      Totals:         0       0       0       0       0       0       0       0       0       0       0       0       
      +0       0       0       0       0       0       0       0       0       0       0       0       0       0       0       
      +0       0       0       0       0       0       0
  2379 ;;Total ram usage:        0 bytes
  2380 ;; Hardware stack levels used:    1
  2381 ;; Hardware stack levels required when called:    7
  2382 ;; This function calls:
  2383 ;;		Nothing
  2384 ;; This function is called by:
  2385 ;;		_CAN1_OperationModeSet
  2386 ;; This function uses a non-reentrant model
  2387 ;;
  2388                           
  2389                           	psect	text19
  2390  0037A6                     __ptext19:
  2391                           	callstack 0
  2392  0037A6                     _CAN1_OperationModeGet:
  2393                           	callstack 116
  2394  0037A6                     
  2395                           ;mcc_generated_files/can1.c: 297:     return C1CONUbits.OPMOD;
  2396  0037A6  0101               	movlb	1	; () banked
  2397  0037A8  3902               	swapf	2,w,b	;volatile
  2398  0037AA  32E8               	rrcf	wreg,f,c
  2399  0037AC  0B07               	andlw	7
  2400  0037AE                     
  2401                           ; BSR set to: 1
  2402  0037AE  0012               	return		;funcret
  2403  0037B0                     __end_of_CAN1_OperationModeGet:
  2404                           	callstack 0
  2405                           
  2406 ;; *************** function _CAN1_ErrorNotificationInterruptEnable *****************
  2407 ;; Defined at:
  2408 ;;		line 211 in file "mcc_generated_files/can1.c"
  2409 ;; Parameters:    Size  Location     Type
  2410 ;;		None
  2411 ;; Auto vars:     Size  Location     Type
  2412 ;;		None
  2413 ;; Return value:  Size  Location     Type
  2414 ;;                  1    wreg      void 
  2415 ;; Registers used:
  2416 ;;		wreg, status,2, status,0, cstack
  2417 ;; Tracked objects:
  2418 ;;		On entry : 0/0
  2419 ;;		On exit  : 0/0
  2420 ;;		Unchanged: 0/0
  2421 ;; Data sizes:     COMRAM   BANK5   BANK6   BANK7   BANK8   BANK9  BANK10  BANK11  BANK12  BANK13  BANK14  BANK15  BANK1
      +6  BANK17  BANK18  BANK19  BANK20  BANK21  BANK22  BANK23  BANK24  BANK25  BANK26  BANK27  BANK28  BANK29  BANK30  BANK3
      +1  BANK32  BANK33  BANK34  BANK35  BANK36  BANK37
  2422 ;;      Params:         0       0       0       0       0       0       0       0       0       0       0       0       
      +0       0       0       0       0       0       0       0       0       0       0       0       0       0       0       
      +0       0       0       0       0       0       0
  2423 ;;      Locals:         0       0       0       0       0       0       0       0       0       0       0       0       
      +0       0       0       0       0       0       0       0       0       0       0       0       0       0       0       
      +0       0       0       0       0       0       0
  2424 ;;      Temps:          0       0       0       0       0       0       0       0       0       0       0       0       
      +0       0       0       0       0       0       0       0       0       0       0       0       0       0       0       
      +0       0       0       0       0       0       0
  2425 ;;      Totals:         0       0       0       0       0       0       0       0       0       0       0       0       
      +0       0       0       0       0       0       0       0       0       0       0       0       0       0       0       
      +0       0       0       0       0       0       0
  2426 ;;Total ram usage:        0 bytes
  2427 ;; Hardware stack levels used:    1
  2428 ;; Hardware stack levels required when called:    8
  2429 ;; This function calls:
  2430 ;;		_CAN1_SetBusErrorInterruptHandler
  2431 ;;		_CAN1_SetBusWakeUpActivityInterruptHandler
  2432 ;;		_CAN1_SetInvalidMessageInterruptHandler
  2433 ;;		_CAN1_SetModeChangeInterruptHandler
  2434 ;;		_CAN1_SetRxBufferOverFlowInterruptHandler
  2435 ;;		_CAN1_SetSystemErrorInterruptHandler
  2436 ;;		_CAN1_SetTxAttemptInterruptHandler
  2437 ;; This function is called by:
  2438 ;;		_CAN1_Initialize
  2439 ;; This function uses a non-reentrant model
  2440 ;;
  2441                           
  2442                           	psect	text20
  2443  0030B2                     __ptext20:
  2444                           	callstack 0
  2445  0030B2                     _CAN1_ErrorNotificationInterruptEnable:
  2446                           	callstack 116
  2447  0030B2                     
  2448                           ;mcc_generated_files/can1.c: 213:     CAN1_SetInvalidMessageInterruptHandler(DefaultInva
      +                          lidMessageHandler);
  2449  0030B2  0E3E               	movlw	low _DefaultInvalidMessageHandler
  2450  0030B4  0105               	movlb	5	; () banked
  2451  0030B6  6FC8               	movwf	CAN1_SetInvalidMessageInterruptHandler@handler& (0+255),b
  2452  0030B8  0E38               	movlw	high _DefaultInvalidMessageHandler
  2453  0030BA  6FC9               	movwf	(CAN1_SetInvalidMessageInterruptHandler@handler+1)& (0+255),b
  2454  0030BC  ECEC  F01B         	call	_CAN1_SetInvalidMessageInterruptHandler	;wreg free
  2455                           
  2456                           ;mcc_generated_files/can1.c: 214:     CAN1_SetBusWakeUpActivityInterruptHandler(DefaultB
      +                          usWakeUpActivityHandler);
  2457  0030C0  0E40               	movlw	low _DefaultBusWakeUpActivityHandler
  2458  0030C2  0105               	movlb	5	; () banked
  2459  0030C4  6FC8               	movwf	CAN1_SetBusWakeUpActivityInterruptHandler@handler& (0+255),b
  2460  0030C6  0E38               	movlw	high _DefaultBusWakeUpActivityHandler
  2461  0030C8  6FC9               	movwf	(CAN1_SetBusWakeUpActivityInterruptHandler@handler+1)& (0+255),b
  2462  0030CA  ECF1  F01B         	call	_CAN1_SetBusWakeUpActivityInterruptHandler	;wreg free
  2463                           
  2464                           ;mcc_generated_files/can1.c: 215:     CAN1_SetBusErrorInterruptHandler(DefaultBusErrorHa
      +                          ndler);
  2465  0030CE  0E42               	movlw	low _DefaultBusErrorHandler
  2466  0030D0  0105               	movlb	5	; () banked
  2467  0030D2  6FC8               	movwf	CAN1_SetBusErrorInterruptHandler@handler& (0+255),b
  2468  0030D4  0E38               	movlw	high _DefaultBusErrorHandler
  2469  0030D6  6FC9               	movwf	(CAN1_SetBusErrorInterruptHandler@handler+1)& (0+255),b
  2470  0030D8  ECF6  F01B         	call	_CAN1_SetBusErrorInterruptHandler	;wreg free
  2471                           
  2472                           ;mcc_generated_files/can1.c: 216:     CAN1_SetModeChangeInterruptHandler(DefaultModeChan
      +                          geHandler);
  2473  0030DC  0E3C               	movlw	low _DefaultModeChangeHandler
  2474  0030DE  0105               	movlb	5	; () banked
  2475  0030E0  6FC8               	movwf	CAN1_SetModeChangeInterruptHandler@handler& (0+255),b
  2476  0030E2  0E38               	movlw	high _DefaultModeChangeHandler
  2477  0030E4  6FC9               	movwf	(CAN1_SetModeChangeInterruptHandler@handler+1)& (0+255),b
  2478  0030E6  ECE7  F01B         	call	_CAN1_SetModeChangeInterruptHandler	;wreg free
  2479                           
  2480                           ;mcc_generated_files/can1.c: 217:     CAN1_SetSystemErrorInterruptHandler(DefaultSystemE
      +                          rrorHandler);
  2481  0030EA  0E38               	movlw	low _DefaultSystemErrorHandler
  2482  0030EC  0105               	movlb	5	; () banked
  2483  0030EE  6FC8               	movwf	CAN1_SetSystemErrorInterruptHandler@handler& (0+255),b
  2484  0030F0  0E38               	movlw	high _DefaultSystemErrorHandler
  2485  0030F2  6FC9               	movwf	(CAN1_SetSystemErrorInterruptHandler@handler+1)& (0+255),b
  2486  0030F4  ECDD  F01B         	call	_CAN1_SetSystemErrorInterruptHandler	;wreg free
  2487                           
  2488                           ;mcc_generated_files/can1.c: 218:     CAN1_SetTxAttemptInterruptHandler(DefaultTxAttempt
      +                          Handler);
  2489  0030F8  0E36               	movlw	low _DefaultTxAttemptHandler
  2490  0030FA  0105               	movlb	5	; () banked
  2491  0030FC  6FC8               	movwf	CAN1_SetTxAttemptInterruptHandler@handler& (0+255),b
  2492  0030FE  0E38               	movlw	high _DefaultTxAttemptHandler
  2493  003100  6FC9               	movwf	(CAN1_SetTxAttemptInterruptHandler@handler+1)& (0+255),b
  2494  003102  ECD8  F01B         	call	_CAN1_SetTxAttemptInterruptHandler	;wreg free
  2495                           
  2496                           ;mcc_generated_files/can1.c: 219:     CAN1_SetRxBufferOverFlowInterruptHandler(DefaultRx
      +                          BufferOverflowHandler);
  2497  003106  0E3A               	movlw	low _DefaultRxBufferOverflowHandler
  2498  003108  0105               	movlb	5	; () banked
  2499  00310A  6FC8               	movwf	CAN1_SetRxBufferOverFlowInterruptHandler@handler& (0+255),b
  2500  00310C  0E38               	movlw	high _DefaultRxBufferOverflowHandler
  2501  00310E  6FC9               	movwf	(CAN1_SetRxBufferOverFlowInterruptHandler@handler+1)& (0+255),b
  2502  003110  ECE2  F01B         	call	_CAN1_SetRxBufferOverFlowInterruptHandler	;wreg free
  2503  003114                     
  2504                           ;mcc_generated_files/can1.c: 220:     PIR0bits.CANIF = 0;
  2505  003114  9CAE               	bcf	174,6,c	;volatile
  2506  003116                     
  2507                           ;mcc_generated_files/can1.c: 223:     C1INTL = 0x00;
  2508  003116  0E00               	movlw	0
  2509  003118  0101               	movlb	1	; () banked
  2510  00311A  6F1C               	movwf	28,b	;volatile
  2511  00311C                     
  2512                           ; BSR set to: 1
  2513                           ;mcc_generated_files/can1.c: 226:     C1INTH = 0x00;
  2514  00311C  0E00               	movlw	0
  2515  00311E  6F1D               	movwf	29,b	;volatile
  2516  003120                     
  2517                           ; BSR set to: 1
  2518                           ;mcc_generated_files/can1.c: 229:     C1INTU = 0x08;
  2519  003120  0E08               	movlw	8
  2520  003122  6F1E               	movwf	30,b	;volatile
  2521  003124                     
  2522                           ; BSR set to: 1
  2523                           ;mcc_generated_files/can1.c: 232:     C1INTT = 0xFC;
  2524  003124  0EFC               	movlw	252
  2525  003126  6F1F               	movwf	31,b	;volatile
  2526  003128                     
  2527                           ; BSR set to: 1
  2528                           ;mcc_generated_files/can1.c: 234:     PIE0bits.CANIE = 1;
  2529  003128  8C9E               	bsf	158,6,c	;volatile
  2530  00312A                     
  2531                           ; BSR set to: 1
  2532  00312A  0012               	return		;funcret
  2533  00312C                     __end_of_CAN1_ErrorNotificationInterruptEnable:
  2534                           	callstack 0
  2535                           
  2536 ;; *************** function _CAN1_SetTxAttemptInterruptHandler *****************
  2537 ;; Defined at:
  2538 ;;		line 608 in file "mcc_generated_files/can1.c"
  2539 ;; Parameters:    Size  Location     Type
  2540 ;;  handler         2    0[BANK5 ] PTR FTN()void 
  2541 ;;		 -> DefaultTxAttemptHandler(1), 
  2542 ;; Auto vars:     Size  Location     Type
  2543 ;;		None
  2544 ;; Return value:  Size  Location     Type
  2545 ;;                  1    wreg      void 
  2546 ;; Registers used:
  2547 ;;		wreg, status,2, status,0
  2548 ;; Tracked objects:
  2549 ;;		On entry : 0/0
  2550 ;;		On exit  : 0/0
  2551 ;;		Unchanged: 0/0
  2552 ;; Data sizes:     COMRAM   BANK5   BANK6   BANK7   BANK8   BANK9  BANK10  BANK11  BANK12  BANK13  BANK14  BANK15  BANK1
      +6  BANK17  BANK18  BANK19  BANK20  BANK21  BANK22  BANK23  BANK24  BANK25  BANK26  BANK27  BANK28  BANK29  BANK30  BANK3
      +1  BANK32  BANK33  BANK34  BANK35  BANK36  BANK37
  2553 ;;      Params:         0       2       0       0       0       0       0       0       0       0       0       0       
      +0       0       0       0       0       0       0       0       0       0       0       0       0       0       0       
      +0       0       0       0       0       0       0
  2554 ;;      Locals:         0       0       0       0       0       0       0       0       0       0       0       0       
      +0       0       0       0       0       0       0       0       0       0       0       0       0       0       0       
      +0       0       0       0       0       0       0
  2555 ;;      Temps:          0       0       0       0       0       0       0       0       0       0       0       0       
      +0       0       0       0       0       0       0       0       0       0       0       0       0       0       0       
      +0       0       0       0       0       0       0
  2556 ;;      Totals:         0       2       0       0       0       0       0       0       0       0       0       0       
      +0       0       0       0       0       0       0       0       0       0       0       0       0       0       0       
      +0       0       0       0       0       0       0
  2557 ;;Total ram usage:        2 bytes
  2558 ;; Hardware stack levels used:    1
  2559 ;; Hardware stack levels required when called:    7
  2560 ;; This function calls:
  2561 ;;		Nothing
  2562 ;; This function is called by:
  2563 ;;		_CAN1_ErrorNotificationInterruptEnable
  2564 ;; This function uses a non-reentrant model
  2565 ;;
  2566                           
  2567                           	psect	text21
  2568  0037B0                     __ptext21:
  2569                           	callstack 0
  2570  0037B0                     _CAN1_SetTxAttemptInterruptHandler:
  2571                           	callstack 116
  2572  0037B0                     
  2573                           ;mcc_generated_files/can1.c: 608: void CAN1_SetTxAttemptInterruptHandler(void (*handler)
      +                          (void));mcc_generated_files/can1.c: 609: {;mcc_generated_files/can1.c: 610:     CAN1_TxA
      +                          ttemptHandler = handler;
  2574  0037B0  C5C8  F586         	movff	CAN1_SetTxAttemptInterruptHandler@handler,_CAN1_TxAttemptHandler
  2575  0037B4  C5C9  F587         	movff	CAN1_SetTxAttemptInterruptHandler@handler+1,_CAN1_TxAttemptHandler+1
  2576  0037B8  0012               	return		;funcret
  2577  0037BA                     __end_of_CAN1_SetTxAttemptInterruptHandler:
  2578                           	callstack 0
  2579                           
  2580 ;; *************** function _CAN1_SetSystemErrorInterruptHandler *****************
  2581 ;; Defined at:
  2582 ;;		line 603 in file "mcc_generated_files/can1.c"
  2583 ;; Parameters:    Size  Location     Type
  2584 ;;  handler         2    0[BANK5 ] PTR FTN()void 
  2585 ;;		 -> DefaultSystemErrorHandler(1), 
  2586 ;; Auto vars:     Size  Location     Type
  2587 ;;		None
  2588 ;; Return value:  Size  Location     Type
  2589 ;;                  1    wreg      void 
  2590 ;; Registers used:
  2591 ;;		wreg, status,2, status,0
  2592 ;; Tracked objects:
  2593 ;;		On entry : 0/0
  2594 ;;		On exit  : 0/0
  2595 ;;		Unchanged: 0/0
  2596 ;; Data sizes:     COMRAM   BANK5   BANK6   BANK7   BANK8   BANK9  BANK10  BANK11  BANK12  BANK13  BANK14  BANK15  BANK1
      +6  BANK17  BANK18  BANK19  BANK20  BANK21  BANK22  BANK23  BANK24  BANK25  BANK26  BANK27  BANK28  BANK29  BANK30  BANK3
      +1  BANK32  BANK33  BANK34  BANK35  BANK36  BANK37
  2597 ;;      Params:         0       2       0       0       0       0       0       0       0       0       0       0       
      +0       0       0       0       0       0       0       0       0       0       0       0       0       0       0       
      +0       0       0       0       0       0       0
  2598 ;;      Locals:         0       0       0       0       0       0       0       0       0       0       0       0       
      +0       0       0       0       0       0       0       0       0       0       0       0       0       0       0       
      +0       0       0       0       0       0       0
  2599 ;;      Temps:          0       0       0       0       0       0       0       0       0       0       0       0       
      +0       0       0       0       0       0       0       0       0       0       0       0       0       0       0       
      +0       0       0       0       0       0       0
  2600 ;;      Totals:         0       2       0       0       0       0       0       0       0       0       0       0       
      +0       0       0       0       0       0       0       0       0       0       0       0       0       0       0       
      +0       0       0       0       0       0       0
  2601 ;;Total ram usage:        2 bytes
  2602 ;; Hardware stack levels used:    1
  2603 ;; Hardware stack levels required when called:    7
  2604 ;; This function calls:
  2605 ;;		Nothing
  2606 ;; This function is called by:
  2607 ;;		_CAN1_ErrorNotificationInterruptEnable
  2608 ;; This function uses a non-reentrant model
  2609 ;;
  2610                           
  2611                           	psect	text22
  2612  0037BA                     __ptext22:
  2613                           	callstack 0
  2614  0037BA                     _CAN1_SetSystemErrorInterruptHandler:
  2615                           	callstack 116
  2616  0037BA                     
  2617                           ;mcc_generated_files/can1.c: 603: void CAN1_SetSystemErrorInterruptHandler(void (*handle
      +                          r)(void));mcc_generated_files/can1.c: 604: {;mcc_generated_files/can1.c: 605:     CAN1_S
      +                          ystemErrorHandler = handler;
  2618  0037BA  C5C8  F588         	movff	CAN1_SetSystemErrorInterruptHandler@handler,_CAN1_SystemErrorHandler
  2619  0037BE  C5C9  F589         	movff	CAN1_SetSystemErrorInterruptHandler@handler+1,_CAN1_SystemErrorHandler+1
  2620  0037C2  0012               	return		;funcret
  2621  0037C4                     __end_of_CAN1_SetSystemErrorInterruptHandler:
  2622                           	callstack 0
  2623                           
  2624 ;; *************** function _CAN1_SetRxBufferOverFlowInterruptHandler *****************
  2625 ;; Defined at:
  2626 ;;		line 613 in file "mcc_generated_files/can1.c"
  2627 ;; Parameters:    Size  Location     Type
  2628 ;;  handler         2    0[BANK5 ] PTR FTN()void 
  2629 ;;		 -> DefaultRxBufferOverflowHandler(1), 
  2630 ;; Auto vars:     Size  Location     Type
  2631 ;;		None
  2632 ;; Return value:  Size  Location     Type
  2633 ;;                  1    wreg      void 
  2634 ;; Registers used:
  2635 ;;		wreg, status,2, status,0
  2636 ;; Tracked objects:
  2637 ;;		On entry : 0/0
  2638 ;;		On exit  : 0/0
  2639 ;;		Unchanged: 0/0
  2640 ;; Data sizes:     COMRAM   BANK5   BANK6   BANK7   BANK8   BANK9  BANK10  BANK11  BANK12  BANK13  BANK14  BANK15  BANK1
      +6  BANK17  BANK18  BANK19  BANK20  BANK21  BANK22  BANK23  BANK24  BANK25  BANK26  BANK27  BANK28  BANK29  BANK30  BANK3
      +1  BANK32  BANK33  BANK34  BANK35  BANK36  BANK37
  2641 ;;      Params:         0       2       0       0       0       0       0       0       0       0       0       0       
      +0       0       0       0       0       0       0       0       0       0       0       0       0       0       0       
      +0       0       0       0       0       0       0
  2642 ;;      Locals:         0       0       0       0       0       0       0       0       0       0       0       0       
      +0       0       0       0       0       0       0       0       0       0       0       0       0       0       0       
      +0       0       0       0       0       0       0
  2643 ;;      Temps:          0       0       0       0       0       0       0       0       0       0       0       0       
      +0       0       0       0       0       0       0       0       0       0       0       0       0       0       0       
      +0       0       0       0       0       0       0
  2644 ;;      Totals:         0       2       0       0       0       0       0       0       0       0       0       0       
      +0       0       0       0       0       0       0       0       0       0       0       0       0       0       0       
      +0       0       0       0       0       0       0
  2645 ;;Total ram usage:        2 bytes
  2646 ;; Hardware stack levels used:    1
  2647 ;; Hardware stack levels required when called:    7
  2648 ;; This function calls:
  2649 ;;		Nothing
  2650 ;; This function is called by:
  2651 ;;		_CAN1_ErrorNotificationInterruptEnable
  2652 ;; This function uses a non-reentrant model
  2653 ;;
  2654                           
  2655                           	psect	text23
  2656  0037C4                     __ptext23:
  2657                           	callstack 0
  2658  0037C4                     _CAN1_SetRxBufferOverFlowInterruptHandler:
  2659                           	callstack 116
  2660  0037C4                     
  2661                           ;mcc_generated_files/can1.c: 613: void CAN1_SetRxBufferOverFlowInterruptHandler(void (*h
      +                          andler)(void));mcc_generated_files/can1.c: 614: {;mcc_generated_files/can1.c: 615:     C
      +                          AN1_RxBufferOverflowHandler = handler;
  2662  0037C4  C5C8  F584         	movff	CAN1_SetRxBufferOverFlowInterruptHandler@handler,_CAN1_RxBufferOverflowHandler
  2663  0037C8  C5C9  F585         	movff	CAN1_SetRxBufferOverFlowInterruptHandler@handler+1,_CAN1_RxBufferOverflowHandler+
      +                          1
  2664  0037CC  0012               	return		;funcret
  2665  0037CE                     __end_of_CAN1_SetRxBufferOverFlowInterruptHandler:
  2666                           	callstack 0
  2667                           
  2668 ;; *************** function _CAN1_SetModeChangeInterruptHandler *****************
  2669 ;; Defined at:
  2670 ;;		line 598 in file "mcc_generated_files/can1.c"
  2671 ;; Parameters:    Size  Location     Type
  2672 ;;  handler         2    0[BANK5 ] PTR FTN()void 
  2673 ;;		 -> DefaultModeChangeHandler(1), 
  2674 ;; Auto vars:     Size  Location     Type
  2675 ;;		None
  2676 ;; Return value:  Size  Location     Type
  2677 ;;                  1    wreg      void 
  2678 ;; Registers used:
  2679 ;;		wreg, status,2, status,0
  2680 ;; Tracked objects:
  2681 ;;		On entry : 0/0
  2682 ;;		On exit  : 0/0
  2683 ;;		Unchanged: 0/0
  2684 ;; Data sizes:     COMRAM   BANK5   BANK6   BANK7   BANK8   BANK9  BANK10  BANK11  BANK12  BANK13  BANK14  BANK15  BANK1
      +6  BANK17  BANK18  BANK19  BANK20  BANK21  BANK22  BANK23  BANK24  BANK25  BANK26  BANK27  BANK28  BANK29  BANK30  BANK3
      +1  BANK32  BANK33  BANK34  BANK35  BANK36  BANK37
  2685 ;;      Params:         0       2       0       0       0       0       0       0       0       0       0       0       
      +0       0       0       0       0       0       0       0       0       0       0       0       0       0       0       
      +0       0       0       0       0       0       0
  2686 ;;      Locals:         0       0       0       0       0       0       0       0       0       0       0       0       
      +0       0       0       0       0       0       0       0       0       0       0       0       0       0       0       
      +0       0       0       0       0       0       0
  2687 ;;      Temps:          0       0       0       0       0       0       0       0       0       0       0       0       
      +0       0       0       0       0       0       0       0       0       0       0       0       0       0       0       
      +0       0       0       0       0       0       0
  2688 ;;      Totals:         0       2       0       0       0       0       0       0       0       0       0       0       
      +0       0       0       0       0       0       0       0       0       0       0       0       0       0       0       
      +0       0       0       0       0       0       0
  2689 ;;Total ram usage:        2 bytes
  2690 ;; Hardware stack levels used:    1
  2691 ;; Hardware stack levels required when called:    7
  2692 ;; This function calls:
  2693 ;;		Nothing
  2694 ;; This function is called by:
  2695 ;;		_CAN1_ErrorNotificationInterruptEnable
  2696 ;; This function uses a non-reentrant model
  2697 ;;
  2698                           
  2699                           	psect	text24
  2700  0037CE                     __ptext24:
  2701                           	callstack 0
  2702  0037CE                     _CAN1_SetModeChangeInterruptHandler:
  2703                           	callstack 116
  2704  0037CE                     
  2705                           ;mcc_generated_files/can1.c: 598: void CAN1_SetModeChangeInterruptHandler(void (*handler
      +                          )(void));mcc_generated_files/can1.c: 599: {;mcc_generated_files/can1.c: 600:     CAN1_Mo
      +                          deChangeHandler = handler;
  2706  0037CE  C5C8  F58A         	movff	CAN1_SetModeChangeInterruptHandler@handler,_CAN1_ModeChangeHandler
  2707  0037D2  C5C9  F58B         	movff	CAN1_SetModeChangeInterruptHandler@handler+1,_CAN1_ModeChangeHandler+1
  2708  0037D6  0012               	return		;funcret
  2709  0037D8                     __end_of_CAN1_SetModeChangeInterruptHandler:
  2710                           	callstack 0
  2711                           
  2712 ;; *************** function _CAN1_SetInvalidMessageInterruptHandler *****************
  2713 ;; Defined at:
  2714 ;;		line 583 in file "mcc_generated_files/can1.c"
  2715 ;; Parameters:    Size  Location     Type
  2716 ;;  handler         2    0[BANK5 ] PTR FTN()void 
  2717 ;;		 -> DefaultInvalidMessageHandler(1), 
  2718 ;; Auto vars:     Size  Location     Type
  2719 ;;		None
  2720 ;; Return value:  Size  Location     Type
  2721 ;;                  1    wreg      void 
  2722 ;; Registers used:
  2723 ;;		wreg, status,2, status,0
  2724 ;; Tracked objects:
  2725 ;;		On entry : 0/0
  2726 ;;		On exit  : 0/0
  2727 ;;		Unchanged: 0/0
  2728 ;; Data sizes:     COMRAM   BANK5   BANK6   BANK7   BANK8   BANK9  BANK10  BANK11  BANK12  BANK13  BANK14  BANK15  BANK1
      +6  BANK17  BANK18  BANK19  BANK20  BANK21  BANK22  BANK23  BANK24  BANK25  BANK26  BANK27  BANK28  BANK29  BANK30  BANK3
      +1  BANK32  BANK33  BANK34  BANK35  BANK36  BANK37
  2729 ;;      Params:         0       2       0       0       0       0       0       0       0       0       0       0       
      +0       0       0       0       0       0       0       0       0       0       0       0       0       0       0       
      +0       0       0       0       0       0       0
  2730 ;;      Locals:         0       0       0       0       0       0       0       0       0       0       0       0       
      +0       0       0       0       0       0       0       0       0       0       0       0       0       0       0       
      +0       0       0       0       0       0       0
  2731 ;;      Temps:          0       0       0       0       0       0       0       0       0       0       0       0       
      +0       0       0       0       0       0       0       0       0       0       0       0       0       0       0       
      +0       0       0       0       0       0       0
  2732 ;;      Totals:         0       2       0       0       0       0       0       0       0       0       0       0       
      +0       0       0       0       0       0       0       0       0       0       0       0       0       0       0       
      +0       0       0       0       0       0       0
  2733 ;;Total ram usage:        2 bytes
  2734 ;; Hardware stack levels used:    1
  2735 ;; Hardware stack levels required when called:    7
  2736 ;; This function calls:
  2737 ;;		Nothing
  2738 ;; This function is called by:
  2739 ;;		_CAN1_ErrorNotificationInterruptEnable
  2740 ;; This function uses a non-reentrant model
  2741 ;;
  2742                           
  2743                           	psect	text25
  2744  0037D8                     __ptext25:
  2745                           	callstack 0
  2746  0037D8                     _CAN1_SetInvalidMessageInterruptHandler:
  2747                           	callstack 116
  2748  0037D8                     
  2749                           ;mcc_generated_files/can1.c: 583: void CAN1_SetInvalidMessageInterruptHandler(void (*han
      +                          dler)(void));mcc_generated_files/can1.c: 584: {;mcc_generated_files/can1.c: 585:     CAN
      +                          1_InvalidMessageHandler = handler;
  2750  0037D8  C5C8  F590         	movff	CAN1_SetInvalidMessageInterruptHandler@handler,_CAN1_InvalidMessageHandler
  2751  0037DC  C5C9  F591         	movff	CAN1_SetInvalidMessageInterruptHandler@handler+1,_CAN1_InvalidMessageHandler+1
  2752  0037E0  0012               	return		;funcret
  2753  0037E2                     __end_of_CAN1_SetInvalidMessageInterruptHandler:
  2754                           	callstack 0
  2755                           
  2756 ;; *************** function _CAN1_SetBusWakeUpActivityInterruptHandler *****************
  2757 ;; Defined at:
  2758 ;;		line 588 in file "mcc_generated_files/can1.c"
  2759 ;; Parameters:    Size  Location     Type
  2760 ;;  handler         2    0[BANK5 ] PTR FTN()void 
  2761 ;;		 -> DefaultBusWakeUpActivityHandler(1), 
  2762 ;; Auto vars:     Size  Location     Type
  2763 ;;		None
  2764 ;; Return value:  Size  Location     Type
  2765 ;;                  1    wreg      void 
  2766 ;; Registers used:
  2767 ;;		wreg, status,2, status,0
  2768 ;; Tracked objects:
  2769 ;;		On entry : 0/0
  2770 ;;		On exit  : 0/0
  2771 ;;		Unchanged: 0/0
  2772 ;; Data sizes:     COMRAM   BANK5   BANK6   BANK7   BANK8   BANK9  BANK10  BANK11  BANK12  BANK13  BANK14  BANK15  BANK1
      +6  BANK17  BANK18  BANK19  BANK20  BANK21  BANK22  BANK23  BANK24  BANK25  BANK26  BANK27  BANK28  BANK29  BANK30  BANK3
      +1  BANK32  BANK33  BANK34  BANK35  BANK36  BANK37
  2773 ;;      Params:         0       2       0       0       0       0       0       0       0       0       0       0       
      +0       0       0       0       0       0       0       0       0       0       0       0       0       0       0       
      +0       0       0       0       0       0       0
  2774 ;;      Locals:         0       0       0       0       0       0       0       0       0       0       0       0       
      +0       0       0       0       0       0       0       0       0       0       0       0       0       0       0       
      +0       0       0       0       0       0       0
  2775 ;;      Temps:          0       0       0       0       0       0       0       0       0       0       0       0       
      +0       0       0       0       0       0       0       0       0       0       0       0       0       0       0       
      +0       0       0       0       0       0       0
  2776 ;;      Totals:         0       2       0       0       0       0       0       0       0       0       0       0       
      +0       0       0       0       0       0       0       0       0       0       0       0       0       0       0       
      +0       0       0       0       0       0       0
  2777 ;;Total ram usage:        2 bytes
  2778 ;; Hardware stack levels used:    1
  2779 ;; Hardware stack levels required when called:    7
  2780 ;; This function calls:
  2781 ;;		Nothing
  2782 ;; This function is called by:
  2783 ;;		_CAN1_ErrorNotificationInterruptEnable
  2784 ;; This function uses a non-reentrant model
  2785 ;;
  2786                           
  2787                           	psect	text26
  2788  0037E2                     __ptext26:
  2789                           	callstack 0
  2790  0037E2                     _CAN1_SetBusWakeUpActivityInterruptHandler:
  2791                           	callstack 116
  2792  0037E2                     
  2793                           ;mcc_generated_files/can1.c: 588: void CAN1_SetBusWakeUpActivityInterruptHandler(void (*
      +                          handler)(void));mcc_generated_files/can1.c: 589: {;mcc_generated_files/can1.c: 590:     
      +                          CAN1_BusWakeUpActivityHandler = handler;
  2794  0037E2  C5C8  F58E         	movff	CAN1_SetBusWakeUpActivityInterruptHandler@handler,_CAN1_BusWakeUpActivityHandler
  2795  0037E6  C5C9  F58F         	movff	CAN1_SetBusWakeUpActivityInterruptHandler@handler+1,_CAN1_BusWakeUpActivityHandle
      +                          r+1
  2796  0037EA  0012               	return		;funcret
  2797  0037EC                     __end_of_CAN1_SetBusWakeUpActivityInterruptHandler:
  2798                           	callstack 0
  2799                           
  2800 ;; *************** function _CAN1_SetBusErrorInterruptHandler *****************
  2801 ;; Defined at:
  2802 ;;		line 593 in file "mcc_generated_files/can1.c"
  2803 ;; Parameters:    Size  Location     Type
  2804 ;;  handler         2    0[BANK5 ] PTR FTN()void 
  2805 ;;		 -> DefaultBusErrorHandler(1), 
  2806 ;; Auto vars:     Size  Location     Type
  2807 ;;		None
  2808 ;; Return value:  Size  Location     Type
  2809 ;;                  1    wreg      void 
  2810 ;; Registers used:
  2811 ;;		wreg, status,2, status,0
  2812 ;; Tracked objects:
  2813 ;;		On entry : 0/0
  2814 ;;		On exit  : 0/0
  2815 ;;		Unchanged: 0/0
  2816 ;; Data sizes:     COMRAM   BANK5   BANK6   BANK7   BANK8   BANK9  BANK10  BANK11  BANK12  BANK13  BANK14  BANK15  BANK1
      +6  BANK17  BANK18  BANK19  BANK20  BANK21  BANK22  BANK23  BANK24  BANK25  BANK26  BANK27  BANK28  BANK29  BANK30  BANK3
      +1  BANK32  BANK33  BANK34  BANK35  BANK36  BANK37
  2817 ;;      Params:         0       2       0       0       0       0       0       0       0       0       0       0       
      +0       0       0       0       0       0       0       0       0       0       0       0       0       0       0       
      +0       0       0       0       0       0       0
  2818 ;;      Locals:         0       0       0       0       0       0       0       0       0       0       0       0       
      +0       0       0       0       0       0       0       0       0       0       0       0       0       0       0       
      +0       0       0       0       0       0       0
  2819 ;;      Temps:          0       0       0       0       0       0       0       0       0       0       0       0       
      +0       0       0       0       0       0       0       0       0       0       0       0       0       0       0       
      +0       0       0       0       0       0       0
  2820 ;;      Totals:         0       2       0       0       0       0       0       0       0       0       0       0       
      +0       0       0       0       0       0       0       0       0       0       0       0       0       0       0       
      +0       0       0       0       0       0       0
  2821 ;;Total ram usage:        2 bytes
  2822 ;; Hardware stack levels used:    1
  2823 ;; Hardware stack levels required when called:    7
  2824 ;; This function calls:
  2825 ;;		Nothing
  2826 ;; This function is called by:
  2827 ;;		_CAN1_ErrorNotificationInterruptEnable
  2828 ;; This function uses a non-reentrant model
  2829 ;;
  2830                           
  2831                           	psect	text27
  2832  0037EC                     __ptext27:
  2833                           	callstack 0
  2834  0037EC                     _CAN1_SetBusErrorInterruptHandler:
  2835                           	callstack 116
  2836  0037EC                     
  2837                           ;mcc_generated_files/can1.c: 593: void CAN1_SetBusErrorInterruptHandler(void (*handler)(
      +                          void));mcc_generated_files/can1.c: 594: {;mcc_generated_files/can1.c: 595:     CAN1_BusE
      +                          rrorHandler = handler;
  2838  0037EC  C5C8  F58C         	movff	CAN1_SetBusErrorInterruptHandler@handler,_CAN1_BusErrorHandler
  2839  0037F0  C5C9  F58D         	movff	CAN1_SetBusErrorInterruptHandler@handler+1,_CAN1_BusErrorHandler+1
  2840  0037F4  0012               	return		;funcret
  2841  0037F6                     __end_of_CAN1_SetBusErrorInterruptHandler:
  2842                           	callstack 0
  2843                           
  2844 ;; *************** function _CAN1_BitRateConfiguration *****************
  2845 ;; Defined at:
  2846 ;;		line 195 in file "mcc_generated_files/can1.c"
  2847 ;; Parameters:    Size  Location     Type
  2848 ;;		None
  2849 ;; Auto vars:     Size  Location     Type
  2850 ;;		None
  2851 ;; Return value:  Size  Location     Type
  2852 ;;                  1    wreg      void 
  2853 ;; Registers used:
  2854 ;;		wreg, status,2
  2855 ;; Tracked objects:
  2856 ;;		On entry : 0/0
  2857 ;;		On exit  : 0/0
  2858 ;;		Unchanged: 0/0
  2859 ;; Data sizes:     COMRAM   BANK5   BANK6   BANK7   BANK8   BANK9  BANK10  BANK11  BANK12  BANK13  BANK14  BANK15  BANK1
      +6  BANK17  BANK18  BANK19  BANK20  BANK21  BANK22  BANK23  BANK24  BANK25  BANK26  BANK27  BANK28  BANK29  BANK30  BANK3
      +1  BANK32  BANK33  BANK34  BANK35  BANK36  BANK37
  2860 ;;      Params:         0       0       0       0       0       0       0       0       0       0       0       0       
      +0       0       0       0       0       0       0       0       0       0       0       0       0       0       0       
      +0       0       0       0       0       0       0
  2861 ;;      Locals:         0       0       0       0       0       0       0       0       0       0       0       0       
      +0       0       0       0       0       0       0       0       0       0       0       0       0       0       0       
      +0       0       0       0       0       0       0
  2862 ;;      Temps:          0       0       0       0       0       0       0       0       0       0       0       0       
      +0       0       0       0       0       0       0       0       0       0       0       0       0       0       0       
      +0       0       0       0       0       0       0
  2863 ;;      Totals:         0       0       0       0       0       0       0       0       0       0       0       0       
      +0       0       0       0       0       0       0       0       0       0       0       0       0       0       0       
      +0       0       0       0       0       0       0
  2864 ;;Total ram usage:        0 bytes
  2865 ;; Hardware stack levels used:    1
  2866 ;; Hardware stack levels required when called:    7
  2867 ;; This function calls:
  2868 ;;		Nothing
  2869 ;; This function is called by:
  2870 ;;		_CAN1_Initialize
  2871 ;; This function uses a non-reentrant model
  2872 ;;
  2873                           
  2874                           	psect	text28
  2875  003766                     __ptext28:
  2876                           	callstack 0
  2877  003766                     _CAN1_BitRateConfiguration:
  2878                           	callstack 117
  2879  003766                     
  2880                           ;mcc_generated_files/can1.c: 198:     C1NBTCFGL = 0x01;
  2881  003766  0E01               	movlw	1
  2882  003768  0101               	movlb	1	; () banked
  2883  00376A  6F04               	movwf	4,b	;volatile
  2884                           
  2885                           ;mcc_generated_files/can1.c: 201:     C1NBTCFGH = 0x01;
  2886  00376C  0E01               	movlw	1
  2887  00376E  6F05               	movwf	5,b	;volatile
  2888                           
  2889                           ;mcc_generated_files/can1.c: 204:     C1NBTCFGU = 0x06;
  2890  003770  0E06               	movlw	6
  2891  003772  6F06               	movwf	6,b	;volatile
  2892                           
  2893                           ;mcc_generated_files/can1.c: 207:     C1NBTCFGT = 0x00;
  2894  003774  0E00               	movlw	0
  2895  003776  6F07               	movwf	7,b	;volatile
  2896  003778                     
  2897                           ; BSR set to: 1
  2898  003778  0012               	return		;funcret
  2899  00377A                     __end_of_CAN1_BitRateConfiguration:
  2900                           	callstack 0
  2901                           
  2902 ;; *************** function _ADC_Initialize *****************
  2903 ;; Defined at:
  2904 ;;		line 65 in file "mcc_generated_files/adc.c"
  2905 ;; Parameters:    Size  Location     Type
  2906 ;;		None
  2907 ;; Auto vars:     Size  Location     Type
  2908 ;;		None
  2909 ;; Return value:  Size  Location     Type
  2910 ;;                  1    wreg      void 
  2911 ;; Registers used:
  2912 ;;		wreg, status,2, status,0, cstack
  2913 ;; Tracked objects:
  2914 ;;		On entry : 0/0
  2915 ;;		On exit  : 0/0
  2916 ;;		Unchanged: 0/0
  2917 ;; Data sizes:     COMRAM   BANK5   BANK6   BANK7   BANK8   BANK9  BANK10  BANK11  BANK12  BANK13  BANK14  BANK15  BANK1
      +6  BANK17  BANK18  BANK19  BANK20  BANK21  BANK22  BANK23  BANK24  BANK25  BANK26  BANK27  BANK28  BANK29  BANK30  BANK3
      +1  BANK32  BANK33  BANK34  BANK35  BANK36  BANK37
  2918 ;;      Params:         0       0       0       0       0       0       0       0       0       0       0       0       
      +0       0       0       0       0       0       0       0       0       0       0       0       0       0       0       
      +0       0       0       0       0       0       0
  2919 ;;      Locals:         0       0       0       0       0       0       0       0       0       0       0       0       
      +0       0       0       0       0       0       0       0       0       0       0       0       0       0       0       
      +0       0       0       0       0       0       0
  2920 ;;      Temps:          0       0       0       0       0       0       0       0       0       0       0       0       
      +0       0       0       0       0       0       0       0       0       0       0       0       0       0       0       
      +0       0       0       0       0       0       0
  2921 ;;      Totals:         0       0       0       0       0       0       0       0       0       0       0       0       
      +0       0       0       0       0       0       0       0       0       0       0       0       0       0       0       
      +0       0       0       0       0       0       0
  2922 ;;Total ram usage:        0 bytes
  2923 ;; Hardware stack levels used:    1
  2924 ;; Hardware stack levels required when called:    8
  2925 ;; This function calls:
  2926 ;;		_ADC_SetADIInterruptHandler
  2927 ;;		_ADC_SetActiveClockTuningInterruptHandler
  2928 ;;		_ADC_SetContext1ThresholdInterruptHandler
  2929 ;; This function is called by:
  2930 ;;		_SYSTEM_Initialize
  2931 ;; This function uses a non-reentrant model
  2932 ;;
  2933                           
  2934                           	psect	text29
  2935  002DB0                     __ptext29:
  2936                           	callstack 0
  2937  002DB0                     _ADC_Initialize:
  2938                           	callstack 117
  2939  002DB0                     
  2940                           ;mcc_generated_files/adc.c: 68:     ADACT = 0x02;
  2941  002DB0  0E02               	movlw	2
  2942  002DB2  0103               	movlb	3	; () banked
  2943  002DB4  6FF9               	movwf	249,b	;volatile
  2944                           
  2945                           ;mcc_generated_files/adc.c: 71:     ADCLK = 0x00;
  2946  002DB6  0E00               	movlw	0
  2947  002DB8  6FFA               	movwf	250,b	;volatile
  2948                           
  2949                           ;mcc_generated_files/adc.c: 74:     ADCP = 0x00;
  2950  002DBA  0E00               	movlw	0
  2951  002DBC  6FD8               	movwf	216,b	;volatile
  2952                           
  2953                           ;mcc_generated_files/adc.c: 80:     ADCTX = 0x0;
  2954  002DBE  0E00               	movlw	0
  2955  002DC0  6FFB               	movwf	251,b	;volatile
  2956                           
  2957                           ;mcc_generated_files/adc.c: 83:     ADLTHL = 0x00;
  2958  002DC2  0E00               	movlw	0
  2959  002DC4  6FD9               	movwf	217,b	;volatile
  2960                           
  2961                           ;mcc_generated_files/adc.c: 86:     ADLTHH = 0x00;
  2962  002DC6  0E00               	movlw	0
  2963  002DC8  6FDA               	movwf	218,b	;volatile
  2964                           
  2965                           ;mcc_generated_files/adc.c: 89:     ADUTHL = 0x00;
  2966  002DCA  0E00               	movlw	0
  2967  002DCC  6FDB               	movwf	219,b	;volatile
  2968                           
  2969                           ;mcc_generated_files/adc.c: 92:     ADUTHH = 0x00;
  2970  002DCE  0E00               	movlw	0
  2971  002DD0  6FDC               	movwf	220,b	;volatile
  2972                           
  2973                           ;mcc_generated_files/adc.c: 95:     ADSTPTL = 0x00;
  2974  002DD2  0E00               	movlw	0
  2975  002DD4  6FDF               	movwf	223,b	;volatile
  2976                           
  2977                           ;mcc_generated_files/adc.c: 98:     ADSTPTH = 0x00;
  2978  002DD6  0E00               	movlw	0
  2979  002DD8  6FE0               	movwf	224,b	;volatile
  2980                           
  2981                           ;mcc_generated_files/adc.c: 101:     ADACCL = 0x00;
  2982  002DDA  0E00               	movlw	0
  2983  002DDC  6FE3               	movwf	227,b	;volatile
  2984                           
  2985                           ;mcc_generated_files/adc.c: 104:     ADACCH = 0x00;
  2986  002DDE  0E00               	movlw	0
  2987  002DE0  6FE4               	movwf	228,b	;volatile
  2988                           
  2989                           ;mcc_generated_files/adc.c: 107:     ADACCU = 0x00;
  2990  002DE2  0E00               	movlw	0
  2991  002DE4  6FE5               	movwf	229,b	;volatile
  2992                           
  2993                           ;mcc_generated_files/adc.c: 110:     ADCNT = 0x00;
  2994  002DE6  0E00               	movlw	0
  2995  002DE8  6FE6               	movwf	230,b	;volatile
  2996                           
  2997                           ;mcc_generated_files/adc.c: 113:     ADRPT = 0x00;
  2998  002DEA  0E00               	movlw	0
  2999  002DEC  6FE7               	movwf	231,b	;volatile
  3000                           
  3001                           ;mcc_generated_files/adc.c: 116:     ADRESL = 0x00;
  3002  002DEE  0E00               	movlw	0
  3003  002DF0  6FEA               	movwf	234,b	;volatile
  3004                           
  3005                           ;mcc_generated_files/adc.c: 119:     ADRESH = 0x00;
  3006  002DF2  0E00               	movlw	0
  3007  002DF4  6FEB               	movwf	235,b	;volatile
  3008                           
  3009                           ;mcc_generated_files/adc.c: 122:     ADPCH = 0x10;
  3010  002DF6  0E10               	movlw	16
  3011  002DF8  6FEC               	movwf	236,b	;volatile
  3012                           
  3013                           ;mcc_generated_files/adc.c: 125:     ADACQL = 0x00;
  3014  002DFA  0E00               	movlw	0
  3015  002DFC  6FEE               	movwf	238,b	;volatile
  3016                           
  3017                           ;mcc_generated_files/adc.c: 128:     ADACQH = 0x00;
  3018  002DFE  0E00               	movlw	0
  3019  002E00  6FEF               	movwf	239,b	;volatile
  3020                           
  3021                           ;mcc_generated_files/adc.c: 131:     ADCAP = 0x00;
  3022  002E02  0E00               	movlw	0
  3023  002E04  6FF0               	movwf	240,b	;volatile
  3024                           
  3025                           ;mcc_generated_files/adc.c: 134:     ADPREL = 0x00;
  3026  002E06  0E00               	movlw	0
  3027  002E08  6FF1               	movwf	241,b	;volatile
  3028                           
  3029                           ;mcc_generated_files/adc.c: 137:     ADPREH = 0x00;
  3030  002E0A  0E00               	movlw	0
  3031  002E0C  6FF2               	movwf	242,b	;volatile
  3032                           
  3033                           ;mcc_generated_files/adc.c: 140:     ADCON0 = 0x00;
  3034  002E0E  0E00               	movlw	0
  3035  002E10  6FF3               	movwf	243,b	;volatile
  3036                           
  3037                           ;mcc_generated_files/adc.c: 143:     ADCON1 = 0x00;
  3038  002E12  0E00               	movlw	0
  3039  002E14  6FF4               	movwf	244,b	;volatile
  3040                           
  3041                           ;mcc_generated_files/adc.c: 146:     ADCON2 = 0x10;
  3042  002E16  0E10               	movlw	16
  3043  002E18  6FF5               	movwf	245,b	;volatile
  3044                           
  3045                           ;mcc_generated_files/adc.c: 149:     ADCON3 = 0x00;
  3046  002E1A  0E00               	movlw	0
  3047  002E1C  6FF6               	movwf	246,b	;volatile
  3048                           
  3049                           ;mcc_generated_files/adc.c: 152:     ADSTAT = 0x00;
  3050  002E1E  0E00               	movlw	0
  3051  002E20  6FF7               	movwf	247,b	;volatile
  3052                           
  3053                           ;mcc_generated_files/adc.c: 155:     ADREF = 0x12;
  3054  002E22  0E12               	movlw	18
  3055  002E24  6FF8               	movwf	248,b	;volatile
  3056                           
  3057                           ;mcc_generated_files/adc.c: 158:     ADCSEL1 = 0x00;
  3058  002E26  0E00               	movlw	0
  3059  002E28  6FFC               	movwf	252,b	;volatile
  3060  002E2A                     
  3061                           ; BSR set to: 3
  3062                           ;mcc_generated_files/adc.c: 161:     PIR1bits.ADIF = 0;
  3063  002E2A  94AF               	bcf	175,2,c	;volatile
  3064  002E2C                     
  3065                           ; BSR set to: 3
  3066                           ;mcc_generated_files/adc.c: 164:     PIR1bits.ACTIF = 0;
  3067  002E2C  96AF               	bcf	175,3,c	;volatile
  3068  002E2E                     
  3069                           ; BSR set to: 3
  3070                           ;mcc_generated_files/adc.c: 167:     PIR2bits.ADCH1IF = 0;
  3071  002E2E  90B0               	bcf	176,0,c	;volatile
  3072  002E30                     
  3073                           ; BSR set to: 3
  3074                           ;mcc_generated_files/adc.c: 171:     ADC_SetADIInterruptHandler(ADC_DefaultADI_ISR);
  3075  002E30  0E00               	movlw	0
  3076  002E32  0105               	movlb	5	; () banked
  3077  002E34  6FC8               	movwf	ADC_SetADIInterruptHandler@InterruptHandler& (0+255),b
  3078  002E36  0E00               	movlw	0
  3079  002E38  6FC9               	movwf	(ADC_SetADIInterruptHandler@InterruptHandler+1)& (0+255),b
  3080  002E3A  EC05  F01C         	call	_ADC_SetADIInterruptHandler	;wreg free
  3081  002E3E                     
  3082                           ;mcc_generated_files/adc.c: 172:     ADC_SetContext1ThresholdInterruptHandler(ADC_Defaul
      +                          tContext1Threshold_ISR);
  3083  002E3E  0E00               	movlw	0
  3084  002E40  0105               	movlb	5	; () banked
  3085  002E42  6FC8               	movwf	ADC_SetContext1ThresholdInterruptHandler@InterruptHandler& (0+255),b
  3086  002E44  0E00               	movlw	0
  3087  002E46  6FC9               	movwf	(ADC_SetContext1ThresholdInterruptHandler@InterruptHandler+1)& (0+255),b
  3088  002E48  ECFB  F01B         	call	_ADC_SetContext1ThresholdInterruptHandler	;wreg free
  3089  002E4C                     
  3090                           ;mcc_generated_files/adc.c: 173:     ADC_SetActiveClockTuningInterruptHandler(ADC_Defaul
      +                          tActiveClockTuning_ISR);
  3091  002E4C  0E00               	movlw	0
  3092  002E4E  0105               	movlb	5	; () banked
  3093  002E50  6FC8               	movwf	ADC_SetActiveClockTuningInterruptHandler@InterruptHandler& (0+255),b
  3094  002E52  0E00               	movlw	0
  3095  002E54  6FC9               	movwf	(ADC_SetActiveClockTuningInterruptHandler@InterruptHandler+1)& (0+255),b
  3096  002E56  EC00  F01C         	call	_ADC_SetActiveClockTuningInterruptHandler	;wreg free
  3097  002E5A                     
  3098                           ;mcc_generated_files/adc.c: 176:     ADCON0 = 0x84;
  3099  002E5A  0E84               	movlw	132
  3100  002E5C  0103               	movlb	3	; () banked
  3101  002E5E  6FF3               	movwf	243,b	;volatile
  3102  002E60                     
  3103                           ; BSR set to: 3
  3104  002E60  0012               	return		;funcret
  3105  002E62                     __end_of_ADC_Initialize:
  3106                           	callstack 0
  3107                           
  3108 ;; *************** function _ADC_SetContext1ThresholdInterruptHandler *****************
  3109 ;; Defined at:
  3110 ;;		line 423 in file "mcc_generated_files/adc.c"
  3111 ;; Parameters:    Size  Location     Type
  3112 ;;  InterruptHan    2    0[BANK5 ] PTR FTN()void 
  3113 ;;		 -> ADC_DefaultContext1Threshold_ISR(1), 
  3114 ;; Auto vars:     Size  Location     Type
  3115 ;;		None
  3116 ;; Return value:  Size  Location     Type
  3117 ;;                  1    wreg      void 
  3118 ;; Registers used:
  3119 ;;		wreg, status,2, status,0
  3120 ;; Tracked objects:
  3121 ;;		On entry : 0/0
  3122 ;;		On exit  : 0/0
  3123 ;;		Unchanged: 0/0
  3124 ;; Data sizes:     COMRAM   BANK5   BANK6   BANK7   BANK8   BANK9  BANK10  BANK11  BANK12  BANK13  BANK14  BANK15  BANK1
      +6  BANK17  BANK18  BANK19  BANK20  BANK21  BANK22  BANK23  BANK24  BANK25  BANK26  BANK27  BANK28  BANK29  BANK30  BANK3
      +1  BANK32  BANK33  BANK34  BANK35  BANK36  BANK37
  3125 ;;      Params:         0       2       0       0       0       0       0       0       0       0       0       0       
      +0       0       0       0       0       0       0       0       0       0       0       0       0       0       0       
      +0       0       0       0       0       0       0
  3126 ;;      Locals:         0       0       0       0       0       0       0       0       0       0       0       0       
      +0       0       0       0       0       0       0       0       0       0       0       0       0       0       0       
      +0       0       0       0       0       0       0
  3127 ;;      Temps:          0       0       0       0       0       0       0       0       0       0       0       0       
      +0       0       0       0       0       0       0       0       0       0       0       0       0       0       0       
      +0       0       0       0       0       0       0
  3128 ;;      Totals:         0       2       0       0       0       0       0       0       0       0       0       0       
      +0       0       0       0       0       0       0       0       0       0       0       0       0       0       0       
      +0       0       0       0       0       0       0
  3129 ;;Total ram usage:        2 bytes
  3130 ;; Hardware stack levels used:    1
  3131 ;; Hardware stack levels required when called:    7
  3132 ;; This function calls:
  3133 ;;		Nothing
  3134 ;; This function is called by:
  3135 ;;		_ADC_Initialize
  3136 ;; This function uses a non-reentrant model
  3137 ;;
  3138                           
  3139                           	psect	text30
  3140  0037F6                     __ptext30:
  3141                           	callstack 0
  3142  0037F6                     _ADC_SetContext1ThresholdInterruptHandler:
  3143                           	callstack 117
  3144  0037F6                     
  3145                           ;mcc_generated_files/adc.c: 423: void ADC_SetContext1ThresholdInterruptHandler(void (* I
      +                          nterruptHandler)(void));mcc_generated_files/adc.c: 424: {;mcc_generated_files/adc.c: 425
      +                          :     ADC_Context1Thereshld_ISR = InterruptHandler;
  3146  0037F6  C5C8  F5C4         	movff	ADC_SetContext1ThresholdInterruptHandler@InterruptHandler,_ADC_Context1Thereshld_
      +                          ISR
  3147  0037FA  C5C9  F5C5         	movff	ADC_SetContext1ThresholdInterruptHandler@InterruptHandler+1,_ADC_Context1Thereshl
      +                          d_ISR+1
  3148  0037FE  0012               	return		;funcret
  3149  003800                     __end_of_ADC_SetContext1ThresholdInterruptHandler:
  3150                           	callstack 0
  3151                           
  3152 ;; *************** function _ADC_SetActiveClockTuningInterruptHandler *****************
  3153 ;; Defined at:
  3154 ;;		line 428 in file "mcc_generated_files/adc.c"
  3155 ;; Parameters:    Size  Location     Type
  3156 ;;  InterruptHan    2    0[BANK5 ] PTR FTN()void 
  3157 ;;		 -> ADC_DefaultActiveClockTuning_ISR(1), 
  3158 ;; Auto vars:     Size  Location     Type
  3159 ;;		None
  3160 ;; Return value:  Size  Location     Type
  3161 ;;                  1    wreg      void 
  3162 ;; Registers used:
  3163 ;;		wreg, status,2, status,0
  3164 ;; Tracked objects:
  3165 ;;		On entry : 0/0
  3166 ;;		On exit  : 0/0
  3167 ;;		Unchanged: 0/0
  3168 ;; Data sizes:     COMRAM   BANK5   BANK6   BANK7   BANK8   BANK9  BANK10  BANK11  BANK12  BANK13  BANK14  BANK15  BANK1
      +6  BANK17  BANK18  BANK19  BANK20  BANK21  BANK22  BANK23  BANK24  BANK25  BANK26  BANK27  BANK28  BANK29  BANK30  BANK3
      +1  BANK32  BANK33  BANK34  BANK35  BANK36  BANK37
  3169 ;;      Params:         0       2       0       0       0       0       0       0       0       0       0       0       
      +0       0       0       0       0       0       0       0       0       0       0       0       0       0       0       
      +0       0       0       0       0       0       0
  3170 ;;      Locals:         0       0       0       0       0       0       0       0       0       0       0       0       
      +0       0       0       0       0       0       0       0       0       0       0       0       0       0       0       
      +0       0       0       0       0       0       0
  3171 ;;      Temps:          0       0       0       0       0       0       0       0       0       0       0       0       
      +0       0       0       0       0       0       0       0       0       0       0       0       0       0       0       
      +0       0       0       0       0       0       0
  3172 ;;      Totals:         0       2       0       0       0       0       0       0       0       0       0       0       
      +0       0       0       0       0       0       0       0       0       0       0       0       0       0       0       
      +0       0       0       0       0       0       0
  3173 ;;Total ram usage:        2 bytes
  3174 ;; Hardware stack levels used:    1
  3175 ;; Hardware stack levels required when called:    7
  3176 ;; This function calls:
  3177 ;;		Nothing
  3178 ;; This function is called by:
  3179 ;;		_ADC_Initialize
  3180 ;; This function uses a non-reentrant model
  3181 ;;
  3182                           
  3183                           	psect	text31
  3184  003800                     __ptext31:
  3185                           	callstack 0
  3186  003800                     _ADC_SetActiveClockTuningInterruptHandler:
  3187                           	callstack 117
  3188  003800                     
  3189                           ;mcc_generated_files/adc.c: 428: void ADC_SetActiveClockTuningInterruptHandler(void (* I
      +                          nterruptHandler)(void));mcc_generated_files/adc.c: 429: {;mcc_generated_files/adc.c: 430
      +                          :     ADC_ActiveClockTuning_ISR = InterruptHandler;
  3190  003800  C5C8  F5C2         	movff	ADC_SetActiveClockTuningInterruptHandler@InterruptHandler,_ADC_ActiveClockTuning_
      +                          ISR
  3191  003804  C5C9  F5C3         	movff	ADC_SetActiveClockTuningInterruptHandler@InterruptHandler+1,_ADC_ActiveClockTunin
      +                          g_ISR+1
  3192  003808  0012               	return		;funcret
  3193  00380A                     __end_of_ADC_SetActiveClockTuningInterruptHandler:
  3194                           	callstack 0
  3195                           
  3196 ;; *************** function _ADC_SetADIInterruptHandler *****************
  3197 ;; Defined at:
  3198 ;;		line 418 in file "mcc_generated_files/adc.c"
  3199 ;; Parameters:    Size  Location     Type
  3200 ;;  InterruptHan    2    0[BANK5 ] PTR FTN()void 
  3201 ;;		 -> ADC_DefaultADI_ISR(1), 
  3202 ;; Auto vars:     Size  Location     Type
  3203 ;;		None
  3204 ;; Return value:  Size  Location     Type
  3205 ;;                  1    wreg      void 
  3206 ;; Registers used:
  3207 ;;		wreg, status,2, status,0
  3208 ;; Tracked objects:
  3209 ;;		On entry : 0/0
  3210 ;;		On exit  : 0/0
  3211 ;;		Unchanged: 0/0
  3212 ;; Data sizes:     COMRAM   BANK5   BANK6   BANK7   BANK8   BANK9  BANK10  BANK11  BANK12  BANK13  BANK14  BANK15  BANK1
      +6  BANK17  BANK18  BANK19  BANK20  BANK21  BANK22  BANK23  BANK24  BANK25  BANK26  BANK27  BANK28  BANK29  BANK30  BANK3
      +1  BANK32  BANK33  BANK34  BANK35  BANK36  BANK37
  3213 ;;      Params:         0       2       0       0       0       0       0       0       0       0       0       0       
      +0       0       0       0       0       0       0       0       0       0       0       0       0       0       0       
      +0       0       0       0       0       0       0
  3214 ;;      Locals:         0       0       0       0       0       0       0       0       0       0       0       0       
      +0       0       0       0       0       0       0       0       0       0       0       0       0       0       0       
      +0       0       0       0       0       0       0
  3215 ;;      Temps:          0       0       0       0       0       0       0       0       0       0       0       0       
      +0       0       0       0       0       0       0       0       0       0       0       0       0       0       0       
      +0       0       0       0       0       0       0
  3216 ;;      Totals:         0       2       0       0       0       0       0       0       0       0       0       0       
      +0       0       0       0       0       0       0       0       0       0       0       0       0       0       0       
      +0       0       0       0       0       0       0
  3217 ;;Total ram usage:        2 bytes
  3218 ;; Hardware stack levels used:    1
  3219 ;; Hardware stack levels required when called:    7
  3220 ;; This function calls:
  3221 ;;		Nothing
  3222 ;; This function is called by:
  3223 ;;		_ADC_Initialize
  3224 ;; This function uses a non-reentrant model
  3225 ;;
  3226                           
  3227                           	psect	text32
  3228  00380A                     __ptext32:
  3229                           	callstack 0
  3230  00380A                     _ADC_SetADIInterruptHandler:
  3231                           	callstack 117
  3232  00380A                     
  3233                           ;mcc_generated_files/adc.c: 418: void ADC_SetADIInterruptHandler(void (* InterruptHandle
      +                          r)(void));mcc_generated_files/adc.c: 419: {;mcc_generated_files/adc.c: 420:     ADC_Conv
      +                          ersionComplete_ISR = InterruptHandler;
  3234  00380A  C5C8  F5C6         	movff	ADC_SetADIInterruptHandler@InterruptHandler,_ADC_ConversionComplete_ISR
  3235  00380E  C5C9  F5C7         	movff	ADC_SetADIInterruptHandler@InterruptHandler+1,_ADC_ConversionComplete_ISR+1
  3236  003812  0012               	return		;funcret
  3237  003814                     __end_of_ADC_SetADIInterruptHandler:
  3238                           	callstack 0
  3239                           
  3240 ;; *************** function _PARAMETERSInit *****************
  3241 ;; Defined at:
  3242 ;;		line 18 in file "PARAMETERS.c"
  3243 ;; Parameters:    Size  Location     Type
  3244 ;;		None
  3245 ;; Auto vars:     Size  Location     Type
  3246 ;;		None
  3247 ;; Return value:  Size  Location     Type
  3248 ;;                  1    wreg      void 
  3249 ;; Registers used:
  3250 ;;		wreg, status,2
  3251 ;; Tracked objects:
  3252 ;;		On entry : 0/0
  3253 ;;		On exit  : 0/0
  3254 ;;		Unchanged: 0/0
  3255 ;; Data sizes:     COMRAM   BANK5   BANK6   BANK7   BANK8   BANK9  BANK10  BANK11  BANK12  BANK13  BANK14  BANK15  BANK1
      +6  BANK17  BANK18  BANK19  BANK20  BANK21  BANK22  BANK23  BANK24  BANK25  BANK26  BANK27  BANK28  BANK29  BANK30  BANK3
      +1  BANK32  BANK33  BANK34  BANK35  BANK36  BANK37
  3256 ;;      Params:         0       0       0       0       0       0       0       0       0       0       0       0       
      +0       0       0       0       0       0       0       0       0       0       0       0       0       0       0       
      +0       0       0       0       0       0       0
  3257 ;;      Locals:         0       0       0       0       0       0       0       0       0       0       0       0       
      +0       0       0       0       0       0       0       0       0       0       0       0       0       0       0       
      +0       0       0       0       0       0       0
  3258 ;;      Temps:          0       0       0       0       0       0       0       0       0       0       0       0       
      +0       0       0       0       0       0       0       0       0       0       0       0       0       0       0       
      +0       0       0       0       0       0       0
  3259 ;;      Totals:         0       0       0       0       0       0       0       0       0       0       0       0       
      +0       0       0       0       0       0       0       0       0       0       0       0       0       0       0       
      +0       0       0       0       0       0       0
  3260 ;;Total ram usage:        0 bytes
  3261 ;; Hardware stack levels used:    1
  3262 ;; Hardware stack levels required when called:    7
  3263 ;; This function calls:
  3264 ;;		Nothing
  3265 ;; This function is called by:
  3266 ;;		_main
  3267 ;; This function uses a non-reentrant model
  3268 ;;
  3269                           
  3270                           	psect	text33
  3271  00377A                     __ptext33:
  3272                           	callstack 0
  3273  00377A                     _PARAMETERSInit:
  3274                           	callstack 119
  3275  00377A                     
  3276                           ;PARAMETERS.c: 20:     ucWheelID = 2;
  3277  00377A  0E02               	movlw	2
  3278  00377C  6E45               	movwf	_ucWheelID^(0+1280),c
  3279                           
  3280                           ;PARAMETERS.c: 21:     ucTyrePerimeter = 167;
  3281  00377E  0EA7               	movlw	167
  3282  003780  6E4F               	movwf	_ucTyrePerimeter^(0+1280),c
  3283                           
  3284                           ;PARAMETERS.c: 22:     ucWheelTeeth = 32;
  3285  003782  0E20               	movlw	32
  3286  003784  6E4E               	movwf	_ucWheelTeeth^(0+1280),c
  3287  003786  0012               	return		;funcret
  3288  003788                     __end_of_PARAMETERSInit:
  3289                           	callstack 0
  3290                           
  3291 ;; *************** function _DELAY_milliseconds *****************
  3292 ;; Defined at:
  3293 ;;		line 38 in file "mcc_generated_files/delay.c"
  3294 ;; Parameters:    Size  Location     Type
  3295 ;;  milliseconds    2    0[BANK5 ] unsigned short 
  3296 ;; Auto vars:     Size  Location     Type
  3297 ;;		None
  3298 ;; Return value:  Size  Location     Type
  3299 ;;                  1    wreg      void 
  3300 ;; Registers used:
  3301 ;;		wreg, status,2, status,0
  3302 ;; Tracked objects:
  3303 ;;		On entry : 0/0
  3304 ;;		On exit  : 0/0
  3305 ;;		Unchanged: 0/0
  3306 ;; Data sizes:     COMRAM   BANK5   BANK6   BANK7   BANK8   BANK9  BANK10  BANK11  BANK12  BANK13  BANK14  BANK15  BANK1
      +6  BANK17  BANK18  BANK19  BANK20  BANK21  BANK22  BANK23  BANK24  BANK25  BANK26  BANK27  BANK28  BANK29  BANK30  BANK3
      +1  BANK32  BANK33  BANK34  BANK35  BANK36  BANK37
  3307 ;;      Params:         0       2       0       0       0       0       0       0       0       0       0       0       
      +0       0       0       0       0       0       0       0       0       0       0       0       0       0       0       
      +0       0       0       0       0       0       0
  3308 ;;      Locals:         0       0       0       0       0       0       0       0       0       0       0       0       
      +0       0       0       0       0       0       0       0       0       0       0       0       0       0       0       
      +0       0       0       0       0       0       0
  3309 ;;      Temps:          0       1       0       0       0       0       0       0       0       0       0       0       
      +0       0       0       0       0       0       0       0       0       0       0       0       0       0       0       
      +0       0       0       0       0       0       0
  3310 ;;      Totals:         0       3       0       0       0       0       0       0       0       0       0       0       
      +0       0       0       0       0       0       0       0       0       0       0       0       0       0       0       
      +0       0       0       0       0       0       0
  3311 ;;Total ram usage:        3 bytes
  3312 ;; Hardware stack levels used:    1
  3313 ;; Hardware stack levels required when called:    7
  3314 ;; This function calls:
  3315 ;;		Nothing
  3316 ;; This function is called by:
  3317 ;;		_main
  3318 ;; This function uses a non-reentrant model
  3319 ;;
  3320                           
  3321                           	psect	text34
  3322  0034A2                     __ptext34:
  3323                           	callstack 0
  3324  0034A2                     _DELAY_milliseconds:
  3325                           	callstack 119
  3326  0034A2                     
  3327                           ;mcc_generated_files/delay.c: 39:     while(milliseconds--){
  3328  0034A2  EF5C  F01A         	goto	l4661
  3329  0034A6                     l4659:
  3330                           
  3331                           ; BSR set to: 5
  3332                           ;mcc_generated_files/delay.c: 40:         _delay((unsigned long)((1)*(10000000/4000.0)))
      +                          ;
  3333  0034A6  0E04               	movlw	4
  3334  0034A8  0105               	movlb	5	; () banked
  3335  0034AA  6FCA               	movwf	??_DELAY_milliseconds& (0+255),b
  3336  0034AC  0E3D               	movlw	61
  3337  0034AE                     u3457:
  3338  0034AE  2EE8               	decfsz	wreg,f,c
  3339  0034B0  D7FE               	bra	u3457
  3340  0034B2  2FCA               	decfsz	??_DELAY_milliseconds& (0+255),f,b
  3341  0034B4  D7FC               	bra	u3457
  3342  0034B6  D000               	nop2	
  3343  0034B8                     l4661:
  3344                           
  3345                           ;mcc_generated_files/delay.c: 39:     while(milliseconds--){
  3346  0034B8  0105               	movlb	5	; () banked
  3347  0034BA  07C8               	decf	DELAY_milliseconds@milliseconds& (0+255),f,b
  3348  0034BC  A0D8               	btfss	status,0,c
  3349  0034BE  07C9               	decf	(DELAY_milliseconds@milliseconds+1)& (0+255),f,b
  3350  0034C0  29C8               	incf	DELAY_milliseconds@milliseconds& (0+255),w,b
  3351  0034C2  E106               	bnz	u2671
  3352  0034C4  29C9               	incf	(DELAY_milliseconds@milliseconds+1)& (0+255),w,b
  3353  0034C6  A4D8               	btfss	status,2,c
  3354  0034C8  EF68  F01A         	goto	u2671
  3355  0034CC  EF6A  F01A         	goto	u2670
  3356  0034D0                     u2671:
  3357  0034D0  EF53  F01A         	goto	l4659
  3358  0034D4                     u2670:
  3359  0034D4                     
  3360                           ; BSR set to: 5
  3361  0034D4  0012               	return		;funcret
  3362  0034D6                     __end_of_DELAY_milliseconds:
  3363                           	callstack 0
  3364                           
  3365 ;; *************** function _INTERRUPT_InterruptManager *****************
  3366 ;; Defined at:
  3367 ;;		line 58 in file "mcc_generated_files/interrupt_manager.c"
  3368 ;; Parameters:    Size  Location     Type
  3369 ;;		None
  3370 ;; Auto vars:     Size  Location     Type
  3371 ;;		None
  3372 ;; Return value:  Size  Location     Type
  3373 ;;                  1    wreg      void 
  3374 ;; Registers used:
  3375 ;;		wreg, fsr1l, fsr1h, fsr2l, fsr2h, status,2, status,0, pclath, tosl, tblptrl, tblptrh, tblptru, prodl, prodh, cstack
  3376 ;; Tracked objects:
  3377 ;;		On entry : 0/0
  3378 ;;		On exit  : 0/0
  3379 ;;		Unchanged: 0/0
  3380 ;; Data sizes:     COMRAM   BANK5   BANK6   BANK7   BANK8   BANK9  BANK10  BANK11  BANK12  BANK13  BANK14  BANK15  BANK1
      +6  BANK17  BANK18  BANK19  BANK20  BANK21  BANK22  BANK23  BANK24  BANK25  BANK26  BANK27  BANK28  BANK29  BANK30  BANK3
      +1  BANK32  BANK33  BANK34  BANK35  BANK36  BANK37
  3381 ;;      Params:         0       0       0       0       0       0       0       0       0       0       0       0       
      +0       0       0       0       0       0       0       0       0       0       0       0       0       0       0       
      +0       0       0       0       0       0       0
  3382 ;;      Locals:         0       0       0       0       0       0       0       0       0       0       0       0       
      +0       0       0       0       0       0       0       0       0       0       0       0       0       0       0       
      +0       0       0       0       0       0       0
  3383 ;;      Temps:          4       0       0       0       0       0       0       0       0       0       0       0       
      +0       0       0       0       0       0       0       0       0       0       0       0       0       0       0       
      +0       0       0       0       0       0       0
  3384 ;;      Totals:         4       0       0       0       0       0       0       0       0       0       0       0       
      +0       0       0       0       0       0       0       0       0       0       0       0       0       0       0       
      +0       0       0       0       0       0       0
  3385 ;;Total ram usage:        4 bytes
  3386 ;; Hardware stack levels used:    1
  3387 ;; Hardware stack levels required when called:    6
  3388 ;; This function calls:
  3389 ;;		_CAN1_ISR
  3390 ;;		_INT0_ISR
  3391 ;;		_TMR0_ISR
  3392 ;;		_TMR1_ISR
  3393 ;; This function is called by:
  3394 ;;		Interrupt level 2
  3395 ;; This function uses a non-reentrant model
  3396 ;;
  3397                           
  3398                           	psect	text35
  3399  002CEE                     __ptext35:
  3400                           	callstack 0
  3401  002CEE                     _INTERRUPT_InterruptManager:
  3402                           	callstack 116
  3403                           
  3404                           ; BSR set to: 5
  3405                           ;incstack = 0
  3406  002CEE  0061 F3D8  F537    	movff	tblptrl,??_INTERRUPT_InterruptManager
  3407  002CF4  0061 F3DC  F538    	movff	tblptrh,??_INTERRUPT_InterruptManager+1
  3408  002CFA  0061 F3E0  F539    	movff	tblptru,??_INTERRUPT_InterruptManager+2
  3409  002D00  0061 F3D4  F53A    	movff	tablat,??_INTERRUPT_InterruptManager+3
  3410  002D06                     
  3411                           ;mcc_generated_files/interrupt_manager.c: 61:     if(PIE3bits.TMR1IE == 1 && PIR3bits.TM
      +                          R1IF == 1)
  3412  002D06  A8A1               	btfss	161,4,c	;volatile
  3413  002D08  EF88  F016         	goto	i2u284_41
  3414  002D0C  EF8A  F016         	goto	i2u284_40
  3415  002D10                     i2u284_41:
  3416  002D10  EF95  F016         	goto	i2l132
  3417  002D14                     i2u284_40:
  3418  002D14  A8B1               	btfss	177,4,c	;volatile
  3419  002D16  EF8F  F016         	goto	i2u285_41
  3420  002D1A  EF91  F016         	goto	i2u285_40
  3421  002D1E                     i2u285_41:
  3422  002D1E  EF95  F016         	goto	i2l132
  3423  002D22                     i2u285_40:
  3424  002D22                     
  3425                           ;mcc_generated_files/interrupt_manager.c: 62:     {;mcc_generated_files/interrupt_manage
      +                          r.c: 63:         TMR1_ISR();
  3426  002D22  ECDD  F019         	call	_TMR1_ISR	;wreg free
  3427                           
  3428                           ;mcc_generated_files/interrupt_manager.c: 64:     }
  3429  002D26  EFCB  F016         	goto	i2l140
  3430  002D2A                     i2l132:
  3431  002D2A  AEA1               	btfss	161,7,c	;volatile
  3432  002D2C  EF9A  F016         	goto	i2u286_41
  3433  002D30  EF9C  F016         	goto	i2u286_40
  3434  002D34                     i2u286_41:
  3435  002D34  EFA7  F016         	goto	i2l134
  3436  002D38                     i2u286_40:
  3437  002D38  AEB1               	btfss	177,7,c	;volatile
  3438  002D3A  EFA1  F016         	goto	i2u287_41
  3439  002D3E  EFA3  F016         	goto	i2u287_40
  3440  002D42                     i2u287_41:
  3441  002D42  EFA7  F016         	goto	i2l134
  3442  002D46                     i2u287_40:
  3443  002D46                     
  3444                           ;mcc_generated_files/interrupt_manager.c: 66:     {;mcc_generated_files/interrupt_manage
      +                          r.c: 67:         TMR0_ISR();
  3445  002D46  EC08  F01B         	call	_TMR0_ISR	;wreg free
  3446                           
  3447                           ;mcc_generated_files/interrupt_manager.c: 68:     }
  3448  002D4A  EFCB  F016         	goto	i2l140
  3449  002D4E                     i2l134:
  3450  002D4E  A09F               	btfss	159,0,c	;volatile
  3451  002D50  EFAC  F016         	goto	i2u288_41
  3452  002D54  EFAE  F016         	goto	i2u288_40
  3453  002D58                     i2u288_41:
  3454  002D58  EFB9  F016         	goto	i2l136
  3455  002D5C                     i2u288_40:
  3456  002D5C  A0AF               	btfss	175,0,c	;volatile
  3457  002D5E  EFB3  F016         	goto	i2u289_41
  3458  002D62  EFB5  F016         	goto	i2u289_40
  3459  002D66                     i2u289_41:
  3460  002D66  EFB9  F016         	goto	i2l136
  3461  002D6A                     i2u289_40:
  3462  002D6A                     
  3463                           ;mcc_generated_files/interrupt_manager.c: 70:     {;mcc_generated_files/interrupt_manage
      +                          r.c: 71:         INT0_ISR();
  3464  002D6A  EC0F  F01C         	call	_INT0_ISR	;wreg free
  3465                           
  3466                           ;mcc_generated_files/interrupt_manager.c: 72:     }
  3467  002D6E  EFCB  F016         	goto	i2l140
  3468  002D72                     i2l136:
  3469  002D72  AC9E               	btfss	158,6,c	;volatile
  3470  002D74  EFBE  F016         	goto	i2u290_41
  3471  002D78  EFC0  F016         	goto	i2u290_40
  3472  002D7C                     i2u290_41:
  3473  002D7C  EFCB  F016         	goto	i2l135
  3474  002D80                     i2u290_40:
  3475  002D80  ACAE               	btfss	174,6,c	;volatile
  3476  002D82  EFC5  F016         	goto	i2u291_41
  3477  002D86  EFC7  F016         	goto	i2u291_40
  3478  002D8A                     i2u291_41:
  3479  002D8A  EFCB  F016         	goto	i2l135
  3480  002D8E                     i2u291_40:
  3481  002D8E                     
  3482                           ;mcc_generated_files/interrupt_manager.c: 74:     {;mcc_generated_files/interrupt_manage
      +                          r.c: 75:         CAN1_ISR();
  3483  002D8E  EC3D  F014         	call	_CAN1_ISR	;wreg free
  3484                           
  3485                           ;mcc_generated_files/interrupt_manager.c: 76:     }
  3486  002D92  EFCB  F016         	goto	i2l140
  3487  002D96                     i2l135:
  3488  002D96                     i2l140:
  3489  002D96  0061  F4E8  F4F5   	movff	??_INTERRUPT_InterruptManager+3,tablat
  3490  002D9C  0061  F4E4  F4F8   	movff	??_INTERRUPT_InterruptManager+2,tblptru
  3491  002DA2  0061  F4E0  F4F7   	movff	??_INTERRUPT_InterruptManager+1,tblptrh
  3492  002DA8  0061  F4DC  F4F6   	movff	??_INTERRUPT_InterruptManager,tblptrl
  3493  002DAE  0011               	retfie		f
  3494  002DB0                     __end_of_INTERRUPT_InterruptManager:
  3495                           	callstack 0
  3496                           
  3497 ;; *************** function _TMR1_ISR *****************
  3498 ;; Defined at:
  3499 ;;		line 166 in file "mcc_generated_files/tmr1.c"
  3500 ;; Parameters:    Size  Location     Type
  3501 ;;		None
  3502 ;; Auto vars:     Size  Location     Type
  3503 ;;		None
  3504 ;; Return value:  Size  Location     Type
  3505 ;;                  1    wreg      void 
  3506 ;; Registers used:
  3507 ;;		wreg, fsr1l, fsr1h, fsr2l, fsr2h, status,2, status,0, pclath, tosl, tblptrl, tblptrh, tblptru, prodl, prodh, cstack
  3508 ;; Tracked objects:
  3509 ;;		On entry : 0/0
  3510 ;;		On exit  : 0/0
  3511 ;;		Unchanged: 0/0
  3512 ;; Data sizes:     COMRAM   BANK5   BANK6   BANK7   BANK8   BANK9  BANK10  BANK11  BANK12  BANK13  BANK14  BANK15  BANK1
      +6  BANK17  BANK18  BANK19  BANK20  BANK21  BANK22  BANK23  BANK24  BANK25  BANK26  BANK27  BANK28  BANK29  BANK30  BANK3
      +1  BANK32  BANK33  BANK34  BANK35  BANK36  BANK37
  3513 ;;      Params:         0       0       0       0       0       0       0       0       0       0       0       0       
      +0       0       0       0       0       0       0       0       0       0       0       0       0       0       0       
      +0       0       0       0       0       0       0
  3514 ;;      Locals:         0       0       0       0       0       0       0       0       0       0       0       0       
      +0       0       0       0       0       0       0       0       0       0       0       0       0       0       0       
      +0       0       0       0       0       0       0
  3515 ;;      Temps:          0       0       0       0       0       0       0       0       0       0       0       0       
      +0       0       0       0       0       0       0       0       0       0       0       0       0       0       0       
      +0       0       0       0       0       0       0
  3516 ;;      Totals:         0       0       0       0       0       0       0       0       0       0       0       0       
      +0       0       0       0       0       0       0       0       0       0       0       0       0       0       0       
      +0       0       0       0       0       0       0
  3517 ;;Total ram usage:        0 bytes
  3518 ;; Hardware stack levels used:    1
  3519 ;; Hardware stack levels required when called:    5
  3520 ;; This function calls:
  3521 ;;		_MESSAGESSendEvery100ms
  3522 ;;		_ReluctorFreqRead
  3523 ;;		_TMR1_CallBack
  3524 ;;		_TMR1_WriteTimer
  3525 ;; This function is called by:
  3526 ;;		_INTERRUPT_InterruptManager
  3527 ;; This function uses a non-reentrant model
  3528 ;;
  3529                           
  3530                           	psect	text36
  3531  0033BA                     __ptext36:
  3532                           	callstack 0
  3533  0033BA                     _TMR1_ISR:
  3534                           	callstack 116
  3535  0033BA                     
  3536                           ;mcc_generated_files/tmr1.c: 168:     static volatile unsigned int CountCallBack = 0;;mc
      +                          c_generated_files/tmr1.c: 171:     PIR3bits.TMR1IF = 0;
  3537  0033BA  98B1               	bcf	177,4,c	;volatile
  3538  0033BC                     
  3539                           ;mcc_generated_files/tmr1.c: 172:     TMR1_WriteTimer(timer1ReloadVal);
  3540  0033BC  C557  F501         	movff	_timer1ReloadVal,TMR1_WriteTimer@timerVal	;volatile
  3541  0033C0  C558  F502         	movff	_timer1ReloadVal+1,TMR1_WriteTimer@timerVal+1	;volatile
  3542  0033C4  EC82  F01A         	call	_TMR1_WriteTimer	;wreg free
  3543  0033C8                     
  3544                           ;mcc_generated_files/tmr1.c: 176:     ReluctorFreqRead();
  3545  0033C8  EC31  F017         	call	_ReluctorFreqRead	;wreg free
  3546  0033CC                     
  3547                           ;mcc_generated_files/tmr1.c: 178:     MESSAGESSendEvery100ms();
  3548  0033CC  ECE8  F014         	call	_MESSAGESSendEvery100ms	;wreg free
  3549  0033D0                     
  3550                           ;mcc_generated_files/tmr1.c: 181:     if (++CountCallBack >= 5)
  3551  0033D0  4A43               	infsnz	TMR1_ISR@CountCallBack^(0+1280),f,c	;volatile
  3552  0033D2  2A44               	incf	(TMR1_ISR@CountCallBack+1)^(0+1280),f,c	;volatile
  3553  0033D4  5044               	movf	(TMR1_ISR@CountCallBack+1)^(0+1280),w,c	;volatile
  3554  0033D6  E109               	bnz	i2u236_40
  3555  0033D8  0E05               	movlw	5
  3556  0033DA  5C43               	subwf	TMR1_ISR@CountCallBack^(0+1280),w,c	;volatile
  3557  0033DC  A0D8               	btfss	status,0,c
  3558  0033DE  EFF3  F019         	goto	i2u236_41
  3559  0033E2  EFF5  F019         	goto	i2u236_40
  3560  0033E6                     i2u236_41:
  3561  0033E6  EFFB  F019         	goto	i2l1350
  3562  0033EA                     i2u236_40:
  3563  0033EA                     
  3564                           ;mcc_generated_files/tmr1.c: 182:     {;mcc_generated_files/tmr1.c: 184:         TMR1_Ca
      +                          llBack();
  3565  0033EA  EC99  F01A         	call	_TMR1_CallBack	;wreg free
  3566  0033EE                     
  3567                           ;mcc_generated_files/tmr1.c: 187:         CountCallBack = 0;
  3568  0033EE  0E00               	movlw	0
  3569  0033F0  6E44               	movwf	(TMR1_ISR@CountCallBack+1)^(0+1280),c	;volatile
  3570  0033F2  0E00               	movlw	0
  3571  0033F4  6E43               	movwf	TMR1_ISR@CountCallBack^(0+1280),c	;volatile
  3572  0033F6                     i2l1350:
  3573  0033F6  0012               	return		;funcret
  3574  0033F8                     __end_of_TMR1_ISR:
  3575                           	callstack 0
  3576                           
  3577 ;; *************** function _TMR1_WriteTimer *****************
  3578 ;; Defined at:
  3579 ;;		line 129 in file "mcc_generated_files/tmr1.c"
  3580 ;; Parameters:    Size  Location     Type
  3581 ;;  timerVal        2    0[COMRAM] unsigned short 
  3582 ;; Auto vars:     Size  Location     Type
  3583 ;;		None
  3584 ;; Return value:  Size  Location     Type
  3585 ;;                  1    wreg      void 
  3586 ;; Registers used:
  3587 ;;		wreg, status,2
  3588 ;; Tracked objects:
  3589 ;;		On entry : 0/0
  3590 ;;		On exit  : 0/0
  3591 ;;		Unchanged: 0/0
  3592 ;; Data sizes:     COMRAM   BANK5   BANK6   BANK7   BANK8   BANK9  BANK10  BANK11  BANK12  BANK13  BANK14  BANK15  BANK1
      +6  BANK17  BANK18  BANK19  BANK20  BANK21  BANK22  BANK23  BANK24  BANK25  BANK26  BANK27  BANK28  BANK29  BANK30  BANK3
      +1  BANK32  BANK33  BANK34  BANK35  BANK36  BANK37
  3593 ;;      Params:         2       0       0       0       0       0       0       0       0       0       0       0       
      +0       0       0       0       0       0       0       0       0       0       0       0       0       0       0       
      +0       0       0       0       0       0       0
  3594 ;;      Locals:         0       0       0       0       0       0       0       0       0       0       0       0       
      +0       0       0       0       0       0       0       0       0       0       0       0       0       0       0       
      +0       0       0       0       0       0       0
  3595 ;;      Temps:          0       0       0       0       0       0       0       0       0       0       0       0       
      +0       0       0       0       0       0       0       0       0       0       0       0       0       0       0       
      +0       0       0       0       0       0       0
  3596 ;;      Totals:         2       0       0       0       0       0       0       0       0       0       0       0       
      +0       0       0       0       0       0       0       0       0       0       0       0       0       0       0       
      +0       0       0       0       0       0       0
  3597 ;;Total ram usage:        2 bytes
  3598 ;; Hardware stack levels used:    1
  3599 ;; This function calls:
  3600 ;;		Nothing
  3601 ;; This function is called by:
  3602 ;;		_TMR1_ISR
  3603 ;;		_TMR1_Reload
  3604 ;; This function uses a non-reentrant model
  3605 ;;
  3606                           
  3607                           	psect	text37
  3608  003504                     __ptext37:
  3609                           	callstack 0
  3610  003504                     _TMR1_WriteTimer:
  3611                           	callstack 120
  3612  003504                     
  3613                           ;mcc_generated_files/tmr1.c: 129: void TMR1_WriteTimer(uint16_t timerVal);mcc_generated_
      +                          files/tmr1.c: 130: {;mcc_generated_files/tmr1.c: 131:     if (T1CONbits.NOT_SYNC == 1)
  3614  003504  0103               	movlb	3	; () banked
  3615  003506  A51E               	btfss	30,2,b	;volatile
  3616  003508  EF88  F01A         	goto	i2u228_41
  3617  00350C  EF8A  F01A         	goto	i2u228_40
  3618  003510                     i2u228_41:
  3619  003510  EF93  F01A         	goto	i2l4413
  3620  003514                     i2u228_40:
  3621  003514                     
  3622                           ; BSR set to: 3
  3623                           ;mcc_generated_files/tmr1.c: 132:     {;mcc_generated_files/tmr1.c: 134:         T1CONbi
      +                          ts.TMR1ON = 0;
  3624  003514  911E               	bcf	30,0,b	;volatile
  3625  003516                     
  3626                           ; BSR set to: 3
  3627                           ;mcc_generated_files/tmr1.c: 137:         TMR1H = (uint8_t)(timerVal >> 8);
  3628  003516  5002               	movf	(TMR1_WriteTimer@timerVal+1)^(0+1280),w,c
  3629  003518  6F1D               	movwf	29,b	;volatile
  3630  00351A                     
  3631                           ; BSR set to: 3
  3632                           ;mcc_generated_files/tmr1.c: 138:         TMR1L = (uint8_t)timerVal;
  3633  00351A  0061  F404  F31C   	movff	TMR1_WriteTimer@timerVal,796	;volatile
  3634  003520                     
  3635                           ; BSR set to: 3
  3636                           ;mcc_generated_files/tmr1.c: 141:         T1CONbits.TMR1ON =1;
  3637  003520  811E               	bsf	30,0,b	;volatile
  3638                           
  3639                           ;mcc_generated_files/tmr1.c: 142:     }
  3640  003522  EF98  F01A         	goto	i2l1335
  3641  003526                     i2l4413:
  3642                           
  3643                           ; BSR set to: 3
  3644                           ;mcc_generated_files/tmr1.c: 144:     {;mcc_generated_files/tmr1.c: 146:         TMR1H =
      +                           (uint8_t)(timerVal >> 8);
  3645  003526  5002               	movf	(TMR1_WriteTimer@timerVal+1)^(0+1280),w,c
  3646  003528  6F1D               	movwf	29,b	;volatile
  3647  00352A                     
  3648                           ; BSR set to: 3
  3649                           ;mcc_generated_files/tmr1.c: 147:         TMR1L = (uint8_t)timerVal;
  3650  00352A  0061  F404  F31C   	movff	TMR1_WriteTimer@timerVal,796	;volatile
  3651  003530                     i2l1335:
  3652                           
  3653                           ; BSR set to: 3
  3654  003530  0012               	return		;funcret
  3655  003532                     __end_of_TMR1_WriteTimer:
  3656                           	callstack 0
  3657                           
  3658 ;; *************** function _TMR1_CallBack *****************
  3659 ;; Defined at:
  3660 ;;		line 191 in file "mcc_generated_files/tmr1.c"
  3661 ;; Parameters:    Size  Location     Type
  3662 ;;		None
  3663 ;; Auto vars:     Size  Location     Type
  3664 ;;		None
  3665 ;; Return value:  Size  Location     Type
  3666 ;;                  1    wreg      void 
  3667 ;; Registers used:
  3668 ;;		wreg, status,2, status,0, pclath, tosl, cstack
  3669 ;; Tracked objects:
  3670 ;;		On entry : 0/0
  3671 ;;		On exit  : 0/0
  3672 ;;		Unchanged: 0/0
  3673 ;; Data sizes:     COMRAM   BANK5   BANK6   BANK7   BANK8   BANK9  BANK10  BANK11  BANK12  BANK13  BANK14  BANK15  BANK1
      +6  BANK17  BANK18  BANK19  BANK20  BANK21  BANK22  BANK23  BANK24  BANK25  BANK26  BANK27  BANK28  BANK29  BANK30  BANK3
      +1  BANK32  BANK33  BANK34  BANK35  BANK36  BANK37
  3674 ;;      Params:         0       0       0       0       0       0       0       0       0       0       0       0       
      +0       0       0       0       0       0       0       0       0       0       0       0       0       0       0       
      +0       0       0       0       0       0       0
  3675 ;;      Locals:         0       0       0       0       0       0       0       0       0       0       0       0       
      +0       0       0       0       0       0       0       0       0       0       0       0       0       0       0       
      +0       0       0       0       0       0       0
  3676 ;;      Temps:          0       0       0       0       0       0       0       0       0       0       0       0       
      +0       0       0       0       0       0       0       0       0       0       0       0       0       0       0       
      +0       0       0       0       0       0       0
  3677 ;;      Totals:         0       0       0       0       0       0       0       0       0       0       0       0       
      +0       0       0       0       0       0       0       0       0       0       0       0       0       0       0       
      +0       0       0       0       0       0       0
  3678 ;;Total ram usage:        0 bytes
  3679 ;; Hardware stack levels used:    1
  3680 ;; Hardware stack levels required when called:    1
  3681 ;; This function calls:
  3682 ;;		Absolute function
  3683 ;;		_TMR1_DefaultInterruptHandler
  3684 ;; This function is called by:
  3685 ;;		_TMR1_ISR
  3686 ;; This function uses a non-reentrant model
  3687 ;;
  3688                           
  3689                           	psect	text38
  3690  003532                     __ptext38:
  3691                           	callstack 0
  3692  003532                     _TMR1_CallBack:
  3693                           	callstack 119
  3694  003532                     
  3695                           ;mcc_generated_files/tmr1.c: 195:     if(TMR1_InterruptHandler)
  3696  003532  0105               	movlb	5	; () banked
  3697  003534  51BE               	movf	_TMR1_InterruptHandler& (0+255),w,b
  3698  003536  11BF               	iorwf	(_TMR1_InterruptHandler+1)& (0+255),w,b
  3699  003538  B4D8               	btfsc	status,2,c
  3700  00353A  EFA1  F01A         	goto	i2u232_41
  3701  00353E  EFA3  F01A         	goto	i2u232_40
  3702  003542                     i2u232_41:
  3703  003542  EFAF  F01A         	goto	i2l1354
  3704  003546                     i2u232_40:
  3705  003546                     
  3706                           ; BSR set to: 5
  3707                           ;mcc_generated_files/tmr1.c: 196:     {;mcc_generated_files/tmr1.c: 197:         TMR1_In
      +                          terruptHandler();
  3708  003546  D802               	call	i2u233_48
  3709  003548  EFAF  F01A         	goto	i2u233_49
  3710  00354C                     i2u233_48:
  3711  00354C  0005               	push	
  3712  00354E  6EFA               	movwf	pclath,c
  3713  003550  51BE               	movf	_TMR1_InterruptHandler& (0+255),w,b
  3714  003552  6EFD               	movwf	tosl,c
  3715  003554  51BF               	movf	(_TMR1_InterruptHandler+1)& (0+255),w,b
  3716  003556  6EFE               	movwf	tosh,c
  3717  003558  6AFF               	clrf	tosu,c
  3718  00355A  50FA               	movf	pclath,w,c
  3719  00355C  0012               	return		;indir
  3720  00355E                     i2u233_49:
  3721  00355E                     i2l1354:
  3722  00355E  0012               	return		;funcret
  3723  003560                     __end_of_TMR1_CallBack:
  3724                           	callstack 0
  3725                           
  3726 ;; *************** function _TMR1_DefaultInterruptHandler *****************
  3727 ;; Defined at:
  3728 ;;		line 205 in file "mcc_generated_files/tmr1.c"
  3729 ;; Parameters:    Size  Location     Type
  3730 ;;		None
  3731 ;; Auto vars:     Size  Location     Type
  3732 ;;		None
  3733 ;; Return value:  Size  Location     Type
  3734 ;;                  1    wreg      void 
  3735 ;; Registers used:
  3736 ;;		None
  3737 ;; Tracked objects:
  3738 ;;		On entry : 0/0
  3739 ;;		On exit  : 0/0
  3740 ;;		Unchanged: 0/0
  3741 ;; Data sizes:     COMRAM   BANK5   BANK6   BANK7   BANK8   BANK9  BANK10  BANK11  BANK12  BANK13  BANK14  BANK15  BANK1
      +6  BANK17  BANK18  BANK19  BANK20  BANK21  BANK22  BANK23  BANK24  BANK25  BANK26  BANK27  BANK28  BANK29  BANK30  BANK3
      +1  BANK32  BANK33  BANK34  BANK35  BANK36  BANK37
  3742 ;;      Params:         0       0       0       0       0       0       0       0       0       0       0       0       
      +0       0       0       0       0       0       0       0       0       0       0       0       0       0       0       
      +0       0       0       0       0       0       0
  3743 ;;      Locals:         0       0       0       0       0       0       0       0       0       0       0       0       
      +0       0       0       0       0       0       0       0       0       0       0       0       0       0       0       
      +0       0       0       0       0       0       0
  3744 ;;      Temps:          0       0       0       0       0       0       0       0       0       0       0       0       
      +0       0       0       0       0       0       0       0       0       0       0       0       0       0       0       
      +0       0       0       0       0       0       0
  3745 ;;      Totals:         0       0       0       0       0       0       0       0       0       0       0       0       
      +0       0       0       0       0       0       0       0       0       0       0       0       0       0       0       
      +0       0       0       0       0       0       0
  3746 ;;Total ram usage:        0 bytes
  3747 ;; Hardware stack levels used:    1
  3748 ;; This function calls:
  3749 ;;		Nothing
  3750 ;; This function is called by:
  3751 ;;		_TMR1_Initialize
  3752 ;;		_TMR1_CallBack
  3753 ;; This function uses a non-reentrant model
  3754 ;;
  3755                           
  3756                           	psect	text39
  3757  003830                     __ptext39:
  3758                           	callstack 0
  3759  003830                     _TMR1_DefaultInterruptHandler:
  3760                           	callstack 119
  3761  003830  0012               	return		;funcret
  3762  003832                     __end_of_TMR1_DefaultInterruptHandler:
  3763                           	callstack 0
  3764                           
  3765 ;; *************** function _ReluctorFreqRead *****************
  3766 ;; Defined at:
  3767 ;;		line 33 in file "reluctor.c"
  3768 ;; Parameters:    Size  Location     Type
  3769 ;;		None
  3770 ;; Auto vars:     Size  Location     Type
  3771 ;;		None
  3772 ;; Return value:  Size  Location     Type
  3773 ;;                  1    wreg      void 
  3774 ;; Registers used:
  3775 ;;		wreg, status,2, status,0, prodl, prodh, cstack
  3776 ;; Tracked objects:
  3777 ;;		On entry : 0/0
  3778 ;;		On exit  : 0/0
  3779 ;;		Unchanged: 0/0
  3780 ;; Data sizes:     COMRAM   BANK5   BANK6   BANK7   BANK8   BANK9  BANK10  BANK11  BANK12  BANK13  BANK14  BANK15  BANK1
      +6  BANK17  BANK18  BANK19  BANK20  BANK21  BANK22  BANK23  BANK24  BANK25  BANK26  BANK27  BANK28  BANK29  BANK30  BANK3
      +1  BANK32  BANK33  BANK34  BANK35  BANK36  BANK37
  3781 ;;      Params:         0       0       0       0       0       0       0       0       0       0       0       0       
      +0       0       0       0       0       0       0       0       0       0       0       0       0       0       0       
      +0       0       0       0       0       0       0
  3782 ;;      Locals:         0       0       0       0       0       0       0       0       0       0       0       0       
      +0       0       0       0       0       0       0       0       0       0       0       0       0       0       0       
      +0       0       0       0       0       0       0
  3783 ;;      Temps:          0       0       0       0       0       0       0       0       0       0       0       0       
      +0       0       0       0       0       0       0       0       0       0       0       0       0       0       0       
      +0       0       0       0       0       0       0
  3784 ;;      Totals:         0       0       0       0       0       0       0       0       0       0       0       0       
      +0       0       0       0       0       0       0       0       0       0       0       0       0       0       0       
      +0       0       0       0       0       0       0
  3785 ;;Total ram usage:        0 bytes
  3786 ;; Hardware stack levels used:    1
  3787 ;; Hardware stack levels required when called:    1
  3788 ;; This function calls:
  3789 ;;		___lbdiv
  3790 ;;		___lwdiv
  3791 ;;		___wmul
  3792 ;; This function is called by:
  3793 ;;		_TMR1_ISR
  3794 ;; This function uses a non-reentrant model
  3795 ;;
  3796                           
  3797                           	psect	text40
  3798  002E62                     __ptext40:
  3799                           	callstack 0
  3800  002E62                     _ReluctorFreqRead:
  3801                           	callstack 119
  3802  002E62                     
  3803                           ;reluctor.c: 35:     ui_cm_in_period = ucCountTeeth*(ucTyrePerimeter/ucWheelTeeth);
  3804  002E62  C54E  F501         	movff	_ucWheelTeeth,___lbdiv@divisor
  3805  002E66  504F               	movf	_ucTyrePerimeter^(0+1280),w,c
  3806  002E68  EC0C  F019         	call	___lbdiv
  3807  002E6C  024D               	mulwf	_ucCountTeeth^(0+1280),c
  3808  002E6E  0061 F3CC  F549    	movff	prodl,_ui_cm_in_period
  3809  002E74                     
  3810                           ;reluctor.c: 36:     ui_MeterPerSecond_E_2 = ui_cm_in_period * (1000 / 10);
  3811  002E74  5049               	movf	_ui_cm_in_period^(0+1280),w,c
  3812  002E76  0D64               	mullw	100
  3813  002E78  0061 F3CC  F53D    	movff	prodl,_ui_MeterPerSecond_E_2
  3814  002E7E  0061 F3D0  F53E    	movff	prodh,_ui_MeterPerSecond_E_2+1
  3815  002E84                     
  3816                           ;reluctor.c: 37:     uiKPH_E_2 = ui_MeterPerSecond_E_2 * 36/10;
  3817  002E84  C53D  F501         	movff	_ui_MeterPerSecond_E_2,___wmul@multiplier
  3818  002E88  C53E  F502         	movff	_ui_MeterPerSecond_E_2+1,___wmul@multiplier+1
  3819  002E8C  0E00               	movlw	0
  3820  002E8E  6E04               	movwf	(___wmul@multiplicand+1)^(0+1280),c
  3821  002E90  0E24               	movlw	36
  3822  002E92  6E03               	movwf	___wmul@multiplicand^(0+1280),c
  3823  002E94  ECF3  F01A         	call	___wmul	;wreg free
  3824  002E98  C501  F507         	movff	?___wmul,___lwdiv@dividend
  3825  002E9C  C502  F508         	movff	?___wmul+1,___lwdiv@dividend+1
  3826  002EA0  0E00               	movlw	0
  3827  002EA2  6E0A               	movwf	(___lwdiv@divisor+1)^(0+1280),c
  3828  002EA4  0E0A               	movlw	10
  3829  002EA6  6E09               	movwf	___lwdiv@divisor^(0+1280),c
  3830  002EA8  ECD2  F018         	call	___lwdiv	;wreg free
  3831  002EAC  C507  F53B         	movff	?___lwdiv,_uiKPH_E_2
  3832  002EB0  C508  F53C         	movff	?___lwdiv+1,_uiKPH_E_2+1
  3833  002EB4                     
  3834                           ;reluctor.c: 39:     if ( uiKPH_E_2 >= 15000 )
  3835  002EB4  0E98               	movlw	152
  3836  002EB6  5C3B               	subwf	_uiKPH_E_2^(0+1280),w,c
  3837  002EB8  0E3A               	movlw	58
  3838  002EBA  583C               	subwfb	(_uiKPH_E_2+1)^(0+1280),w,c
  3839  002EBC  A0D8               	btfss	status,0,c
  3840  002EBE  EF63  F017         	goto	i2u229_41
  3841  002EC2  EF65  F017         	goto	i2u229_40
  3842  002EC6                     i2u229_41:
  3843  002EC6  EF69  F017         	goto	i2l4427
  3844  002ECA                     i2u229_40:
  3845  002ECA                     
  3846                           ;reluctor.c: 40:     {;reluctor.c: 41:         ucReluctorState = 0x01;
  3847  002ECA  0E01               	movlw	1
  3848  002ECC  6E46               	movwf	_ucReluctorState^(0+1280),c
  3849                           
  3850                           ;reluctor.c: 42:     }
  3851  002ECE  EF7C  F017         	goto	i2l4433
  3852  002ED2                     i2l4427:
  3853                           
  3854                           ;reluctor.c: 44:     {;reluctor.c: 45:         ucReluctorState = 0x00;
  3855  002ED2  0E00               	movlw	0
  3856  002ED4  6E46               	movwf	_ucReluctorState^(0+1280),c
  3857  002ED6                     
  3858                           ;reluctor.c: 46:         ucKPHData1 = (( uiKPH_E_2 / 100 ) & 0x00FF);
  3859  002ED6  C53B  F507         	movff	_uiKPH_E_2,___lwdiv@dividend
  3860  002EDA  C53C  F508         	movff	_uiKPH_E_2+1,___lwdiv@dividend+1
  3861  002EDE  0E00               	movlw	0
  3862  002EE0  6E0A               	movwf	(___lwdiv@divisor+1)^(0+1280),c
  3863  002EE2  0E64               	movlw	100
  3864  002EE4  6E09               	movwf	___lwdiv@divisor^(0+1280),c
  3865  002EE6  ECD2  F018         	call	___lwdiv	;wreg free
  3866  002EEA  5007               	movf	?___lwdiv^(0+1280),w,c
  3867  002EEC  6E48               	movwf	_ucKPHData1^(0+1280),c
  3868  002EEE                     
  3869                           ;reluctor.c: 47:         ucKPHData2 = (( uiKPH_E_2 - ( 1000 * ucKPHData1 )) & 0x00FF);
  3870  002EEE  5048               	movf	_ucKPHData1^(0+1280),w,c
  3871  002EF0  0D18               	mullw	24
  3872  002EF2  50F3               	movf	243,w,c
  3873  002EF4  243B               	addwf	_uiKPH_E_2^(0+1280),w,c
  3874  002EF6  6E47               	movwf	_ucKPHData2^(0+1280),c
  3875  002EF8                     i2l4433:
  3876                           
  3877                           ;reluctor.c: 50:     ucCountTeeth = 0;
  3878  002EF8  0E00               	movlw	0
  3879  002EFA  6E4D               	movwf	_ucCountTeeth^(0+1280),c
  3880  002EFC  0012               	return		;funcret
  3881  002EFE                     __end_of_ReluctorFreqRead:
  3882                           	callstack 0
  3883                           
  3884 ;; *************** function ___wmul *****************
  3885 ;; Defined at:
  3886 ;;		line 15 in file "C:\Program Files\Microchip\xc8\v2.31\pic\sources\c99\common\Umul16.c"
  3887 ;; Parameters:    Size  Location     Type
  3888 ;;  multiplier      2    0[COMRAM] unsigned int 
  3889 ;;  multiplicand    2    2[COMRAM] unsigned int 
  3890 ;; Auto vars:     Size  Location     Type
  3891 ;;  product         2    4[COMRAM] unsigned int 
  3892 ;; Return value:  Size  Location     Type
  3893 ;;                  2    0[COMRAM] unsigned int 
  3894 ;; Registers used:
  3895 ;;		wreg, status,2, status,0, prodl, prodh
  3896 ;; Tracked objects:
  3897 ;;		On entry : 0/0
  3898 ;;		On exit  : 0/0
  3899 ;;		Unchanged: 0/0
  3900 ;; Data sizes:     COMRAM   BANK5   BANK6   BANK7   BANK8   BANK9  BANK10  BANK11  BANK12  BANK13  BANK14  BANK15  BANK1
      +6  BANK17  BANK18  BANK19  BANK20  BANK21  BANK22  BANK23  BANK24  BANK25  BANK26  BANK27  BANK28  BANK29  BANK30  BANK3
      +1  BANK32  BANK33  BANK34  BANK35  BANK36  BANK37
  3901 ;;      Params:         4       0       0       0       0       0       0       0       0       0       0       0       
      +0       0       0       0       0       0       0       0       0       0       0       0       0       0       0       
      +0       0       0       0       0       0       0
  3902 ;;      Locals:         2       0       0       0       0       0       0       0       0       0       0       0       
      +0       0       0       0       0       0       0       0       0       0       0       0       0       0       0       
      +0       0       0       0       0       0       0
  3903 ;;      Temps:          0       0       0       0       0       0       0       0       0       0       0       0       
      +0       0       0       0       0       0       0       0       0       0       0       0       0       0       0       
      +0       0       0       0       0       0       0
  3904 ;;      Totals:         6       0       0       0       0       0       0       0       0       0       0       0       
      +0       0       0       0       0       0       0       0       0       0       0       0       0       0       0       
      +0       0       0       0       0       0       0
  3905 ;;Total ram usage:        6 bytes
  3906 ;; Hardware stack levels used:    1
  3907 ;; This function calls:
  3908 ;;		Nothing
  3909 ;; This function is called by:
  3910 ;;		_ReluctorFreqRead
  3911 ;;		_ReluctorPosRead
  3912 ;; This function uses a non-reentrant model
  3913 ;;
  3914                           
  3915                           	psect	text41
  3916  0035E6                     __ptext41:
  3917                           	callstack 0
  3918  0035E6                     ___wmul:
  3919                           	callstack 119
  3920  0035E6  5001               	movf	___wmul@multiplier^(0+1280),w,c
  3921  0035E8  0203               	mulwf	___wmul@multiplicand^(0+1280),c
  3922  0035EA  0061 F3CC  F505    	movff	prodl,___wmul@product
  3923  0035F0  0061 F3D0  F506    	movff	prodh,___wmul@product+1
  3924  0035F6  5001               	movf	___wmul@multiplier^(0+1280),w,c
  3925  0035F8  0204               	mulwf	(___wmul@multiplicand+1)^(0+1280),c
  3926  0035FA  50F3               	movf	243,w,c
  3927  0035FC  2606               	addwf	(___wmul@product+1)^(0+1280),f,c
  3928  0035FE  5002               	movf	(___wmul@multiplier+1)^(0+1280),w,c
  3929  003600  0203               	mulwf	___wmul@multiplicand^(0+1280),c
  3930  003602  50F3               	movf	243,w,c
  3931  003604  2606               	addwf	(___wmul@product+1)^(0+1280),f,c
  3932  003606  C505  F501         	movff	___wmul@product,?___wmul
  3933  00360A  C506  F502         	movff	___wmul@product+1,?___wmul+1
  3934  00360E  0012               	return		;funcret
  3935  003610                     __end_of___wmul:
  3936                           	callstack 0
  3937                           
  3938 ;; *************** function ___lwdiv *****************
  3939 ;; Defined at:
  3940 ;;		line 7 in file "C:\Program Files\Microchip\xc8\v2.31\pic\sources\c99\common\lwdiv.c"
  3941 ;; Parameters:    Size  Location     Type
  3942 ;;  dividend        2    6[COMRAM] unsigned int 
  3943 ;;  divisor         2    8[COMRAM] unsigned int 
  3944 ;; Auto vars:     Size  Location     Type
  3945 ;;  quotient        2   10[COMRAM] unsigned int 
  3946 ;;  counter         1   12[COMRAM] unsigned char 
  3947 ;; Return value:  Size  Location     Type
  3948 ;;                  2    6[COMRAM] unsigned int 
  3949 ;; Registers used:
  3950 ;;		wreg, status,2, status,0
  3951 ;; Tracked objects:
  3952 ;;		On entry : 0/0
  3953 ;;		On exit  : 0/0
  3954 ;;		Unchanged: 0/0
  3955 ;; Data sizes:     COMRAM   BANK5   BANK6   BANK7   BANK8   BANK9  BANK10  BANK11  BANK12  BANK13  BANK14  BANK15  BANK1
      +6  BANK17  BANK18  BANK19  BANK20  BANK21  BANK22  BANK23  BANK24  BANK25  BANK26  BANK27  BANK28  BANK29  BANK30  BANK3
      +1  BANK32  BANK33  BANK34  BANK35  BANK36  BANK37
  3956 ;;      Params:         4       0       0       0       0       0       0       0       0       0       0       0       
      +0       0       0       0       0       0       0       0       0       0       0       0       0       0       0       
      +0       0       0       0       0       0       0
  3957 ;;      Locals:         3       0       0       0       0       0       0       0       0       0       0       0       
      +0       0       0       0       0       0       0       0       0       0       0       0       0       0       0       
      +0       0       0       0       0       0       0
  3958 ;;      Temps:          0       0       0       0       0       0       0       0       0       0       0       0       
      +0       0       0       0       0       0       0       0       0       0       0       0       0       0       0       
      +0       0       0       0       0       0       0
  3959 ;;      Totals:         7       0       0       0       0       0       0       0       0       0       0       0       
      +0       0       0       0       0       0       0       0       0       0       0       0       0       0       0       
      +0       0       0       0       0       0       0
  3960 ;;Total ram usage:        7 bytes
  3961 ;; Hardware stack levels used:    1
  3962 ;; This function calls:
  3963 ;;		Nothing
  3964 ;; This function is called by:
  3965 ;;		_ReluctorFreqRead
  3966 ;; This function uses a non-reentrant model
  3967 ;;
  3968                           
  3969                           	psect	text42
  3970  0031A4                     __ptext42:
  3971                           	callstack 0
  3972  0031A4                     ___lwdiv:
  3973                           	callstack 119
  3974  0031A4  0E00               	movlw	0
  3975  0031A6  6E0C               	movwf	(___lwdiv@quotient+1)^(0+1280),c
  3976  0031A8  0E00               	movlw	0
  3977  0031AA  6E0B               	movwf	___lwdiv@quotient^(0+1280),c
  3978  0031AC  5009               	movf	___lwdiv@divisor^(0+1280),w,c
  3979  0031AE  100A               	iorwf	(___lwdiv@divisor+1)^(0+1280),w,c
  3980  0031B0  B4D8               	btfsc	status,2,c
  3981  0031B2  EFDD  F018         	goto	i2u221_41
  3982  0031B6  EFDF  F018         	goto	i2u221_40
  3983  0031BA                     i2u221_41:
  3984  0031BA  EF07  F019         	goto	i2l2033
  3985  0031BE                     i2u221_40:
  3986  0031BE  0E01               	movlw	1
  3987  0031C0  6E0D               	movwf	___lwdiv@counter^(0+1280),c
  3988  0031C2  EFE7  F018         	goto	i2l4281
  3989  0031C6                     i2l4279:
  3990  0031C6  90D8               	bcf	status,0,c
  3991  0031C8  3609               	rlcf	___lwdiv@divisor^(0+1280),f,c
  3992  0031CA  360A               	rlcf	(___lwdiv@divisor+1)^(0+1280),f,c
  3993  0031CC  2A0D               	incf	___lwdiv@counter^(0+1280),f,c
  3994  0031CE                     i2l4281:
  3995  0031CE  AE0A               	btfss	(___lwdiv@divisor+1)^(0+1280),7,c
  3996  0031D0  EFEC  F018         	goto	i2u222_41
  3997  0031D4  EFEE  F018         	goto	i2u222_40
  3998  0031D8                     i2u222_41:
  3999  0031D8  EFE3  F018         	goto	i2l4279
  4000  0031DC                     i2u222_40:
  4001  0031DC                     i2l4283:
  4002  0031DC  90D8               	bcf	status,0,c
  4003  0031DE  360B               	rlcf	___lwdiv@quotient^(0+1280),f,c
  4004  0031E0  360C               	rlcf	(___lwdiv@quotient+1)^(0+1280),f,c
  4005  0031E2  5009               	movf	___lwdiv@divisor^(0+1280),w,c
  4006  0031E4  5C07               	subwf	___lwdiv@dividend^(0+1280),w,c
  4007  0031E6  500A               	movf	(___lwdiv@divisor+1)^(0+1280),w,c
  4008  0031E8  5808               	subwfb	(___lwdiv@dividend+1)^(0+1280),w,c
  4009  0031EA  A0D8               	btfss	status,0,c
  4010  0031EC  EFFA  F018         	goto	i2u223_41
  4011  0031F0  EFFC  F018         	goto	i2u223_40
  4012  0031F4                     i2u223_41:
  4013  0031F4  EF01  F019         	goto	i2l4291
  4014  0031F8                     i2u223_40:
  4015  0031F8  5009               	movf	___lwdiv@divisor^(0+1280),w,c
  4016  0031FA  5E07               	subwf	___lwdiv@dividend^(0+1280),f,c
  4017  0031FC  500A               	movf	(___lwdiv@divisor+1)^(0+1280),w,c
  4018  0031FE  5A08               	subwfb	(___lwdiv@dividend+1)^(0+1280),f,c
  4019  003200  800B               	bsf	___lwdiv@quotient^(0+1280),0,c
  4020  003202                     i2l4291:
  4021  003202  90D8               	bcf	status,0,c
  4022  003204  320A               	rrcf	(___lwdiv@divisor+1)^(0+1280),f,c
  4023  003206  3209               	rrcf	___lwdiv@divisor^(0+1280),f,c
  4024  003208  2E0D               	decfsz	___lwdiv@counter^(0+1280),f,c
  4025  00320A  EFEE  F018         	goto	i2l4283
  4026  00320E                     i2l2033:
  4027  00320E  C50B  F507         	movff	___lwdiv@quotient,?___lwdiv
  4028  003212  C50C  F508         	movff	___lwdiv@quotient+1,?___lwdiv+1
  4029  003216  0012               	return		;funcret
  4030  003218                     __end_of___lwdiv:
  4031                           	callstack 0
  4032                           
  4033 ;; *************** function ___lbdiv *****************
  4034 ;; Defined at:
  4035 ;;		line 4 in file "C:\Program Files\Microchip\xc8\v2.31\pic\sources\c99\common\lbdiv.c"
  4036 ;; Parameters:    Size  Location     Type
  4037 ;;  dividend        1    wreg     unsigned char 
  4038 ;;  divisor         1    0[COMRAM] unsigned char 
  4039 ;; Auto vars:     Size  Location     Type
  4040 ;;  dividend        1    1[COMRAM] unsigned char 
  4041 ;;  quotient        1    3[COMRAM] unsigned char 
  4042 ;;  counter         1    2[COMRAM] unsigned char 
  4043 ;; Return value:  Size  Location     Type
  4044 ;;                  1    wreg      unsigned char 
  4045 ;; Registers used:
  4046 ;;		wreg, status,2, status,0
  4047 ;; Tracked objects:
  4048 ;;		On entry : 0/0
  4049 ;;		On exit  : 0/0
  4050 ;;		Unchanged: 0/0
  4051 ;; Data sizes:     COMRAM   BANK5   BANK6   BANK7   BANK8   BANK9  BANK10  BANK11  BANK12  BANK13  BANK14  BANK15  BANK1
      +6  BANK17  BANK18  BANK19  BANK20  BANK21  BANK22  BANK23  BANK24  BANK25  BANK26  BANK27  BANK28  BANK29  BANK30  BANK3
      +1  BANK32  BANK33  BANK34  BANK35  BANK36  BANK37
  4052 ;;      Params:         1       0       0       0       0       0       0       0       0       0       0       0       
      +0       0       0       0       0       0       0       0       0       0       0       0       0       0       0       
      +0       0       0       0       0       0       0
  4053 ;;      Locals:         3       0       0       0       0       0       0       0       0       0       0       0       
      +0       0       0       0       0       0       0       0       0       0       0       0       0       0       0       
      +0       0       0       0       0       0       0
  4054 ;;      Temps:          0       0       0       0       0       0       0       0       0       0       0       0       
      +0       0       0       0       0       0       0       0       0       0       0       0       0       0       0       
      +0       0       0       0       0       0       0
  4055 ;;      Totals:         4       0       0       0       0       0       0       0       0       0       0       0       
      +0       0       0       0       0       0       0       0       0       0       0       0       0       0       0       
      +0       0       0       0       0       0       0
  4056 ;;Total ram usage:        4 bytes
  4057 ;; Hardware stack levels used:    1
  4058 ;; This function calls:
  4059 ;;		Nothing
  4060 ;; This function is called by:
  4061 ;;		_ReluctorFreqRead
  4062 ;; This function uses a non-reentrant model
  4063 ;;
  4064                           
  4065                           	psect	text43
  4066  003218                     __ptext43:
  4067                           	callstack 0
  4068  003218                     ___lbdiv:
  4069                           	callstack 119
  4070                           
  4071                           ;incstack = 0
  4072                           ;___lbdiv@dividend stored from wreg
  4073  003218  6E02               	movwf	___lbdiv@dividend^(0+1280),c
  4074  00321A  0E00               	movlw	0
  4075  00321C  6E04               	movwf	___lbdiv@quotient^(0+1280),c
  4076  00321E  5001               	movf	___lbdiv@divisor^(0+1280),w,c
  4077  003220  B4D8               	btfsc	status,2,c
  4078  003222  EF15  F019         	goto	i2u218_41
  4079  003226  EF17  F019         	goto	i2u218_40
  4080  00322A                     i2u218_41:
  4081  00322A  EF38  F019         	goto	i2l4269
  4082  00322E                     i2u218_40:
  4083  00322E  0E01               	movlw	1
  4084  003230  6E03               	movwf	___lbdiv@counter^(0+1280),c
  4085  003232  EF1E  F019         	goto	i2l4257
  4086  003236                     i2l4253:
  4087  003236  90D8               	bcf	status,0,c
  4088  003238  3601               	rlcf	___lbdiv@divisor^(0+1280),f,c
  4089  00323A  2A03               	incf	___lbdiv@counter^(0+1280),f,c
  4090  00323C                     i2l4257:
  4091  00323C  AE01               	btfss	___lbdiv@divisor^(0+1280),7,c
  4092  00323E  EF23  F019         	goto	i2u219_41
  4093  003242  EF25  F019         	goto	i2u219_40
  4094  003246                     i2u219_41:
  4095  003246  EF1B  F019         	goto	i2l4253
  4096  00324A                     i2u219_40:
  4097  00324A                     i2l4259:
  4098  00324A  90D8               	bcf	status,0,c
  4099  00324C  3604               	rlcf	___lbdiv@quotient^(0+1280),f,c
  4100  00324E  5001               	movf	___lbdiv@divisor^(0+1280),w,c
  4101  003250  5C02               	subwf	___lbdiv@dividend^(0+1280),w,c
  4102  003252  A0D8               	btfss	status,0,c
  4103  003254  EF2E  F019         	goto	i2u220_41
  4104  003258  EF30  F019         	goto	i2u220_40
  4105  00325C                     i2u220_41:
  4106  00325C  EF33  F019         	goto	i2l4265
  4107  003260                     i2u220_40:
  4108  003260  5001               	movf	___lbdiv@divisor^(0+1280),w,c
  4109  003262  5E02               	subwf	___lbdiv@dividend^(0+1280),f,c
  4110  003264  8004               	bsf	___lbdiv@quotient^(0+1280),0,c
  4111  003266                     i2l4265:
  4112  003266  90D8               	bcf	status,0,c
  4113  003268  3201               	rrcf	___lbdiv@divisor^(0+1280),f,c
  4114  00326A  2E03               	decfsz	___lbdiv@counter^(0+1280),f,c
  4115  00326C  EF25  F019         	goto	i2l4259
  4116  003270                     i2l4269:
  4117  003270  5004               	movf	___lbdiv@quotient^(0+1280),w,c
  4118  003272  0012               	return		;funcret
  4119  003274                     __end_of___lbdiv:
  4120                           	callstack 0
  4121                           
  4122 ;; *************** function _MESSAGESSendEvery100ms *****************
  4123 ;; Defined at:
  4124 ;;		line 61 in file "MESSAGES.C"
  4125 ;; Parameters:    Size  Location     Type
  4126 ;;		None
  4127 ;; Auto vars:     Size  Location     Type
  4128 ;;		None
  4129 ;; Return value:  Size  Location     Type
  4130 ;;                  1    wreg      void 
  4131 ;; Registers used:
  4132 ;;		wreg, fsr1l, fsr1h, fsr2l, fsr2h, status,2, status,0, tblptrl, tblptrh, tblptru, prodl, prodh, cstack
  4133 ;; Tracked objects:
  4134 ;;		On entry : 0/0
  4135 ;;		On exit  : 0/0
  4136 ;;		Unchanged: 0/0
  4137 ;; Data sizes:     COMRAM   BANK5   BANK6   BANK7   BANK8   BANK9  BANK10  BANK11  BANK12  BANK13  BANK14  BANK15  BANK1
      +6  BANK17  BANK18  BANK19  BANK20  BANK21  BANK22  BANK23  BANK24  BANK25  BANK26  BANK27  BANK28  BANK29  BANK30  BANK3
      +1  BANK32  BANK33  BANK34  BANK35  BANK36  BANK37
  4138 ;;      Params:         0       0       0       0       0       0       0       0       0       0       0       0       
      +0       0       0       0       0       0       0       0       0       0       0       0       0       0       0       
      +0       0       0       0       0       0       0
  4139 ;;      Locals:         0       0       0       0       0       0       0       0       0       0       0       0       
      +0       0       0       0       0       0       0       0       0       0       0       0       0       0       0       
      +0       0       0       0       0       0       0
  4140 ;;      Temps:          2       0       0       0       0       0       0       0       0       0       0       0       
      +0       0       0       0       0       0       0       0       0       0       0       0       0       0       0       
      +0       0       0       0       0       0       0
  4141 ;;      Totals:         2       0       0       0       0       0       0       0       0       0       0       0       
      +0       0       0       0       0       0       0       0       0       0       0       0       0       0       0       
      +0       0       0       0       0       0       0
  4142 ;;Total ram usage:        2 bytes
  4143 ;; Hardware stack levels used:    1
  4144 ;; Hardware stack levels required when called:    4
  4145 ;; This function calls:
  4146 ;;		_CANWriteMessage
  4147 ;; This function is called by:
  4148 ;;		_TMR1_ISR
  4149 ;; This function uses a non-reentrant model
  4150 ;;
  4151                           
  4152                           	psect	text44
  4153  0029D0                     __ptext44:
  4154                           	callstack 0
  4155  0029D0                     _MESSAGESSendEvery100ms:
  4156                           	callstack 116
  4157  0029D0                     
  4158                           ;MESSAGES.C: 63:     switch (ucWheelID)
  4159  0029D0  EF70  F015         	goto	i2l4451
  4160  0029D4                     i2l4437:
  4161                           
  4162                           ;MESSAGES.C: 66:             if ( ucReluctorState == 0x00 )
  4163  0029D4  5046               	movf	_ucReluctorState^(0+1280),w,c
  4164  0029D6  A4D8               	btfss	status,2,c
  4165  0029D8  EFF0  F014         	goto	i2u230_41
  4166  0029DC  EFF2  F014         	goto	i2u230_40
  4167  0029E0                     i2u230_41:
  4168  0029E0  EF8D  F015         	goto	i2l1530
  4169  0029E4                     i2u230_40:
  4170  0029E4                     
  4171                           ;MESSAGES.C: 67:             {;MESSAGES.C: 68:                 CANWriteMessage(0x6E6, 8,
      +                           0,0,0,0,ucKPHData1, ucKPHData2, ucCountVueltaRueda1, ucCountVueltaRueda2);
  4172  0029E4  0EE6               	movlw	230
  4173  0029E6  6E1E               	movwf	CANWriteMessage@id^(0+1280),c
  4174  0029E8  0E06               	movlw	6
  4175  0029EA  6E1F               	movwf	(CANWriteMessage@id+1)^(0+1280),c
  4176  0029EC  0E00               	movlw	0
  4177  0029EE  6E20               	movwf	(CANWriteMessage@id+2)^(0+1280),c
  4178  0029F0  0E00               	movlw	0
  4179  0029F2  6E21               	movwf	(CANWriteMessage@id+3)^(0+1280),c
  4180  0029F4  0E08               	movlw	8
  4181  0029F6  6E22               	movwf	CANWriteMessage@dataLength^(0+1280),c
  4182  0029F8  0E00               	movlw	0
  4183  0029FA  6E23               	movwf	CANWriteMessage@data1^(0+1280),c
  4184  0029FC  0E00               	movlw	0
  4185  0029FE  6E24               	movwf	CANWriteMessage@data2^(0+1280),c
  4186  002A00  0E00               	movlw	0
  4187  002A02  6E25               	movwf	CANWriteMessage@data3^(0+1280),c
  4188  002A04  0E00               	movlw	0
  4189  002A06  6E26               	movwf	CANWriteMessage@data4^(0+1280),c
  4190  002A08  C548  F527         	movff	_ucKPHData1,CANWriteMessage@data5
  4191  002A0C  C547  F528         	movff	_ucKPHData2,CANWriteMessage@data6
  4192  002A10  C54B  F529         	movff	_ucCountVueltaRueda1,CANWriteMessage@data7
  4193  002A14  C54A  F52A         	movff	_ucCountVueltaRueda2,CANWriteMessage@data8
  4194  002A18  EC8E  F015         	call	_CANWriteMessage	;wreg free
  4195  002A1C                     
  4196                           ;MESSAGES.C: 69:                 __nop();
  4197  002A1C  F000               	nop	
  4198                           
  4199                           ;MESSAGES.C: 70:                 CANWriteMessage(0x6EC, 8, 0,0,0,0,ucKPHData1, ucKPHData
      +                          2, ucCountVueltaRueda1, ucCountVueltaRueda2);
  4200  002A1E  0EEC               	movlw	236
  4201  002A20  6E1E               	movwf	CANWriteMessage@id^(0+1280),c
  4202  002A22  0E06               	movlw	6
  4203  002A24  6E1F               	movwf	(CANWriteMessage@id+1)^(0+1280),c
  4204  002A26  0E00               	movlw	0
  4205  002A28  6E20               	movwf	(CANWriteMessage@id+2)^(0+1280),c
  4206  002A2A  0E00               	movlw	0
  4207  002A2C  6E21               	movwf	(CANWriteMessage@id+3)^(0+1280),c
  4208  002A2E  0E08               	movlw	8
  4209  002A30  6E22               	movwf	CANWriteMessage@dataLength^(0+1280),c
  4210  002A32  0E00               	movlw	0
  4211  002A34  6E23               	movwf	CANWriteMessage@data1^(0+1280),c
  4212  002A36  0E00               	movlw	0
  4213  002A38  6E24               	movwf	CANWriteMessage@data2^(0+1280),c
  4214  002A3A  0E00               	movlw	0
  4215  002A3C  6E25               	movwf	CANWriteMessage@data3^(0+1280),c
  4216  002A3E  0E00               	movlw	0
  4217  002A40  6E26               	movwf	CANWriteMessage@data4^(0+1280),c
  4218  002A42  C548  F527         	movff	_ucKPHData1,CANWriteMessage@data5
  4219  002A46  C547  F528         	movff	_ucKPHData2,CANWriteMessage@data6
  4220  002A4A  C54B  F529         	movff	_ucCountVueltaRueda1,CANWriteMessage@data7
  4221  002A4E  C54A  F52A         	movff	_ucCountVueltaRueda2,CANWriteMessage@data8
  4222  002A52  EC8E  F015         	call	_CANWriteMessage	;wreg free
  4223  002A56  EF8D  F015         	goto	i2l1530
  4224  002A5A                     i2l4443:
  4225                           
  4226                           ;MESSAGES.C: 74:             if ( ucReluctorState == 0x00 )
  4227  002A5A  5046               	movf	_ucReluctorState^(0+1280),w,c
  4228  002A5C  A4D8               	btfss	status,2,c
  4229  002A5E  EF33  F015         	goto	i2u231_41
  4230  002A62  EF35  F015         	goto	i2u231_40
  4231  002A66                     i2u231_41:
  4232  002A66  EF8D  F015         	goto	i2l1530
  4233  002A6A                     i2u231_40:
  4234  002A6A                     
  4235                           ;MESSAGES.C: 75:             {;MESSAGES.C: 76:                 CANWriteMessage(0x6E9, 8,
      +                           0,0,0,0,ucKPHData1, ucKPHData2, ucCountVueltaRueda1, ucCountVueltaRueda2);
  4236  002A6A  0EE9               	movlw	233
  4237  002A6C  6E1E               	movwf	CANWriteMessage@id^(0+1280),c
  4238  002A6E  0E06               	movlw	6
  4239  002A70  6E1F               	movwf	(CANWriteMessage@id+1)^(0+1280),c
  4240  002A72  0E00               	movlw	0
  4241  002A74  6E20               	movwf	(CANWriteMessage@id+2)^(0+1280),c
  4242  002A76  0E00               	movlw	0
  4243  002A78  6E21               	movwf	(CANWriteMessage@id+3)^(0+1280),c
  4244  002A7A  0E08               	movlw	8
  4245  002A7C  6E22               	movwf	CANWriteMessage@dataLength^(0+1280),c
  4246  002A7E  0E00               	movlw	0
  4247  002A80  6E23               	movwf	CANWriteMessage@data1^(0+1280),c
  4248  002A82  0E00               	movlw	0
  4249  002A84  6E24               	movwf	CANWriteMessage@data2^(0+1280),c
  4250  002A86  0E00               	movlw	0
  4251  002A88  6E25               	movwf	CANWriteMessage@data3^(0+1280),c
  4252  002A8A  0E00               	movlw	0
  4253  002A8C  6E26               	movwf	CANWriteMessage@data4^(0+1280),c
  4254  002A8E  C548  F527         	movff	_ucKPHData1,CANWriteMessage@data5
  4255  002A92  C547  F528         	movff	_ucKPHData2,CANWriteMessage@data6
  4256  002A96  C54B  F529         	movff	_ucCountVueltaRueda1,CANWriteMessage@data7
  4257  002A9A  C54A  F52A         	movff	_ucCountVueltaRueda2,CANWriteMessage@data8
  4258  002A9E  EC8E  F015         	call	_CANWriteMessage	;wreg free
  4259  002AA2                     
  4260                           ;MESSAGES.C: 77:                 __nop();
  4261  002AA2  F000               	nop	
  4262                           
  4263                           ;MESSAGES.C: 78:                 CANWriteMessage(0x6EF, 8, 0,0,0,0,ucKPHData1, ucKPHData
      +                          2, ucCountVueltaRueda1, ucCountVueltaRueda2);
  4264  002AA4  0EEF               	movlw	239
  4265  002AA6  6E1E               	movwf	CANWriteMessage@id^(0+1280),c
  4266  002AA8  0E06               	movlw	6
  4267  002AAA  6E1F               	movwf	(CANWriteMessage@id+1)^(0+1280),c
  4268  002AAC  0E00               	movlw	0
  4269  002AAE  6E20               	movwf	(CANWriteMessage@id+2)^(0+1280),c
  4270  002AB0  0E00               	movlw	0
  4271  002AB2  6E21               	movwf	(CANWriteMessage@id+3)^(0+1280),c
  4272  002AB4  0E08               	movlw	8
  4273  002AB6  6E22               	movwf	CANWriteMessage@dataLength^(0+1280),c
  4274  002AB8  0E00               	movlw	0
  4275  002ABA  6E23               	movwf	CANWriteMessage@data1^(0+1280),c
  4276  002ABC  0E00               	movlw	0
  4277  002ABE  6E24               	movwf	CANWriteMessage@data2^(0+1280),c
  4278  002AC0  0E00               	movlw	0
  4279  002AC2  6E25               	movwf	CANWriteMessage@data3^(0+1280),c
  4280  002AC4  0E00               	movlw	0
  4281  002AC6  6E26               	movwf	CANWriteMessage@data4^(0+1280),c
  4282  002AC8  C548  F527         	movff	_ucKPHData1,CANWriteMessage@data5
  4283  002ACC  C547  F528         	movff	_ucKPHData2,CANWriteMessage@data6
  4284  002AD0  C54B  F529         	movff	_ucCountVueltaRueda1,CANWriteMessage@data7
  4285  002AD4  C54A  F52A         	movff	_ucCountVueltaRueda2,CANWriteMessage@data8
  4286  002AD8  EC8E  F015         	call	_CANWriteMessage	;wreg free
  4287  002ADC  EF8D  F015         	goto	i2l1530
  4288  002AE0                     i2l4451:
  4289  002AE0  5045               	movf	_ucWheelID^(0+1280),w,c
  4290  002AE2  6E35               	movwf	??_MESSAGESSendEvery100ms^(0+1280),c
  4291  002AE4  6A36               	clrf	(??_MESSAGESSendEvery100ms+1)^(0+1280),c
  4292                           
  4293                           ; Switch on 2 bytes has been partitioned into a top level switch of size 1, and 1 sub-sw
      +                          itches
  4294                           ; Switch size 1, requested type "simple"
  4295                           ; Number of cases is 1, Range of values is 0 to 0
  4296                           ; switch strategies available:
  4297                           ; Name         Instructions Cycles
  4298                           ; simple_byte            4     3 (average)
  4299                           ;	Chosen strategy is simple_byte
  4300  002AE6  5036               	movf	(??_MESSAGESSendEvery100ms+1)^(0+1280),w,c
  4301  002AE8  0A00               	xorlw	0	; case 0
  4302  002AEA  B4D8               	btfsc	status,2,c
  4303  002AEC  EF7A  F015         	goto	i2l5383
  4304  002AF0  EF8D  F015         	goto	i2l1530
  4305  002AF4                     i2l5383:
  4306                           
  4307                           ; Switch size 1, requested type "simple"
  4308                           ; Number of cases is 4, Range of values is 1 to 4
  4309                           ; switch strategies available:
  4310                           ; Name         Instructions Cycles
  4311                           ; simple_byte           13     7 (average)
  4312                           ;	Chosen strategy is simple_byte
  4313  002AF4  5035               	movf	??_MESSAGESSendEvery100ms^(0+1280),w,c
  4314  002AF6  0A01               	xorlw	1	; case 1
  4315  002AF8  B4D8               	btfsc	status,2,c
  4316  002AFA  EFEA  F014         	goto	i2l4437
  4317  002AFE  0A03               	xorlw	3	; case 2
  4318  002B00  B4D8               	btfsc	status,2,c
  4319  002B02  EF2D  F015         	goto	i2l4443
  4320  002B06  0A01               	xorlw	1	; case 3
  4321  002B08  B4D8               	btfsc	status,2,c
  4322  002B0A  EF8D  F015         	goto	i2l1530
  4323  002B0E  0A07               	xorlw	7	; case 4
  4324  002B10  B4D8               	btfsc	status,2,c
  4325  002B12  EF8D  F015         	goto	i2l1530
  4326  002B16  EF8D  F015         	goto	i2l1530
  4327  002B1A                     i2l1530:
  4328  002B1A  0012               	return		;funcret
  4329  002B1C                     __end_of_MESSAGESSendEvery100ms:
  4330                           	callstack 0
  4331                           
  4332 ;; *************** function _CANWriteMessage *****************
  4333 ;; Defined at:
  4334 ;;		line 14 in file "MESSAGES.C"
  4335 ;; Parameters:    Size  Location     Type
  4336 ;;  id              4   29[COMRAM] unsigned long 
  4337 ;;  dataLength      1   33[COMRAM] unsigned char 
  4338 ;;  data1           1   34[COMRAM] unsigned char 
  4339 ;;  data2           1   35[COMRAM] unsigned char 
  4340 ;;  data3           1   36[COMRAM] unsigned char 
  4341 ;;  data4           1   37[COMRAM] unsigned char 
  4342 ;;  data5           1   38[COMRAM] unsigned char 
  4343 ;;  data6           1   39[COMRAM] unsigned char 
  4344 ;;  data7           1   40[COMRAM] unsigned char 
  4345 ;;  data8           1   41[COMRAM] unsigned char 
  4346 ;; Auto vars:     Size  Location     Type
  4347 ;;  uiData4         2   50[COMRAM] unsigned int 
  4348 ;;  uiData3         2   48[COMRAM] unsigned int 
  4349 ;;  uiData2         2   46[COMRAM] unsigned int 
  4350 ;;  uiData1         2   44[COMRAM] unsigned int 
  4351 ;; Return value:  Size  Location     Type
  4352 ;;                  1    wreg      void 
  4353 ;; Registers used:
  4354 ;;		wreg, fsr1l, fsr1h, fsr2l, fsr2h, status,2, status,0, tblptrl, tblptrh, tblptru, prodl, prodh, cstack
  4355 ;; Tracked objects:
  4356 ;;		On entry : 0/0
  4357 ;;		On exit  : 0/0
  4358 ;;		Unchanged: 0/0
  4359 ;; Data sizes:     COMRAM   BANK5   BANK6   BANK7   BANK8   BANK9  BANK10  BANK11  BANK12  BANK13  BANK14  BANK15  BANK1
      +6  BANK17  BANK18  BANK19  BANK20  BANK21  BANK22  BANK23  BANK24  BANK25  BANK26  BANK27  BANK28  BANK29  BANK30  BANK3
      +1  BANK32  BANK33  BANK34  BANK35  BANK36  BANK37
  4360 ;;      Params:        13       0       0       0       0       0       0       0       0       0       0       0       
      +0       0       0       0       0       0       0       0       0       0       0       0       0       0       0       
      +0       0       0       0       0       0       0
  4361 ;;      Locals:         8       0       0       0       0       0       0       0       0       0       0       0       
      +0       0       0       0       0       0       0       0       0       0       0       0       0       0       0       
      +0       0       0       0       0       0       0
  4362 ;;      Temps:          2       0       0       0       0       0       0       0       0       0       0       0       
      +0       0       0       0       0       0       0       0       0       0       0       0       0       0       0       
      +0       0       0       0       0       0       0
  4363 ;;      Totals:        23       0       0       0       0       0       0       0       0       0       0       0       
      +0       0       0       0       0       0       0       0       0       0       0       0       0       0       0       
      +0       0       0       0       0       0       0
  4364 ;;Total ram usage:       23 bytes
  4365 ;; Hardware stack levels used:    1
  4366 ;; Hardware stack levels required when called:    3
  4367 ;; This function calls:
  4368 ;;		_CAN1_Transmit
  4369 ;;		_CAN1_TransmitFIFOStatusGet
  4370 ;;		i2_CAN1_OperationModeGet
  4371 ;;		i2_CAN1_OperationModeSet
  4372 ;; This function is called by:
  4373 ;;		_MESSAGESSendEvery100ms
  4374 ;; This function uses a non-reentrant model
  4375 ;;
  4376                           
  4377                           	psect	text45
  4378  002B1C                     __ptext45:
  4379                           	callstack 0
  4380  002B1C                     _CANWriteMessage:
  4381                           	callstack 116
  4382  002B1C                     
  4383                           ;MESSAGES.C: 14: void CANWriteMessage(unsigned long id, unsigned char dataLength, unsign
      +                          ed char data1, unsigned char data2, unsigned char data3, unsigned char data4, unsigned c
      +                          har data5, unsigned char data6, unsigned char data7, unsigned char data8);MESSAGES.C: 15
      +                          : {;MESSAGES.C: 16:     unsigned int uiData1;;MESSAGES.C: 17:     unsigned int uiData2;;
      +                          MESSAGES.C: 18:     unsigned int uiData3;;MESSAGES.C: 19:     unsigned int uiData4;;MESS
      +                          AGES.C: 23:     uiData1 = ( data1 << 0x08 ) & 0xFF00;
  4384  002B1C  5023               	movf	CANWriteMessage@data1^(0+1280),w,c
  4385  002B1E  6E2C               	movwf	(??_CANWriteMessage+1)^(0+1280),c
  4386  002B20  6A2B               	clrf	??_CANWriteMessage^(0+1280),c
  4387  002B22  0E00               	movlw	0
  4388  002B24  142B               	andwf	??_CANWriteMessage^(0+1280),w,c
  4389  002B26  6E2D               	movwf	CANWriteMessage@uiData1^(0+1280),c
  4390  002B28  0EFF               	movlw	255
  4391  002B2A  142C               	andwf	(??_CANWriteMessage+1)^(0+1280),w,c
  4392  002B2C  6E2E               	movwf	(CANWriteMessage@uiData1+1)^(0+1280),c
  4393                           
  4394                           ;MESSAGES.C: 24:     uiData1 |= data2;
  4395  002B2E  5024               	movf	CANWriteMessage@data2^(0+1280),w,c
  4396  002B30  122D               	iorwf	CANWriteMessage@uiData1^(0+1280),f,c
  4397                           
  4398                           ;MESSAGES.C: 25:     uiData2 = ( data3 << 0x08 ) & 0xFF00;
  4399  002B32  5025               	movf	CANWriteMessage@data3^(0+1280),w,c
  4400  002B34  6E2C               	movwf	(??_CANWriteMessage+1)^(0+1280),c
  4401  002B36  6A2B               	clrf	??_CANWriteMessage^(0+1280),c
  4402  002B38  0E00               	movlw	0
  4403  002B3A  142B               	andwf	??_CANWriteMessage^(0+1280),w,c
  4404  002B3C  6E2F               	movwf	CANWriteMessage@uiData2^(0+1280),c
  4405  002B3E  0EFF               	movlw	255
  4406  002B40  142C               	andwf	(??_CANWriteMessage+1)^(0+1280),w,c
  4407  002B42  6E30               	movwf	(CANWriteMessage@uiData2+1)^(0+1280),c
  4408                           
  4409                           ;MESSAGES.C: 26:     uiData2 |= data4;
  4410  002B44  5026               	movf	CANWriteMessage@data4^(0+1280),w,c
  4411  002B46  122F               	iorwf	CANWriteMessage@uiData2^(0+1280),f,c
  4412                           
  4413                           ;MESSAGES.C: 27:     uiData3 = ( data5 << 0x08 ) & 0xFF00;
  4414  002B48  5027               	movf	CANWriteMessage@data5^(0+1280),w,c
  4415  002B4A  6E2C               	movwf	(??_CANWriteMessage+1)^(0+1280),c
  4416  002B4C  6A2B               	clrf	??_CANWriteMessage^(0+1280),c
  4417  002B4E  0E00               	movlw	0
  4418  002B50  142B               	andwf	??_CANWriteMessage^(0+1280),w,c
  4419  002B52  6E31               	movwf	CANWriteMessage@uiData3^(0+1280),c
  4420  002B54  0EFF               	movlw	255
  4421  002B56  142C               	andwf	(??_CANWriteMessage+1)^(0+1280),w,c
  4422  002B58  6E32               	movwf	(CANWriteMessage@uiData3+1)^(0+1280),c
  4423                           
  4424                           ;MESSAGES.C: 28:     uiData3 |= data6;
  4425  002B5A  5028               	movf	CANWriteMessage@data6^(0+1280),w,c
  4426  002B5C  1231               	iorwf	CANWriteMessage@uiData3^(0+1280),f,c
  4427                           
  4428                           ;MESSAGES.C: 29:     uiData4 = ( data7 << 0x08 ) & 0xFF00;
  4429  002B5E  5029               	movf	CANWriteMessage@data7^(0+1280),w,c
  4430  002B60  6E2C               	movwf	(??_CANWriteMessage+1)^(0+1280),c
  4431  002B62  6A2B               	clrf	??_CANWriteMessage^(0+1280),c
  4432  002B64  0E00               	movlw	0
  4433  002B66  142B               	andwf	??_CANWriteMessage^(0+1280),w,c
  4434  002B68  6E33               	movwf	CANWriteMessage@uiData4^(0+1280),c
  4435  002B6A  0EFF               	movlw	255
  4436  002B6C  142C               	andwf	(??_CANWriteMessage+1)^(0+1280),w,c
  4437  002B6E  6E34               	movwf	(CANWriteMessage@uiData4+1)^(0+1280),c
  4438                           
  4439                           ;MESSAGES.C: 30:     uiData4 |= data8;
  4440  002B70  502A               	movf	CANWriteMessage@data8^(0+1280),w,c
  4441  002B72  1233               	iorwf	CANWriteMessage@uiData4^(0+1280),f,c
  4442  002B74                     
  4443                           ;MESSAGES.C: 32:     CANDATAdata [0] = data1;
  4444  002B74  C523  F59C         	movff	CANWriteMessage@data1,_CANDATAdata
  4445  002B78                     
  4446                           ;MESSAGES.C: 33:     CANDATAdata [1] = data2;
  4447  002B78  C524  F59D         	movff	CANWriteMessage@data2,_CANDATAdata+1
  4448  002B7C                     
  4449                           ;MESSAGES.C: 34:     CANDATAdata [2] = data3;
  4450  002B7C  C525  F59E         	movff	CANWriteMessage@data3,_CANDATAdata+2
  4451  002B80                     
  4452                           ;MESSAGES.C: 35:     CANDATAdata [3] = data4;
  4453  002B80  C526  F59F         	movff	CANWriteMessage@data4,_CANDATAdata+3
  4454  002B84                     
  4455                           ;MESSAGES.C: 36:     CANDATAdata [4] = data5;
  4456  002B84  C527  F5A0         	movff	CANWriteMessage@data5,_CANDATAdata+4
  4457  002B88                     
  4458                           ;MESSAGES.C: 37:     CANDATAdata [5] = data6;
  4459  002B88  C528  F5A1         	movff	CANWriteMessage@data6,_CANDATAdata+5
  4460  002B8C                     
  4461                           ;MESSAGES.C: 38:     CANDATAdata [6] = data7;
  4462  002B8C  C529  F5A2         	movff	CANWriteMessage@data7,_CANDATAdata+6
  4463  002B90                     
  4464                           ;MESSAGES.C: 39:     CANDATAdata [7] = data8;
  4465  002B90  C52A  F5A3         	movff	CANWriteMessage@data8,_CANDATAdata+7
  4466  002B94                     
  4467                           ;MESSAGES.C: 41:     if(CAN_CONFIGURATION_MODE == CAN1_OperationModeGet())
  4468  002B94  EC0A  F01C         	call	i2_CAN1_OperationModeGet	;wreg free
  4469  002B98  0A04               	xorlw	4
  4470  002B9A  A4D8               	btfss	status,2,c
  4471  002B9C  EFD2  F015         	goto	i2u215_41
  4472  002BA0  EFD4  F015         	goto	i2u215_40
  4473  002BA4                     i2u215_41:
  4474  002BA4  EF0A  F016         	goto	i2l1519
  4475  002BA8                     i2u215_40:
  4476  002BA8                     
  4477                           ;MESSAGES.C: 42:     {;MESSAGES.C: 43:         if(CAN_OP_MODE_REQUEST_SUCCESS == CAN1_Op
      +                          erationModeSet(CAN_NORMAL_2_0_MODE))
  4478  002BA8  0E06               	movlw	6
  4479  002BAA  EC15  F018         	call	i2_CAN1_OperationModeSet
  4480  002BAE  0900               	iorlw	0
  4481  002BB0  A4D8               	btfss	status,2,c
  4482  002BB2  EFDD  F015         	goto	i2u216_41
  4483  002BB6  EFDF  F015         	goto	i2u216_40
  4484  002BBA                     i2u216_41:
  4485  002BBA  EF0A  F016         	goto	i2l1519
  4486  002BBE                     i2u216_40:
  4487  002BBE                     
  4488                           ;MESSAGES.C: 44:         {;MESSAGES.C: 45:             msg.msgId = id;
  4489  002BBE  C51E  F550         	movff	CANWriteMessage@id,_msg
  4490  002BC2  C51F  F551         	movff	CANWriteMessage@id+1,_msg+1
  4491  002BC6  C520  F552         	movff	CANWriteMessage@id+2,_msg+2
  4492  002BCA  C521  F553         	movff	CANWriteMessage@id+3,_msg+3
  4493                           
  4494                           ;MESSAGES.C: 46:             msg.field.formatType = CAN_2_0_FORMAT;
  4495  002BCE  9C54               	bcf	(_msg+4)^(0+1280),6,c
  4496                           
  4497                           ;MESSAGES.C: 47:             msg.field.brs = CAN_NON_BRS_MODE;
  4498  002BD0  9E54               	bcf	(_msg+4)^(0+1280),7,c
  4499                           
  4500                           ;MESSAGES.C: 48:             msg.field.frameType = CAN_FRAME_DATA;
  4501  002BD2  9254               	bcf	(_msg+4)^(0+1280),1,c
  4502                           
  4503                           ;MESSAGES.C: 49:             msg.field.idType = CAN_FRAME_STD;
  4504  002BD4  9054               	bcf	(_msg+4)^(0+1280),0,c
  4505  002BD6                     
  4506                           ;MESSAGES.C: 50:             msg.field.dlc = dataLength;
  4507  002BD6  C522  F52B         	movff	CANWriteMessage@dataLength,??_CANWriteMessage
  4508  002BDA  462B               	rlncf	??_CANWriteMessage^(0+1280),f,c
  4509  002BDC  462B               	rlncf	??_CANWriteMessage^(0+1280),f,c
  4510  002BDE  5054               	movf	(_msg+4)^(0+1280),w,c
  4511  002BE0  182B               	xorwf	??_CANWriteMessage^(0+1280),w,c
  4512  002BE2  0BC3               	andlw	-61
  4513  002BE4  182B               	xorwf	??_CANWriteMessage^(0+1280),w,c
  4514  002BE6  6E54               	movwf	(_msg+4)^(0+1280),c
  4515                           
  4516                           ;MESSAGES.C: 51:             msg.data = CANDATAdata;
  4517  002BE8  0E9C               	movlw	low _CANDATAdata
  4518  002BEA  6E55               	movwf	(_msg+5)^(0+1280),c
  4519  002BEC  0E05               	movlw	high _CANDATAdata
  4520  002BEE  6E56               	movwf	(_msg+6)^(0+1280),c
  4521  002BF0                     
  4522                           ;MESSAGES.C: 53:             if(CAN_TX_FIFO_AVAILABLE == (CAN1_TransmitFIFOStatusGet(TXQ
      +                          ) & CAN_TX_FIFO_AVAILABLE))
  4523  002BF0  0E00               	movlw	0
  4524  002BF2  EC45  F01B         	call	_CAN1_TransmitFIFOStatusGet
  4525  002BF6  6E2B               	movwf	??_CANWriteMessage^(0+1280),c
  4526  002BF8  A02B               	btfss	??_CANWriteMessage^(0+1280),0,c
  4527  002BFA  EF01  F016         	goto	i2u217_41
  4528  002BFE  EF03  F016         	goto	i2u217_40
  4529  002C02                     i2u217_41:
  4530  002C02  EF0A  F016         	goto	i2l1519
  4531  002C06                     i2u217_40:
  4532  002C06                     
  4533                           ;MESSAGES.C: 54:             {;MESSAGES.C: 55:                 CAN1_Transmit(TXQ, &msg);
  4534  002C06  0E50               	movlw	low _msg
  4535  002C08  6E18               	movwf	CAN1_Transmit@txCanMsg^(0+1280),c
  4536  002C0A  0E05               	movlw	high _msg
  4537  002C0C  6E19               	movwf	(CAN1_Transmit@txCanMsg+1)^(0+1280),c
  4538  002C0E  0E00               	movlw	0
  4539  002C10  ECCB  F017         	call	_CAN1_Transmit
  4540  002C14                     i2l1519:
  4541  002C14  0012               	return		;funcret
  4542  002C16                     __end_of_CANWriteMessage:
  4543                           	callstack 0
  4544                           
  4545 ;; *************** function i2_CAN1_OperationModeSet *****************
  4546 ;; Defined at:
  4547 ;;		line 266 in file "mcc_generated_files/can1.c"
  4548 ;; Parameters:    Size  Location     Type
  4549 ;;  requestMode     1    wreg     const enum E22346
  4550 ;; Auto vars:     Size  Location     Type
  4551 ;;  requestMode     1    2[COMRAM] const enum E22346
  4552 ;;  status          1    1[COMRAM] enum E22356
  4553 ;;  opMode          1    0[COMRAM] enum E22346
  4554 ;; Return value:  Size  Location     Type
  4555 ;;                  1    wreg      enum E22356
  4556 ;; Registers used:
  4557 ;;		wreg, status,2, status,0, cstack
  4558 ;; Tracked objects:
  4559 ;;		On entry : 0/0
  4560 ;;		On exit  : 0/0
  4561 ;;		Unchanged: 0/0
  4562 ;; Data sizes:     COMRAM   BANK5   BANK6   BANK7   BANK8   BANK9  BANK10  BANK11  BANK12  BANK13  BANK14  BANK15  BANK1
      +6  BANK17  BANK18  BANK19  BANK20  BANK21  BANK22  BANK23  BANK24  BANK25  BANK26  BANK27  BANK28  BANK29  BANK30  BANK3
      +1  BANK32  BANK33  BANK34  BANK35  BANK36  BANK37
  4563 ;;      Params:         0       0       0       0       0       0       0       0       0       0       0       0       
      +0       0       0       0       0       0       0       0       0       0       0       0       0       0       0       
      +0       0       0       0       0       0       0
  4564 ;;      Locals:         3       0       0       0       0       0       0       0       0       0       0       0       
      +0       0       0       0       0       0       0       0       0       0       0       0       0       0       0       
      +0       0       0       0       0       0       0
  4565 ;;      Temps:          0       0       0       0       0       0       0       0       0       0       0       0       
      +0       0       0       0       0       0       0       0       0       0       0       0       0       0       0       
      +0       0       0       0       0       0       0
  4566 ;;      Totals:         3       0       0       0       0       0       0       0       0       0       0       0       
      +0       0       0       0       0       0       0       0       0       0       0       0       0       0       0       
      +0       0       0       0       0       0       0
  4567 ;;Total ram usage:        3 bytes
  4568 ;; Hardware stack levels used:    1
  4569 ;; Hardware stack levels required when called:    1
  4570 ;; This function calls:
  4571 ;;		i2_CAN1_OperationModeGet
  4572 ;; This function is called by:
  4573 ;;		_CANWriteMessage
  4574 ;; This function uses a non-reentrant model
  4575 ;;
  4576                           
  4577                           	psect	text46
  4578  00302A                     __ptext46:
  4579                           	callstack 0
  4580  00302A                     i2_CAN1_OperationModeSet:
  4581                           	callstack 117
  4582                           
  4583                           ;incstack = 0
  4584                           ;i2CAN1_OperationModeSet@requestMode stored from wreg
  4585  00302A  6E03               	movwf	i2CAN1_OperationModeSet@requestMode^(0+1280),c
  4586  00302C                     
  4587                           ;mcc_generated_files/can1.c: 266: CAN_OP_MODE_STATUS CAN1_OperationModeSet(const CAN_OP_
      +                          MODES requestMode);mcc_generated_files/can1.c: 267: {;mcc_generated_files/can1.c: 268:  
      +                             CAN_OP_MODE_STATUS status = CAN_OP_MODE_REQUEST_SUCCESS;
  4588  00302C  0E00               	movlw	0
  4589  00302E  6E02               	movwf	i2CAN1_OperationModeSet@status^(0+1280),c
  4590  003030                     
  4591                           ;mcc_generated_files/can1.c: 269:     CAN_OP_MODES opMode = CAN1_OperationModeGet();
  4592  003030  EC0A  F01C         	call	i2_CAN1_OperationModeGet	;wreg free
  4593  003034  6E01               	movwf	i2CAN1_OperationModeSet@opMode^(0+1280),c
  4594  003036                     
  4595                           ;mcc_generated_files/can1.c: 271:     if (CAN_CONFIGURATION_MODE == opMode
  4596  003036  0E04               	movlw	4
  4597  003038  1801               	xorwf	i2CAN1_OperationModeSet@opMode^(0+1280),w,c
  4598  00303A  B4D8               	btfsc	status,2,c
  4599  00303C  EF22  F018         	goto	i2u201_41
  4600  003040  EF24  F018         	goto	i2u201_40
  4601  003044                     i2u201_41:
  4602  003044  EF35  F018         	goto	i2l4087
  4603  003048                     i2u201_40:
  4604  003048  0403               	decf	i2CAN1_OperationModeSet@requestMode^(0+1280),w,c
  4605  00304A  B4D8               	btfsc	status,2,c
  4606  00304C  EF2A  F018         	goto	i2u202_41
  4607  003050  EF2C  F018         	goto	i2u202_40
  4608  003054                     i2u202_41:
  4609  003054  EF35  F018         	goto	i2l4087
  4610  003058                     i2u202_40:
  4611  003058  0E04               	movlw	4
  4612  00305A  1803               	xorwf	i2CAN1_OperationModeSet@requestMode^(0+1280),w,c
  4613  00305C  A4D8               	btfss	status,2,c
  4614  00305E  EF33  F018         	goto	i2u203_41
  4615  003062  EF35  F018         	goto	i2u203_40
  4616  003066                     i2u203_41:
  4617  003066  EF55  F018         	goto	i2l4093
  4618  00306A                     i2u203_40:
  4619  00306A                     i2l4087:
  4620                           
  4621                           ;mcc_generated_files/can1.c: 274:     {;mcc_generated_files/can1.c: 275:         C1CONTb
      +                          its.REQOP = requestMode;
  4622  00306A  0101               	movlb	1	; () banked
  4623  00306C  5103               	movf	3,w,b	;volatile
  4624  00306E  1803               	xorwf	i2CAN1_OperationModeSet@requestMode^(0+1280),w,c
  4625  003070  0BF8               	andlw	-8
  4626  003072  1803               	xorwf	i2CAN1_OperationModeSet@requestMode^(0+1280),w,c
  4627  003074  6F03               	movwf	3,b	;volatile
  4628                           
  4629                           ;mcc_generated_files/can1.c: 277:         while (C1CONUbits.OPMOD != requestMode)
  4630  003076  EF48  F018         	goto	i2l4091
  4631  00307A                     i2l296:
  4632                           
  4633                           ; BSR set to: 1
  4634                           ;mcc_generated_files/can1.c: 278:         {;mcc_generated_files/can1.c: 280:            
      +                           if (1 == C1INTHbits.SERRIF)
  4635  00307A  A91D               	btfss	29,4,b	;volatile
  4636  00307C  EF42  F018         	goto	i2u204_41
  4637  003080  EF44  F018         	goto	i2u204_40
  4638  003084                     i2u204_41:
  4639  003084  EF48  F018         	goto	i2l4091
  4640  003088                     i2u204_40:
  4641  003088                     
  4642                           ; BSR set to: 1
  4643                           ;mcc_generated_files/can1.c: 281:             {;mcc_generated_files/can1.c: 282:        
      +                                   status = CAN_OP_MODE_SYS_ERROR_OCCURED;
  4644  003088  0E02               	movlw	2
  4645  00308A  6E02               	movwf	i2CAN1_OperationModeSet@status^(0+1280),c
  4646                           
  4647                           ;mcc_generated_files/can1.c: 283:                 break;
  4648  00308C  EF57  F018         	goto	i2l299
  4649  003090                     i2l4091:
  4650                           
  4651                           ; BSR set to: 1
  4652                           ;mcc_generated_files/can1.c: 277:         while (C1CONUbits.OPMOD != requestMode)
  4653  003090  3902               	swapf	2,w,b	;volatile
  4654  003092  32E8               	rrcf	wreg,f,c
  4655  003094  0B07               	andlw	7
  4656  003096  1803               	xorwf	i2CAN1_OperationModeSet@requestMode^(0+1280),w,c
  4657  003098  A4D8               	btfss	status,2,c
  4658  00309A  EF51  F018         	goto	i2u205_41
  4659  00309E  EF53  F018         	goto	i2u205_40
  4660  0030A2                     i2u205_41:
  4661  0030A2  EF3D  F018         	goto	i2l296
  4662  0030A6                     i2u205_40:
  4663  0030A6  EF57  F018         	goto	i2l299
  4664  0030AA                     i2l4093:
  4665                           
  4666                           ;mcc_generated_files/can1.c: 288:     {;mcc_generated_files/can1.c: 289:         status 
      +                          = CAN_OP_MODE_REQUEST_FAIL;
  4667  0030AA  0E01               	movlw	1
  4668  0030AC  6E02               	movwf	i2CAN1_OperationModeSet@status^(0+1280),c
  4669  0030AE                     i2l299:
  4670                           
  4671                           ;mcc_generated_files/can1.c: 292:     return status;
  4672  0030AE  5002               	movf	i2CAN1_OperationModeSet@status^(0+1280),w,c
  4673  0030B0  0012               	return		;funcret
  4674  0030B2                     __end_ofi2_CAN1_OperationModeSet:
  4675                           	callstack 0
  4676                           
  4677 ;; *************** function _CAN1_TransmitFIFOStatusGet *****************
  4678 ;; Defined at:
  4679 ;;		line 528 in file "mcc_generated_files/can1.c"
  4680 ;; Parameters:    Size  Location     Type
  4681 ;;  fifoChannel     1    wreg     const enum E22383
  4682 ;; Auto vars:     Size  Location     Type
  4683 ;;  fifoChannel     1    3[COMRAM] const enum E22383
  4684 ;;  status          1    2[COMRAM] enum E22361
  4685 ;; Return value:  Size  Location     Type
  4686 ;;                  1    wreg      enum E22361
  4687 ;; Registers used:
  4688 ;;		wreg, fsr2l, fsr2h, status,2, status,0, prodl, prodh, cstack
  4689 ;; Tracked objects:
  4690 ;;		On entry : 0/0
  4691 ;;		On exit  : 0/0
  4692 ;;		Unchanged: 0/0
  4693 ;; Data sizes:     COMRAM   BANK5   BANK6   BANK7   BANK8   BANK9  BANK10  BANK11  BANK12  BANK13  BANK14  BANK15  BANK1
      +6  BANK17  BANK18  BANK19  BANK20  BANK21  BANK22  BANK23  BANK24  BANK25  BANK26  BANK27  BANK28  BANK29  BANK30  BANK3
      +1  BANK32  BANK33  BANK34  BANK35  BANK36  BANK37
  4694 ;;      Params:         0       0       0       0       0       0       0       0       0       0       0       0       
      +0       0       0       0       0       0       0       0       0       0       0       0       0       0       0       
      +0       0       0       0       0       0       0
  4695 ;;      Locals:         2       0       0       0       0       0       0       0       0       0       0       0       
      +0       0       0       0       0       0       0       0       0       0       0       0       0       0       0       
      +0       0       0       0       0       0       0
  4696 ;;      Temps:          0       0       0       0       0       0       0       0       0       0       0       0       
      +0       0       0       0       0       0       0       0       0       0       0       0       0       0       0       
      +0       0       0       0       0       0       0
  4697 ;;      Totals:         2       0       0       0       0       0       0       0       0       0       0       0       
      +0       0       0       0       0       0       0       0       0       0       0       0       0       0       0       
      +0       0       0       0       0       0       0
  4698 ;;Total ram usage:        2 bytes
  4699 ;; Hardware stack levels used:    1
  4700 ;; Hardware stack levels required when called:    1
  4701 ;; This function calls:
  4702 ;;		_GetTxFifoStatus
  4703 ;;		_isTxChannel
  4704 ;; This function is called by:
  4705 ;;		_CANWriteMessage
  4706 ;; This function uses a non-reentrant model
  4707 ;;
  4708                           
  4709                           	psect	text47
  4710  00368A                     __ptext47:
  4711                           	callstack 0
  4712  00368A                     _CAN1_TransmitFIFOStatusGet:
  4713                           	callstack 117
  4714                           
  4715                           ;incstack = 0
  4716                           ;CAN1_TransmitFIFOStatusGet@fifoChannel stored from wreg
  4717  00368A  6E04               	movwf	CAN1_TransmitFIFOStatusGet@fifoChannel^(0+1280),c
  4718  00368C                     
  4719                           ;mcc_generated_files/can1.c: 528: CAN_TX_FIFO_STATUS CAN1_TransmitFIFOStatusGet(const CA
      +                          N1_TX_FIFO_CHANNELS fifoChannel);mcc_generated_files/can1.c: 529: {;mcc_generated_files/
      +                          can1.c: 530:     CAN_TX_FIFO_STATUS status = CAN_TX_FIFO_FULL;
  4720  00368C  0E00               	movlw	0
  4721  00368E  6E03               	movwf	CAN1_TransmitFIFOStatusGet@status^(0+1280),c
  4722  003690                     
  4723                           ;mcc_generated_files/can1.c: 532:     if (isTxChannel(fifoChannel))
  4724  003690  5004               	movf	CAN1_TransmitFIFOStatusGet@fifoChannel^(0+1280),w,c
  4725  003692  ECFC  F019         	call	_isTxChannel
  4726  003696  0900               	iorlw	0
  4727  003698  B4D8               	btfsc	status,2,c
  4728  00369A  EF51  F01B         	goto	i2u200_41
  4729  00369E  EF53  F01B         	goto	i2u200_40
  4730  0036A2                     i2u200_41:
  4731  0036A2  EF57  F01B         	goto	i2l4073
  4732  0036A6                     i2u200_40:
  4733  0036A6                     
  4734                           ;mcc_generated_files/can1.c: 533:     {;mcc_generated_files/can1.c: 534:         status 
      +                          = GetTxFifoStatus(fifoChannel);
  4735  0036A6  5004               	movf	CAN1_TransmitFIFOStatusGet@fifoChannel^(0+1280),w,c
  4736  0036A8  EC88  F01B         	call	_GetTxFifoStatus
  4737  0036AC  6E03               	movwf	CAN1_TransmitFIFOStatusGet@status^(0+1280),c
  4738  0036AE                     i2l4073:
  4739                           
  4740                           ;mcc_generated_files/can1.c: 537:     return status;
  4741  0036AE  5003               	movf	CAN1_TransmitFIFOStatusGet@status^(0+1280),w,c
  4742  0036B0  0012               	return		;funcret
  4743  0036B2                     __end_of_CAN1_TransmitFIFOStatusGet:
  4744                           	callstack 0
  4745                           
  4746 ;; *************** function _CAN1_Transmit *****************
  4747 ;; Defined at:
  4748 ;;		line 506 in file "mcc_generated_files/can1.c"
  4749 ;; Parameters:    Size  Location     Type
  4750 ;;  fifoChannel     1    wreg     const enum E22383
  4751 ;;  txCanMsg        2   23[COMRAM] PTR struct .
  4752 ;;		 -> msg(7), 
  4753 ;; Auto vars:     Size  Location     Type
  4754 ;;  fifoChannel     1   28[COMRAM] const enum E22383
  4755 ;;  txFifoObj       2   26[COMRAM] PTR unsigned char 
  4756 ;;		 -> RAM(9727), 
  4757 ;;  status          1   25[COMRAM] enum E22340
  4758 ;; Return value:  Size  Location     Type
  4759 ;;                  1    wreg      enum E22340
  4760 ;; Registers used:
  4761 ;;		wreg, fsr1l, fsr1h, fsr2l, fsr2h, status,2, status,0, tblptrl, tblptrh, tblptru, prodl, prodh, cstack
  4762 ;; Tracked objects:
  4763 ;;		On entry : 0/0
  4764 ;;		On exit  : 0/0
  4765 ;;		Unchanged: 0/0
  4766 ;; Data sizes:     COMRAM   BANK5   BANK6   BANK7   BANK8   BANK9  BANK10  BANK11  BANK12  BANK13  BANK14  BANK15  BANK1
      +6  BANK17  BANK18  BANK19  BANK20  BANK21  BANK22  BANK23  BANK24  BANK25  BANK26  BANK27  BANK28  BANK29  BANK30  BANK3
      +1  BANK32  BANK33  BANK34  BANK35  BANK36  BANK37
  4767 ;;      Params:         2       0       0       0       0       0       0       0       0       0       0       0       
      +0       0       0       0       0       0       0       0       0       0       0       0       0       0       0       
      +0       0       0       0       0       0       0
  4768 ;;      Locals:         4       0       0       0       0       0       0       0       0       0       0       0       
      +0       0       0       0       0       0       0       0       0       0       0       0       0       0       0       
      +0       0       0       0       0       0       0
  4769 ;;      Temps:          0       0       0       0       0       0       0       0       0       0       0       0       
      +0       0       0       0       0       0       0       0       0       0       0       0       0       0       0       
      +0       0       0       0       0       0       0
  4770 ;;      Totals:         6       0       0       0       0       0       0       0       0       0       0       0       
      +0       0       0       0       0       0       0       0       0       0       0       0       0       0       0       
      +0       0       0       0       0       0       0
  4771 ;;Total ram usage:        6 bytes
  4772 ;; Hardware stack levels used:    1
  4773 ;; Hardware stack levels required when called:    2
  4774 ;; This function calls:
  4775 ;;		_ValidateTransmission
  4776 ;;		_WriteMessageToFifo
  4777 ;;		_isTxChannel
  4778 ;; This function is called by:
  4779 ;;		_CANWriteMessage
  4780 ;; This function uses a non-reentrant model
  4781 ;;
  4782                           
  4783                           	psect	text48
  4784  002F96                     __ptext48:
  4785                           	callstack 0
  4786  002F96                     _CAN1_Transmit:
  4787                           	callstack 116
  4788                           
  4789                           ;incstack = 0
  4790                           ;CAN1_Transmit@fifoChannel stored from wreg
  4791  002F96  6E1D               	movwf	CAN1_Transmit@fifoChannel^(0+1280),c
  4792  002F98                     
  4793                           ;mcc_generated_files/can1.c: 510:     if (isTxChannel(fifoChannel))
  4794  002F98  501D               	movf	CAN1_Transmit@fifoChannel^(0+1280),w,c
  4795  002F9A  ECFC  F019         	call	_isTxChannel
  4796  002F9E  0900               	iorlw	0
  4797  002FA0  B4D8               	btfsc	status,2,c
  4798  002FA2  EFD5  F017         	goto	i2u197_41
  4799  002FA6  EFD7  F017         	goto	i2u197_40
  4800  002FAA                     i2u197_41:
  4801  002FAA  EF14  F018         	goto	i2l363
  4802  002FAE                     i2u197_40:
  4803  002FAE                     
  4804                           ;mcc_generated_files/can1.c: 511:     {;mcc_generated_files/can1.c: 512:         status 
      +                          = ValidateTransmission(fifoChannel, txCanMsg);
  4805  002FAE  C518  F502         	movff	CAN1_Transmit@txCanMsg,ValidateTransmission@txCanMsg
  4806  002FB2  C519  F503         	movff	CAN1_Transmit@txCanMsg+1,ValidateTransmission@txCanMsg+1
  4807  002FB6  501D               	movf	CAN1_Transmit@fifoChannel^(0+1280),w,c
  4808  002FB8  EC0B  F016         	call	_ValidateTransmission
  4809  002FBC  6E1A               	movwf	CAN1_Transmit@status^(0+1280),c
  4810  002FBE                     
  4811                           ;mcc_generated_files/can1.c: 513:         if (CAN_TX_MSG_REQUEST_SUCCESS == status)
  4812  002FBE  501A               	movf	CAN1_Transmit@status^(0+1280),w,c
  4813  002FC0  A4D8               	btfss	status,2,c
  4814  002FC2  EFE5  F017         	goto	i2u198_41
  4815  002FC6  EFE7  F017         	goto	i2u198_40
  4816  002FCA                     i2u198_41:
  4817  002FCA  EF14  F018         	goto	i2l363
  4818  002FCE                     i2u198_40:
  4819  002FCE                     
  4820                           ;mcc_generated_files/can1.c: 514:         {;mcc_generated_files/can1.c: 515:            
      +                           uint8_t *txFifoObj = (uint8_t *) FIFO[fifoChannel].UA;
  4821  002FCE  501D               	movf	CAN1_Transmit@fifoChannel^(0+1280),w,c
  4822  002FD0  0D0C               	mullw	12
  4823  002FD2  0E58               	movlw	88
  4824  002FD4  24F3               	addwf	243,w,c
  4825  002FD6  6ED9               	movwf	fsr2l,c
  4826  002FD8  0E01               	movlw	1
  4827  002FDA  20F4               	addwfc	prodh,w,c
  4828  002FDC  6EDA               	movwf	fsr2h,c
  4829  002FDE  0061 F378  F51B    	movff	postinc2,CAN1_Transmit@txFifoObj
  4830  002FE4  0061 F374  F51C    	movff	postdec2,CAN1_Transmit@txFifoObj+1
  4831  002FEA                     
  4832                           ;mcc_generated_files/can1.c: 517:             if (txFifoObj != ((void*)0))
  4833  002FEA  501B               	movf	CAN1_Transmit@txFifoObj^(0+1280),w,c
  4834  002FEC  101C               	iorwf	(CAN1_Transmit@txFifoObj+1)^(0+1280),w,c
  4835  002FEE  B4D8               	btfsc	status,2,c
  4836  002FF0  EFFC  F017         	goto	i2u199_41
  4837  002FF4  EFFE  F017         	goto	i2u199_40
  4838  002FF8                     i2u199_41:
  4839  002FF8  EF14  F018         	goto	i2l360
  4840  002FFC                     i2u199_40:
  4841  002FFC                     
  4842                           ;mcc_generated_files/can1.c: 518:             {;mcc_generated_files/can1.c: 519:        
      +                                   WriteMessageToFifo(txFifoObj, txCanMsg);
  4843  002FFC  C51B  F50C         	movff	CAN1_Transmit@txFifoObj,WriteMessageToFifo@txFifoObj
  4844  003000  C51C  F50D         	movff	CAN1_Transmit@txFifoObj+1,WriteMessageToFifo@txFifoObj+1
  4845  003004  C518  F50E         	movff	CAN1_Transmit@txCanMsg,WriteMessageToFifo@txCanMsg
  4846  003008  C519  F50F         	movff	CAN1_Transmit@txCanMsg+1,WriteMessageToFifo@txCanMsg+1
  4847  00300C  EC1A  F013         	call	_WriteMessageToFifo	;wreg free
  4848  003010                     
  4849                           ;mcc_generated_files/can1.c: 520:                 FIFO[fifoChannel].CONH |= (0x2 | 0x1);
  4850  003010  501D               	movf	CAN1_Transmit@fifoChannel^(0+1280),w,c
  4851  003012  0D0C               	mullw	12
  4852  003014  0E51               	movlw	81
  4853  003016  24F3               	addwf	243,w,c
  4854  003018  6ED9               	movwf	fsr2l,c
  4855  00301A  0E01               	movlw	1
  4856  00301C  20F4               	addwfc	prodh,w,c
  4857  00301E  6EDA               	movwf	fsr2h,c
  4858  003020  0E03               	movlw	3
  4859  003022  12DF               	iorwf	indf2,f,c
  4860  003024  EF14  F018         	goto	i2l363
  4861  003028                     i2l360:
  4862  003028                     i2l363:
  4863  003028  0012               	return		;funcret
  4864  00302A                     __end_of_CAN1_Transmit:
  4865                           	callstack 0
  4866                           
  4867 ;; *************** function _isTxChannel *****************
  4868 ;; Defined at:
  4869 ;;		line 426 in file "mcc_generated_files/can1.c"
  4870 ;; Parameters:    Size  Location     Type
  4871 ;;  channel         1    wreg     unsigned char 
  4872 ;; Auto vars:     Size  Location     Type
  4873 ;;  channel         1    1[COMRAM] unsigned char 
  4874 ;; Return value:  Size  Location     Type
  4875 ;;                  1    wreg      _Bool 
  4876 ;; Registers used:
  4877 ;;		wreg, fsr2l, fsr2h, status,2, status,0, prodl, prodh
  4878 ;; Tracked objects:
  4879 ;;		On entry : 0/0
  4880 ;;		On exit  : 0/0
  4881 ;;		Unchanged: 0/0
  4882 ;; Data sizes:     COMRAM   BANK5   BANK6   BANK7   BANK8   BANK9  BANK10  BANK11  BANK12  BANK13  BANK14  BANK15  BANK1
      +6  BANK17  BANK18  BANK19  BANK20  BANK21  BANK22  BANK23  BANK24  BANK25  BANK26  BANK27  BANK28  BANK29  BANK30  BANK3
      +1  BANK32  BANK33  BANK34  BANK35  BANK36  BANK37
  4883 ;;      Params:         0       0       0       0       0       0       0       0       0       0       0       0       
      +0       0       0       0       0       0       0       0       0       0       0       0       0       0       0       
      +0       0       0       0       0       0       0
  4884 ;;      Locals:         2       0       0       0       0       0       0       0       0       0       0       0       
      +0       0       0       0       0       0       0       0       0       0       0       0       0       0       0       
      +0       0       0       0       0       0       0
  4885 ;;      Temps:          0       0       0       0       0       0       0       0       0       0       0       0       
      +0       0       0       0       0       0       0       0       0       0       0       0       0       0       0       
      +0       0       0       0       0       0       0
  4886 ;;      Totals:         2       0       0       0       0       0       0       0       0       0       0       0       
      +0       0       0       0       0       0       0       0       0       0       0       0       0       0       0       
      +0       0       0       0       0       0       0
  4887 ;;Total ram usage:        2 bytes
  4888 ;; Hardware stack levels used:    1
  4889 ;; This function calls:
  4890 ;;		Nothing
  4891 ;; This function is called by:
  4892 ;;		_CAN1_Transmit
  4893 ;;		_CAN1_TransmitFIFOStatusGet
  4894 ;; This function uses a non-reentrant model
  4895 ;;
  4896                           
  4897                           	psect	text49
  4898  0033F8                     __ptext49:
  4899                           	callstack 0
  4900  0033F8                     _isTxChannel:
  4901                           	callstack 117
  4902                           
  4903                           ;incstack = 0
  4904                           ;isTxChannel@channel stored from wreg
  4905  0033F8  6E02               	movwf	isTxChannel@channel^(0+1280),c
  4906  0033FA                     
  4907                           ;mcc_generated_files/can1.c: 426: static _Bool isTxChannel(uint8_t channel);mcc_generate
      +                          d_files/can1.c: 427: {;mcc_generated_files/can1.c: 428:     return channel < 4u && (FIFO
      +                          [channel].CONL & 0x80);
  4908  0033FA  0E00               	movlw	0
  4909  0033FC  6E01               	movwf	_isTxChannel$908^(0+1280),c
  4910  0033FE  0E04               	movlw	4
  4911  003400  6002               	cpfslt	isTxChannel@channel^(0+1280),c
  4912  003402  EF05  F01A         	goto	i2u177_41
  4913  003406  EF07  F01A         	goto	i2u177_40
  4914  00340A                     i2u177_41:
  4915  00340A  EF19  F01A         	goto	i2l338
  4916  00340E                     i2u177_40:
  4917  00340E  5002               	movf	isTxChannel@channel^(0+1280),w,c
  4918  003410  0D0C               	mullw	12
  4919  003412  0E50               	movlw	80
  4920  003414  24F3               	addwf	243,w,c
  4921  003416  6ED9               	movwf	fsr2l,c
  4922  003418  0E01               	movlw	1
  4923  00341A  20F4               	addwfc	prodh,w,c
  4924  00341C  6EDA               	movwf	fsr2h,c
  4925  00341E  0101               	movlb	1	; () banked
  4926  003420  AEDF               	btfss	indf2,7,c
  4927  003422  EF15  F01A         	goto	i2u178_41
  4928  003426  EF17  F01A         	goto	i2u178_40
  4929  00342A                     i2u178_41:
  4930  00342A  EF19  F01A         	goto	i2l338
  4931  00342E                     i2u178_40:
  4932  00342E                     
  4933                           ; BSR set to: 1
  4934  00342E  0E01               	movlw	1
  4935  003430  6E01               	movwf	_isTxChannel$908^(0+1280),c
  4936  003432                     i2l338:
  4937  003432  5001               	movf	_isTxChannel$908^(0+1280),w,c
  4938  003434  0012               	return		;funcret
  4939  003436                     __end_of_isTxChannel:
  4940                           	callstack 0
  4941                           
  4942 ;; *************** function _WriteMessageToFifo *****************
  4943 ;; Defined at:
  4944 ;;		line 436 in file "mcc_generated_files/can1.c"
  4945 ;; Parameters:    Size  Location     Type
  4946 ;;  txFifoObj       2   11[COMRAM] PTR unsigned char 
  4947 ;;		 -> RAM(9727), 
  4948 ;;  txCanMsg        2   13[COMRAM] PTR struct .
  4949 ;;		 -> msg(7), 
  4950 ;; Auto vars:     Size  Location     Type
  4951 ;;  msgId           4   19[COMRAM] unsigned long 
  4952 ;;  status          1   18[COMRAM] unsigned char 
  4953 ;;  payloadOffse    1    0        const unsigned char 
  4954 ;; Return value:  Size  Location     Type
  4955 ;;                  1    wreg      void 
  4956 ;; Registers used:
  4957 ;;		wreg, fsr1l, fsr1h, fsr2l, fsr2h, status,2, status,0, tblptrl, tblptrh, tblptru, cstack
  4958 ;; Tracked objects:
  4959 ;;		On entry : 0/0
  4960 ;;		On exit  : 0/0
  4961 ;;		Unchanged: 0/0
  4962 ;; Data sizes:     COMRAM   BANK5   BANK6   BANK7   BANK8   BANK9  BANK10  BANK11  BANK12  BANK13  BANK14  BANK15  BANK1
      +6  BANK17  BANK18  BANK19  BANK20  BANK21  BANK22  BANK23  BANK24  BANK25  BANK26  BANK27  BANK28  BANK29  BANK30  BANK3
      +1  BANK32  BANK33  BANK34  BANK35  BANK36  BANK37
  4963 ;;      Params:         4       0       0       0       0       0       0       0       0       0       0       0       
      +0       0       0       0       0       0       0       0       0       0       0       0       0       0       0       
      +0       0       0       0       0       0       0
  4964 ;;      Locals:         6       0       0       0       0       0       0       0       0       0       0       0       
      +0       0       0       0       0       0       0       0       0       0       0       0       0       0       0       
      +0       0       0       0       0       0       0
  4965 ;;      Temps:          2       0       0       0       0       0       0       0       0       0       0       0       
      +0       0       0       0       0       0       0       0       0       0       0       0       0       0       0       
      +0       0       0       0       0       0       0
  4966 ;;      Totals:        12       0       0       0       0       0       0       0       0       0       0       0       
      +0       0       0       0       0       0       0       0       0       0       0       0       0       0       0       
      +0       0       0       0       0       0       0
  4967 ;;Total ram usage:       12 bytes
  4968 ;; Hardware stack levels used:    1
  4969 ;; Hardware stack levels required when called:    1
  4970 ;; This function calls:
  4971 ;;		_memcpy
  4972 ;; This function is called by:
  4973 ;;		_CAN1_Transmit
  4974 ;; This function uses a non-reentrant model
  4975 ;;
  4976                           
  4977                           	psect	text50
  4978  002634                     __ptext50:
  4979                           	callstack 0
  4980  002634                     _WriteMessageToFifo:
  4981                           	callstack 116
  4982  002634                     
  4983                           ;mcc_generated_files/can1.c: 436: static void WriteMessageToFifo(uint8_t *txFifoObj, CAN
      +                          _MSG_OBJ *txCanMsg);mcc_generated_files/can1.c: 437: {;mcc_generated_files/can1.c: 438: 
      +                              uint32_t msgId = txCanMsg->msgId;
  4984  002634  0061  F438  F4D9   	movff	WriteMessageToFifo@txCanMsg,fsr2l
  4985  00263A  0061  F43C  F4DA   	movff	WriteMessageToFifo@txCanMsg+1,fsr2h
  4986  002640  0061 F378  F514    	movff	postinc2,WriteMessageToFifo@msgId
  4987  002646  0061 F378  F515    	movff	postinc2,WriteMessageToFifo@msgId+1
  4988  00264C  0061 F378  F516    	movff	postinc2,WriteMessageToFifo@msgId+2
  4989  002652  0061 F378  F517    	movff	postinc2,WriteMessageToFifo@msgId+3
  4990  002658                     
  4991                           ;mcc_generated_files/can1.c: 446:     if (CAN_FRAME_EXT == txCanMsg->field.idType)
  4992  002658  EE20 F004          	lfsr	2,4
  4993  00265C  500E               	movf	WriteMessageToFifo@txCanMsg^(0+1280),w,c
  4994  00265E  26D9               	addwf	fsr2l,f,c
  4995  002660  500F               	movf	(WriteMessageToFifo@txCanMsg+1)^(0+1280),w,c
  4996  002662  22DA               	addwfc	fsr2h,f,c
  4997  002664  A0DF               	btfss	indf2,0,c
  4998  002666  EF37  F013         	goto	i2u179_41
  4999  00266A  EF39  F013         	goto	i2u179_40
  5000  00266E                     i2u179_41:
  5001  00266E  EF73  F013         	goto	i2l3935
  5002  002672                     i2u179_40:
  5003  002672                     
  5004                           ;mcc_generated_files/can1.c: 447:     {;mcc_generated_files/can1.c: 448:         txFifoO
      +                          bj[1] = (msgId << (3U)) & (0xF8U);
  5005  002672  EE20 F001          	lfsr	2,1
  5006  002676  500C               	movf	WriteMessageToFifo@txFifoObj^(0+1280),w,c
  5007  002678  26D9               	addwf	fsr2l,f,c
  5008  00267A  500D               	movf	(WriteMessageToFifo@txFifoObj+1)^(0+1280),w,c
  5009  00267C  22DA               	addwfc	fsr2h,f,c
  5010  00267E  3814               	swapf	WriteMessageToFifo@msgId^(0+1280),w,c
  5011  002680  42E8               	rrncf	wreg,f,c
  5012  002682  0BF8               	andlw	248
  5013  002684  0BF8               	andlw	248
  5014  002686  6EDF               	movwf	indf2,c
  5015  002688                     
  5016                           ;mcc_generated_files/can1.c: 449:         msgId >>= (5U);
  5017  002688  0E05               	movlw	5
  5018  00268A  6E10               	movwf	??_WriteMessageToFifo^(0+1280),c
  5019  00268C                     i2u180_45:
  5020  00268C  90D8               	bcf	status,0,c
  5021  00268E  3217               	rrcf	(WriteMessageToFifo@msgId+3)^(0+1280),f,c
  5022  002690  3216               	rrcf	(WriteMessageToFifo@msgId+2)^(0+1280),f,c
  5023  002692  3215               	rrcf	(WriteMessageToFifo@msgId+1)^(0+1280),f,c
  5024  002694  3214               	rrcf	WriteMessageToFifo@msgId^(0+1280),f,c
  5025  002696  2E10               	decfsz	??_WriteMessageToFifo^(0+1280),f,c
  5026  002698  EF46  F013         	goto	i2u180_45
  5027  00269C                     
  5028                           ;mcc_generated_files/can1.c: 450:         txFifoObj[2] = msgId;
  5029  00269C  EE20 F002          	lfsr	2,2
  5030  0026A0  500C               	movf	WriteMessageToFifo@txFifoObj^(0+1280),w,c
  5031  0026A2  26D9               	addwf	fsr2l,f,c
  5032  0026A4  500D               	movf	(WriteMessageToFifo@txFifoObj+1)^(0+1280),w,c
  5033  0026A6  22DA               	addwfc	fsr2h,f,c
  5034  0026A8  0061  F450  F4DF   	movff	WriteMessageToFifo@msgId,indf2
  5035  0026AE                     
  5036                           ;mcc_generated_files/can1.c: 451:         msgId >>= (8U);
  5037  0026AE  C515  F514         	movff	WriteMessageToFifo@msgId+1,WriteMessageToFifo@msgId
  5038  0026B2  C516  F515         	movff	WriteMessageToFifo@msgId+2,WriteMessageToFifo@msgId+1
  5039  0026B6  C517  F516         	movff	WriteMessageToFifo@msgId+3,WriteMessageToFifo@msgId+2
  5040  0026BA  6A17               	clrf	(WriteMessageToFifo@msgId+3)^(0+1280),c
  5041  0026BC                     
  5042                           ;mcc_generated_files/can1.c: 452:         txFifoObj[3] = (msgId & (0x1FU));
  5043  0026BC  EE20 F003          	lfsr	2,3
  5044  0026C0  500C               	movf	WriteMessageToFifo@txFifoObj^(0+1280),w,c
  5045  0026C2  26D9               	addwf	fsr2l,f,c
  5046  0026C4  500D               	movf	(WriteMessageToFifo@txFifoObj+1)^(0+1280),w,c
  5047  0026C6  22DA               	addwfc	fsr2h,f,c
  5048  0026C8  5014               	movf	WriteMessageToFifo@msgId^(0+1280),w,c
  5049  0026CA  0B1F               	andlw	31
  5050  0026CC  6EDF               	movwf	indf2,c
  5051  0026CE                     
  5052                           ;mcc_generated_files/can1.c: 453:         msgId >>= (5U);
  5053  0026CE  0E05               	movlw	5
  5054  0026D0  6E10               	movwf	??_WriteMessageToFifo^(0+1280),c
  5055  0026D2                     i2u181_45:
  5056  0026D2  90D8               	bcf	status,0,c
  5057  0026D4  3217               	rrcf	(WriteMessageToFifo@msgId+3)^(0+1280),f,c
  5058  0026D6  3216               	rrcf	(WriteMessageToFifo@msgId+2)^(0+1280),f,c
  5059  0026D8  3215               	rrcf	(WriteMessageToFifo@msgId+1)^(0+1280),f,c
  5060  0026DA  3214               	rrcf	WriteMessageToFifo@msgId^(0+1280),f,c
  5061  0026DC  2E10               	decfsz	??_WriteMessageToFifo^(0+1280),f,c
  5062  0026DE  EF69  F013         	goto	i2u181_45
  5063                           
  5064                           ;mcc_generated_files/can1.c: 454:     }
  5065  0026E2  EF8B  F013         	goto	i2l3937
  5066  0026E6                     i2l3935:
  5067                           
  5068                           ;mcc_generated_files/can1.c: 456:     {;mcc_generated_files/can1.c: 457:         txFifoO
      +                          bj[1] = txFifoObj[2] = txFifoObj[3] = 0;
  5069  0026E6  EE20 F003          	lfsr	2,3
  5070  0026EA  500C               	movf	WriteMessageToFifo@txFifoObj^(0+1280),w,c
  5071  0026EC  26D9               	addwf	fsr2l,f,c
  5072  0026EE  500D               	movf	(WriteMessageToFifo@txFifoObj+1)^(0+1280),w,c
  5073  0026F0  22DA               	addwfc	fsr2h,f,c
  5074  0026F2  0E00               	movlw	0
  5075  0026F4  6EDF               	movwf	indf2,c
  5076  0026F6  EE10 F002          	lfsr	1,2
  5077  0026FA  500C               	movf	WriteMessageToFifo@txFifoObj^(0+1280),w,c
  5078  0026FC  26E1               	addwf	fsr1l,f,c
  5079  0026FE  500D               	movf	(WriteMessageToFifo@txFifoObj+1)^(0+1280),w,c
  5080  002700  22E2               	addwfc	fsr1h,f,c
  5081  002702  C4DF F4E7          	movff	indf2,indf1
  5082  002706  EE20 F001          	lfsr	2,1
  5083  00270A  500C               	movf	WriteMessageToFifo@txFifoObj^(0+1280),w,c
  5084  00270C  26D9               	addwf	fsr2l,f,c
  5085  00270E  500D               	movf	(WriteMessageToFifo@txFifoObj+1)^(0+1280),w,c
  5086  002710  22DA               	addwfc	fsr2h,f,c
  5087  002712  C4E7 F4DF          	movff	indf1,indf2
  5088  002716                     i2l3937:
  5089                           
  5090                           ;mcc_generated_files/can1.c: 460:     txFifoObj[0] = msgId;
  5091  002716  0061  F430  F4D9   	movff	WriteMessageToFifo@txFifoObj,fsr2l
  5092  00271C  0061  F434  F4DA   	movff	WriteMessageToFifo@txFifoObj+1,fsr2h
  5093  002722  0061  F450  F4DF   	movff	WriteMessageToFifo@msgId,indf2
  5094  002728                     
  5095                           ;mcc_generated_files/can1.c: 461:     msgId >>= (8U);
  5096  002728  C515  F514         	movff	WriteMessageToFifo@msgId+1,WriteMessageToFifo@msgId
  5097  00272C  C516  F515         	movff	WriteMessageToFifo@msgId+2,WriteMessageToFifo@msgId+1
  5098  002730  C517  F516         	movff	WriteMessageToFifo@msgId+3,WriteMessageToFifo@msgId+2
  5099  002734  6A17               	clrf	(WriteMessageToFifo@msgId+3)^(0+1280),c
  5100  002736                     
  5101                           ;mcc_generated_files/can1.c: 462:     txFifoObj[1] |= (msgId & (0x07U));
  5102  002736  C514  F510         	movff	WriteMessageToFifo@msgId,??_WriteMessageToFifo
  5103  00273A  0E07               	movlw	7
  5104  00273C  1610               	andwf	??_WriteMessageToFifo^(0+1280),f,c
  5105  00273E  EE20 F001          	lfsr	2,1
  5106  002742  500C               	movf	WriteMessageToFifo@txFifoObj^(0+1280),w,c
  5107  002744  26D9               	addwf	fsr2l,f,c
  5108  002746  500D               	movf	(WriteMessageToFifo@txFifoObj+1)^(0+1280),w,c
  5109  002748  22DA               	addwfc	fsr2h,f,c
  5110  00274A  5010               	movf	??_WriteMessageToFifo^(0+1280),w,c
  5111  00274C  12DF               	iorwf	indf2,f,c
  5112  00274E                     
  5113                           ;mcc_generated_files/can1.c: 464:     status = txCanMsg->field.dlc;
  5114  00274E  EE20 F004          	lfsr	2,4
  5115  002752  500E               	movf	WriteMessageToFifo@txCanMsg^(0+1280),w,c
  5116  002754  26D9               	addwf	fsr2l,f,c
  5117  002756  500F               	movf	(WriteMessageToFifo@txCanMsg+1)^(0+1280),w,c
  5118  002758  22DA               	addwfc	fsr2h,f,c
  5119  00275A  30DF               	rrcf	479,w,c
  5120  00275C  32E8               	rrcf	wreg,f,c
  5121  00275E  0B0F               	andlw	15
  5122  002760  6E13               	movwf	WriteMessageToFifo@status^(0+1280),c
  5123  002762                     
  5124                           ;mcc_generated_files/can1.c: 465:     status |= (txCanMsg->field.idType << (4U));
  5125  002762  EE20 F004          	lfsr	2,4
  5126  002766  500E               	movf	WriteMessageToFifo@txCanMsg^(0+1280),w,c
  5127  002768  26D9               	addwf	fsr2l,f,c
  5128  00276A  500F               	movf	(WriteMessageToFifo@txCanMsg+1)^(0+1280),w,c
  5129  00276C  22DA               	addwfc	fsr2h,f,c
  5130  00276E  B0DF               	btfsc	indf2,0,c
  5131  002770  EFBC  F013         	goto	i2u182_41
  5132  002774  EFC0  F013         	goto	i2u182_40
  5133  002778                     i2u182_41:
  5134  002778  6A10               	clrf	??_WriteMessageToFifo^(0+1280),c
  5135  00277A  2A10               	incf	??_WriteMessageToFifo^(0+1280),f,c
  5136  00277C  EFC1  F013         	goto	i2u182_48
  5137  002780                     i2u182_40:
  5138  002780  6A10               	clrf	??_WriteMessageToFifo^(0+1280),c
  5139  002782                     i2u182_48:
  5140  002782  3810               	swapf	??_WriteMessageToFifo^(0+1280),w,c
  5141  002784  0BF0               	andlw	240
  5142  002786  1213               	iorwf	WriteMessageToFifo@status^(0+1280),f,c
  5143  002788                     
  5144                           ;mcc_generated_files/can1.c: 466:     status |= (txCanMsg->field.frameType << (5U));
  5145  002788  EE20 F004          	lfsr	2,4
  5146  00278C  500E               	movf	WriteMessageToFifo@txCanMsg^(0+1280),w,c
  5147  00278E  26D9               	addwf	fsr2l,f,c
  5148  002790  500F               	movf	(WriteMessageToFifo@txCanMsg+1)^(0+1280),w,c
  5149  002792  22DA               	addwfc	fsr2h,f,c
  5150  002794  B2DF               	btfsc	indf2,1,c
  5151  002796  EFCF  F013         	goto	i2u183_41
  5152  00279A  EFD3  F013         	goto	i2u183_40
  5153  00279E                     i2u183_41:
  5154  00279E  0E20               	movlw	32
  5155  0027A0  6E10               	movwf	??_WriteMessageToFifo^(0+1280),c
  5156  0027A2  EFD4  F013         	goto	i2u184_45
  5157  0027A6                     i2u183_40:
  5158  0027A6  6A10               	clrf	??_WriteMessageToFifo^(0+1280),c
  5159  0027A8                     i2u184_45:
  5160  0027A8  5010               	movf	??_WriteMessageToFifo^(0+1280),w,c
  5161  0027AA  1213               	iorwf	WriteMessageToFifo@status^(0+1280),f,c
  5162  0027AC                     
  5163                           ;mcc_generated_files/can1.c: 467:     status |= (txCanMsg->field.brs << (6U));
  5164  0027AC  EE20 F004          	lfsr	2,4
  5165  0027B0  500E               	movf	WriteMessageToFifo@txCanMsg^(0+1280),w,c
  5166  0027B2  26D9               	addwf	fsr2l,f,c
  5167  0027B4  500F               	movf	(WriteMessageToFifo@txCanMsg+1)^(0+1280),w,c
  5168  0027B6  22DA               	addwfc	fsr2h,f,c
  5169  0027B8  BEDF               	btfsc	indf2,7,c
  5170  0027BA  EFE1  F013         	goto	i2u185_41
  5171  0027BE  EFE5  F013         	goto	i2u185_40
  5172  0027C2                     i2u185_41:
  5173  0027C2  0E40               	movlw	64
  5174  0027C4  6E10               	movwf	??_WriteMessageToFifo^(0+1280),c
  5175  0027C6  EFE6  F013         	goto	i2u186_45
  5176  0027CA                     i2u185_40:
  5177  0027CA  6A10               	clrf	??_WriteMessageToFifo^(0+1280),c
  5178  0027CC                     i2u186_45:
  5179  0027CC  5010               	movf	??_WriteMessageToFifo^(0+1280),w,c
  5180  0027CE  1213               	iorwf	WriteMessageToFifo@status^(0+1280),f,c
  5181  0027D0                     
  5182                           ;mcc_generated_files/can1.c: 468:     status |= (txCanMsg->field.formatType << (7U));
  5183  0027D0  EE20 F004          	lfsr	2,4
  5184  0027D4  500E               	movf	WriteMessageToFifo@txCanMsg^(0+1280),w,c
  5185  0027D6  26D9               	addwf	fsr2l,f,c
  5186  0027D8  500F               	movf	(WriteMessageToFifo@txCanMsg+1)^(0+1280),w,c
  5187  0027DA  22DA               	addwfc	fsr2h,f,c
  5188  0027DC  BCDF               	btfsc	indf2,6,c
  5189  0027DE  EFF3  F013         	goto	i2u187_41
  5190  0027E2  EFF7  F013         	goto	i2u187_40
  5191  0027E6                     i2u187_41:
  5192  0027E6  0E80               	movlw	128
  5193  0027E8  6E10               	movwf	??_WriteMessageToFifo^(0+1280),c
  5194  0027EA  EFF8  F013         	goto	i2u188_45
  5195  0027EE                     i2u187_40:
  5196  0027EE  6A10               	clrf	??_WriteMessageToFifo^(0+1280),c
  5197  0027F0                     i2u188_45:
  5198  0027F0  5010               	movf	??_WriteMessageToFifo^(0+1280),w,c
  5199  0027F2  1213               	iorwf	WriteMessageToFifo@status^(0+1280),f,c
  5200  0027F4                     
  5201                           ;mcc_generated_files/can1.c: 469:     txFifoObj[4] = status;
  5202  0027F4  EE20 F004          	lfsr	2,4
  5203  0027F8  500C               	movf	WriteMessageToFifo@txFifoObj^(0+1280),w,c
  5204  0027FA  26D9               	addwf	fsr2l,f,c
  5205  0027FC  500D               	movf	(WriteMessageToFifo@txFifoObj+1)^(0+1280),w,c
  5206  0027FE  22DA               	addwfc	fsr2h,f,c
  5207  002800  0061  F44C  F4DF   	movff	WriteMessageToFifo@status,indf2
  5208  002806                     
  5209                           ;mcc_generated_files/can1.c: 471:     if (CAN_FRAME_DATA == txCanMsg->field.frameType)
  5210  002806  EE20 F004          	lfsr	2,4
  5211  00280A  500E               	movf	WriteMessageToFifo@txCanMsg^(0+1280),w,c
  5212  00280C  26D9               	addwf	fsr2l,f,c
  5213  00280E  500F               	movf	(WriteMessageToFifo@txCanMsg+1)^(0+1280),w,c
  5214  002810  22DA               	addwfc	fsr2h,f,c
  5215  002812  B2DF               	btfsc	indf2,1,c
  5216  002814  EF0E  F014         	goto	i2u189_41
  5217  002818  EF10  F014         	goto	i2u189_40
  5218  00281C                     i2u189_41:
  5219  00281C  EF3C  F014         	goto	i2l348
  5220  002820                     i2u189_40:
  5221  002820                     
  5222                           ;mcc_generated_files/can1.c: 472:     {;mcc_generated_files/can1.c: 473:         memcpy(
      +                          txFifoObj + payloadOffsetBytes, txCanMsg->data, (DLC_BYTES[(txCanMsg->field.dlc)]));
  5223  002820  0E08               	movlw	8
  5224  002822  240C               	addwf	WriteMessageToFifo@txFifoObj^(0+1280),w,c
  5225  002824  6E01               	movwf	memcpy@d1^(0+1280),c
  5226  002826  0E00               	movlw	0
  5227  002828  200D               	addwfc	(WriteMessageToFifo@txFifoObj+1)^(0+1280),w,c
  5228  00282A  6E02               	movwf	(memcpy@d1+1)^(0+1280),c
  5229  00282C  EE20 F005          	lfsr	2,5
  5230  002830  500E               	movf	WriteMessageToFifo@txCanMsg^(0+1280),w,c
  5231  002832  26D9               	addwf	fsr2l,f,c
  5232  002834  500F               	movf	(WriteMessageToFifo@txCanMsg+1)^(0+1280),w,c
  5233  002836  22DA               	addwfc	fsr2h,f,c
  5234  002838  0061 F378  F503    	movff	postinc2,memcpy@s1
  5235  00283E  0061 F374  F504    	movff	postdec2,memcpy@s1+1
  5236  002844  EE20 F004          	lfsr	2,4
  5237  002848  500E               	movf	WriteMessageToFifo@txCanMsg^(0+1280),w,c
  5238  00284A  26D9               	addwf	fsr2l,f,c
  5239  00284C  500F               	movf	(WriteMessageToFifo@txCanMsg+1)^(0+1280),w,c
  5240  00284E  22DA               	addwfc	fsr2h,f,c
  5241  002850  30DF               	rrcf	479,w,c
  5242  002852  32E8               	rrcf	wreg,f,c
  5243  002854  0B0F               	andlw	15
  5244  002856  6E10               	movwf	??_WriteMessageToFifo^(0+1280),c
  5245  002858  6A11               	clrf	(??_WriteMessageToFifo+1)^(0+1280),c
  5246  00285A  0E27               	movlw	low _DLC_BYTES
  5247  00285C  2410               	addwf	??_WriteMessageToFifo^(0+1280),w,c
  5248  00285E  6EF6               	movwf	tblptrl,c
  5249  002860  0E26               	movlw	high _DLC_BYTES
  5250  002862  2011               	addwfc	(??_WriteMessageToFifo+1)^(0+1280),w,c
  5251  002864  6EF7               	movwf	tblptrh,c
  5252  002866                     	if	1	;There are 3 active tblptr bytes
  5253  002866  6AF8               	clrf	tblptru,c
  5254  002868  0E00               	movlw	low (__mediumconst shr (0+16))
  5255  00286A  22F8               	addwfc	tblptru,f,c
  5256  00286C                     	endif
  5257  00286C  0008               	tblrd		*
  5258  00286E  50F5               	movf	tablat,w,c
  5259  002870  6E05               	movwf	memcpy@n^(0+1280),c
  5260  002872  6A06               	clrf	(memcpy@n+1)^(0+1280),c
  5261  002874  EC3A  F019         	call	_memcpy	;wreg free
  5262  002878                     i2l348:
  5263  002878  0012               	return		;funcret
  5264  00287A                     __end_of_WriteMessageToFifo:
  5265                           	callstack 0
  5266                           
  5267 ;; *************** function _memcpy *****************
  5268 ;; Defined at:
  5269 ;;		line 4 in file "C:\Program Files\Microchip\xc8\v2.31\pic\sources\c99\common\memcpy.c"
  5270 ;; Parameters:    Size  Location     Type
  5271 ;;  d1              2    0[COMRAM] PTR void 
  5272 ;;		 -> RAM(9727), rxMsgData(8), 
  5273 ;;  s1              2    2[COMRAM] PTR const void 
  5274 ;;		 -> CANDATAdata(32), RAM(9727), rxMsgData(8), 
  5275 ;;  n               2    4[COMRAM] unsigned int 
  5276 ;; Auto vars:     Size  Location     Type
  5277 ;;  s               2    8[COMRAM] PTR const unsigned char 
  5278 ;;		 -> CANDATAdata(32), RAM(9727), rxMsgData(8), 
  5279 ;;  d               2    6[COMRAM] PTR unsigned char 
  5280 ;;		 -> RAM(9727), rxMsgData(8), 
  5281 ;;  tmp             1   10[COMRAM] unsigned char 
  5282 ;; Return value:  Size  Location     Type
  5283 ;;                  2    0[COMRAM] PTR void 
  5284 ;; Registers used:
  5285 ;;		wreg, fsr2l, fsr2h, status,2, status,0
  5286 ;; Tracked objects:
  5287 ;;		On entry : 0/0
  5288 ;;		On exit  : 0/0
  5289 ;;		Unchanged: 0/0
  5290 ;; Data sizes:     COMRAM   BANK5   BANK6   BANK7   BANK8   BANK9  BANK10  BANK11  BANK12  BANK13  BANK14  BANK15  BANK1
      +6  BANK17  BANK18  BANK19  BANK20  BANK21  BANK22  BANK23  BANK24  BANK25  BANK26  BANK27  BANK28  BANK29  BANK30  BANK3
      +1  BANK32  BANK33  BANK34  BANK35  BANK36  BANK37
  5291 ;;      Params:         6       0       0       0       0       0       0       0       0       0       0       0       
      +0       0       0       0       0       0       0       0       0       0       0       0       0       0       0       
      +0       0       0       0       0       0       0
  5292 ;;      Locals:         5       0       0       0       0       0       0       0       0       0       0       0       
      +0       0       0       0       0       0       0       0       0       0       0       0       0       0       0       
      +0       0       0       0       0       0       0
  5293 ;;      Temps:          0       0       0       0       0       0       0       0       0       0       0       0       
      +0       0       0       0       0       0       0       0       0       0       0       0       0       0       0       
      +0       0       0       0       0       0       0
  5294 ;;      Totals:        11       0       0       0       0       0       0       0       0       0       0       0       
      +0       0       0       0       0       0       0       0       0       0       0       0       0       0       0       
      +0       0       0       0       0       0       0
  5295 ;;Total ram usage:       11 bytes
  5296 ;; Hardware stack levels used:    1
  5297 ;; This function calls:
  5298 ;;		Nothing
  5299 ;; This function is called by:
  5300 ;;		_WriteMessageToFifo
  5301 ;;		_ReadMessageFromFifo
  5302 ;; This function uses a non-reentrant model
  5303 ;;
  5304                           
  5305                           	psect	text51
  5306  003274                     __ptext51:
  5307                           	callstack 0
  5308  003274                     _memcpy:
  5309                           	callstack 116
  5310  003274  C503  F509         	movff	memcpy@s1,memcpy@s
  5311  003278  C504  F50A         	movff	memcpy@s1+1,memcpy@s+1
  5312  00327C  C501  F507         	movff	memcpy@d1,memcpy@d
  5313  003280  C502  F508         	movff	memcpy@d1+1,memcpy@d+1
  5314  003284  EF59  F019         	goto	i2l3881
  5315  003288                     i2l3873:
  5316  003288  0061  F424  F4D9   	movff	memcpy@s,fsr2l
  5317  00328E  0061  F428  F4DA   	movff	memcpy@s+1,fsr2h
  5318  003294  50DF               	movf	indf2,w,c
  5319  003296  6E0B               	movwf	memcpy@tmp^(0+1280),c
  5320  003298  4A09               	infsnz	memcpy@s^(0+1280),f,c
  5321  00329A  2A0A               	incf	(memcpy@s+1)^(0+1280),f,c
  5322  00329C  0061  F41C  F4D9   	movff	memcpy@d,fsr2l
  5323  0032A2  0061  F420  F4DA   	movff	memcpy@d+1,fsr2h
  5324  0032A8  0061  F42C  F4DF   	movff	memcpy@tmp,indf2
  5325  0032AE  4A07               	infsnz	memcpy@d^(0+1280),f,c
  5326  0032B0  2A08               	incf	(memcpy@d+1)^(0+1280),f,c
  5327  0032B2                     i2l3881:
  5328  0032B2  0605               	decf	memcpy@n^(0+1280),f,c
  5329  0032B4  A0D8               	btfss	status,0,c
  5330  0032B6  0606               	decf	(memcpy@n+1)^(0+1280),f,c
  5331  0032B8  2805               	incf	memcpy@n^(0+1280),w,c
  5332  0032BA  E106               	bnz	i2u174_41
  5333  0032BC  2806               	incf	(memcpy@n+1)^(0+1280),w,c
  5334  0032BE  A4D8               	btfss	status,2,c
  5335  0032C0  EF64  F019         	goto	i2u174_41
  5336  0032C4  EF66  F019         	goto	i2u174_40
  5337  0032C8                     i2u174_41:
  5338  0032C8  EF44  F019         	goto	i2l3873
  5339  0032CC                     i2u174_40:
  5340  0032CC  0012               	return		;funcret
  5341  0032CE                     __end_of_memcpy:
  5342                           	callstack 0
  5343                           
  5344 ;; *************** function _ValidateTransmission *****************
  5345 ;; Defined at:
  5346 ;;		line 477 in file "mcc_generated_files/can1.c"
  5347 ;; Parameters:    Size  Location     Type
  5348 ;;  validChannel    1    wreg     unsigned char 
  5349 ;;  txCanMsg        2    1[COMRAM] PTR struct .
  5350 ;;		 -> msg(7), 
  5351 ;; Auto vars:     Size  Location     Type
  5352 ;;  validChannel    1    6[COMRAM] unsigned char 
  5353 ;;  field           1    9[COMRAM] struct .
  5354 ;;  txMsgStatus     1    8[COMRAM] enum E22340
  5355 ;;  plsize          1    0        unsigned char 
  5356 ;; Return value:  Size  Location     Type
  5357 ;;                  1    wreg      enum E22340
  5358 ;; Registers used:
  5359 ;;		wreg, fsr2l, fsr2h, status,2, status,0, tblptrl, tblptrh, tblptru, prodl, prodh, cstack
  5360 ;; Tracked objects:
  5361 ;;		On entry : 0/0
  5362 ;;		On exit  : 0/0
  5363 ;;		Unchanged: 0/0
  5364 ;; Data sizes:     COMRAM   BANK5   BANK6   BANK7   BANK8   BANK9  BANK10  BANK11  BANK12  BANK13  BANK14  BANK15  BANK1
      +6  BANK17  BANK18  BANK19  BANK20  BANK21  BANK22  BANK23  BANK24  BANK25  BANK26  BANK27  BANK28  BANK29  BANK30  BANK3
      +1  BANK32  BANK33  BANK34  BANK35  BANK36  BANK37
  5365 ;;      Params:         2       0       0       0       0       0       0       0       0       0       0       0       
      +0       0       0       0       0       0       0       0       0       0       0       0       0       0       0       
      +0       0       0       0       0       0       0
  5366 ;;      Locals:         4       0       0       0       0       0       0       0       0       0       0       0       
      +0       0       0       0       0       0       0       0       0       0       0       0       0       0       0       
      +0       0       0       0       0       0       0
  5367 ;;      Temps:          3       0       0       0       0       0       0       0       0       0       0       0       
      +0       0       0       0       0       0       0       0       0       0       0       0       0       0       0       
      +0       0       0       0       0       0       0
  5368 ;;      Totals:         9       0       0       0       0       0       0       0       0       0       0       0       
      +0       0       0       0       0       0       0       0       0       0       0       0       0       0       0       
      +0       0       0       0       0       0       0
  5369 ;;Total ram usage:        9 bytes
  5370 ;; Hardware stack levels used:    1
  5371 ;; Hardware stack levels required when called:    1
  5372 ;; This function calls:
  5373 ;;		_GetTxFifoStatus
  5374 ;;		i2_CAN1_OperationModeGet
  5375 ;; This function is called by:
  5376 ;;		_CAN1_Transmit
  5377 ;; This function uses a non-reentrant model
  5378 ;;
  5379                           
  5380                           	psect	text52
  5381  002C16                     __ptext52:
  5382                           	callstack 0
  5383  002C16                     _ValidateTransmission:
  5384                           	callstack 116
  5385                           
  5386                           ;incstack = 0
  5387                           ;ValidateTransmission@validChannel stored from wreg
  5388  002C16  6E07               	movwf	ValidateTransmission@validChannel^(0+1280),c
  5389  002C18                     
  5390                           ;mcc_generated_files/can1.c: 477: static CAN_TX_MSG_REQUEST_STATUS ValidateTransmission(
      +                          uint8_t validChannel, CAN_MSG_OBJ *txCanMsg);mcc_generated_files/can1.c: 478: {;mcc_gene
      +                          rated_files/can1.c: 479:     CAN_TX_MSG_REQUEST_STATUS txMsgStatus = CAN_TX_MSG_REQUEST_
      +                          SUCCESS;
  5391  002C18  0E00               	movlw	0
  5392  002C1A  6E09               	movwf	ValidateTransmission@txMsgStatus^(0+1280),c
  5393  002C1C                     
  5394                           ;mcc_generated_files/can1.c: 480:     CAN_MSG_FIELD field = txCanMsg->field;
  5395  002C1C  EE20 F004          	lfsr	2,4
  5396  002C20  5002               	movf	ValidateTransmission@txCanMsg^(0+1280),w,c
  5397  002C22  26D9               	addwf	fsr2l,f,c
  5398  002C24  5003               	movf	(ValidateTransmission@txCanMsg+1)^(0+1280),w,c
  5399  002C26  22DA               	addwfc	fsr2h,f,c
  5400  002C28  50DF               	movf	indf2,w,c
  5401  002C2A  6E0A               	movwf	ValidateTransmission@field^(0+1280),c
  5402  002C2C                     
  5403                           ;mcc_generated_files/can1.c: 483:     if (CAN_BRS_MODE == field.brs && (CAN_NORMAL_2_0_M
      +                          ODE == CAN1_OperationModeGet()))
  5404  002C2C  AE0A               	btfss	ValidateTransmission@field^(0+1280),7,c
  5405  002C2E  EF1B  F016         	goto	i2u190_41
  5406  002C32  EF1D  F016         	goto	i2u190_40
  5407  002C36                     i2u190_41:
  5408  002C36  EF28  F016         	goto	i2l3971
  5409  002C3A                     i2u190_40:
  5410  002C3A  EC0A  F01C         	call	i2_CAN1_OperationModeGet	;wreg free
  5411  002C3E  0A06               	xorlw	6
  5412  002C40  A4D8               	btfss	status,2,c
  5413  002C42  EF25  F016         	goto	i2u191_41
  5414  002C46  EF27  F016         	goto	i2u191_40
  5415  002C4A                     i2u191_41:
  5416  002C4A  EF28  F016         	goto	i2l3971
  5417  002C4E                     i2u191_40:
  5418  002C4E                     
  5419                           ;mcc_generated_files/can1.c: 484:     {;mcc_generated_files/can1.c: 485:         txMsgSt
      +                          atus |= CAN_TX_MSG_REQUEST_BRS_ERROR;
  5420  002C4E  8209               	bsf	ValidateTransmission@txMsgStatus^(0+1280),1,c
  5421  002C50                     i2l3971:
  5422                           
  5423                           ;mcc_generated_files/can1.c: 488:     if (field.dlc > DLC_8 && (CAN_2_0_FORMAT == field.
      +                          formatType || CAN_NORMAL_2_0_MODE == CAN1_OperationModeGet()))
  5424  002C50  300A               	rrcf	ValidateTransmission@field^(0+1280),w,c
  5425  002C52  32E8               	rrcf	wreg,f,c
  5426  002C54  0B0F               	andlw	15
  5427  002C56  6E04               	movwf	??_ValidateTransmission^(0+1280),c
  5428  002C58  0E08               	movlw	8
  5429  002C5A  6404               	cpfsgt	??_ValidateTransmission^(0+1280),c
  5430  002C5C  EF32  F016         	goto	i2u192_41
  5431  002C60  EF34  F016         	goto	i2u192_40
  5432  002C64                     i2u192_41:
  5433  002C64  EF46  F016         	goto	i2l3979
  5434  002C68                     i2u192_40:
  5435  002C68  AC0A               	btfss	ValidateTransmission@field^(0+1280),6,c
  5436  002C6A  EF39  F016         	goto	i2u193_41
  5437  002C6E  EF3B  F016         	goto	i2u193_40
  5438  002C72                     i2u193_41:
  5439  002C72  EF45  F016         	goto	i2l3977
  5440  002C76                     i2u193_40:
  5441  002C76  EC0A  F01C         	call	i2_CAN1_OperationModeGet	;wreg free
  5442  002C7A  0A06               	xorlw	6
  5443  002C7C  A4D8               	btfss	status,2,c
  5444  002C7E  EF43  F016         	goto	i2u194_41
  5445  002C82  EF45  F016         	goto	i2u194_40
  5446  002C86                     i2u194_41:
  5447  002C86  EF46  F016         	goto	i2l3979
  5448  002C8A                     i2u194_40:
  5449  002C8A                     i2l3977:
  5450                           
  5451                           ;mcc_generated_files/can1.c: 489:     {;mcc_generated_files/can1.c: 490:         txMsgSt
      +                          atus |= CAN_TX_MSG_REQUEST_DLC_EXCEED_ERROR;
  5452  002C8A  8009               	bsf	ValidateTransmission@txMsgStatus^(0+1280),0,c
  5453  002C8C                     i2l3979:
  5454                           
  5455                           ;mcc_generated_files/can1.c: 493:     if ((DLC_BYTES[(field.dlc)]) > ((DLC_BYTES[(8u + (
      +                          plsize))])))
  5456  002C8C  0E2F               	movlw	low (_DLC_BYTES+8)
  5457  002C8E  6EF6               	movwf	tblptrl,c
  5458  002C90  0E26               	movlw	high (_DLC_BYTES+8)
  5459  002C92  6EF7               	movwf	tblptrh,c
  5460  002C94                     	if	1	;Program memory is < 0x10000, tblptru is always zero
  5461  002C94  6AF8               	clrf	tblptru,c
  5462  002C96                     	endif
  5463  002C96                     	if	0	;tblptru may be non-zero
  5464  002C96                     	endif
  5465  002C96  0008               	tblrd		*
  5466  002C98  0061 F3D4  F504    	movff	tablat,??_ValidateTransmission
  5467  002C9E  300A               	rrcf	ValidateTransmission@field^(0+1280),w,c
  5468  002CA0  32E8               	rrcf	wreg,f,c
  5469  002CA2  0B0F               	andlw	15
  5470  002CA4  6E05               	movwf	(??_ValidateTransmission+1)^(0+1280),c
  5471  002CA6  6A06               	clrf	(??_ValidateTransmission+2)^(0+1280),c
  5472  002CA8  0E27               	movlw	low _DLC_BYTES
  5473  002CAA  2405               	addwf	(??_ValidateTransmission+1)^(0+1280),w,c
  5474  002CAC  6EF6               	movwf	tblptrl,c
  5475  002CAE  0E26               	movlw	high _DLC_BYTES
  5476  002CB0  2006               	addwfc	(??_ValidateTransmission+2)^(0+1280),w,c
  5477  002CB2  6EF7               	movwf	tblptrh,c
  5478  002CB4                     	if	1	;There are 3 active tblptr bytes
  5479  002CB4  6AF8               	clrf	tblptru,c
  5480  002CB6  0E00               	movlw	low (__mediumconst shr (0+16))
  5481  002CB8  22F8               	addwfc	tblptru,f,c
  5482  002CBA                     	endif
  5483  002CBA  0008               	tblrd		*
  5484  002CBC  50F5               	movf	tablat,w,c
  5485  002CBE  5C04               	subwf	??_ValidateTransmission^(0+1280),w,c
  5486  002CC0  B0D8               	btfsc	status,0,c
  5487  002CC2  EF65  F016         	goto	i2u195_41
  5488  002CC6  EF67  F016         	goto	i2u195_40
  5489  002CCA                     i2u195_41:
  5490  002CCA  EF68  F016         	goto	i2l3983
  5491  002CCE                     i2u195_40:
  5492  002CCE                     
  5493                           ;mcc_generated_files/can1.c: 494:     {;mcc_generated_files/can1.c: 495:         txMsgSt
      +                          atus |= CAN_TX_MSG_REQUEST_DLC_EXCEED_ERROR;
  5494  002CCE  8009               	bsf	ValidateTransmission@txMsgStatus^(0+1280),0,c
  5495  002CD0                     i2l3983:
  5496                           
  5497                           ;mcc_generated_files/can1.c: 498:     if (CAN_TX_FIFO_FULL == GetTxFifoStatus(validChann
      +                          el))
  5498  002CD0  5007               	movf	ValidateTransmission@validChannel^(0+1280),w,c
  5499  002CD2  EC88  F01B         	call	_GetTxFifoStatus
  5500  002CD6  0900               	iorlw	0
  5501  002CD8  A4D8               	btfss	status,2,c
  5502  002CDA  EF71  F016         	goto	i2u196_41
  5503  002CDE  EF73  F016         	goto	i2u196_40
  5504  002CE2                     i2u196_41:
  5505  002CE2  EF75  F016         	goto	i2l3987
  5506  002CE6                     i2u196_40:
  5507  002CE6                     
  5508                           ;mcc_generated_files/can1.c: 499:     {;mcc_generated_files/can1.c: 500:         txMsgSt
      +                          atus |= CAN_TX_MSG_REQUEST_FIFO_FULL;
  5509  002CE6  0E03               	movlw	3
  5510  002CE8  1209               	iorwf	ValidateTransmission@txMsgStatus^(0+1280),f,c
  5511  002CEA                     i2l3987:
  5512                           
  5513                           ;mcc_generated_files/can1.c: 503:     return txMsgStatus;
  5514  002CEA  5009               	movf	ValidateTransmission@txMsgStatus^(0+1280),w,c
  5515  002CEC  0012               	return		;funcret
  5516  002CEE                     __end_of_ValidateTransmission:
  5517                           	callstack 0
  5518                           
  5519 ;; *************** function i2_CAN1_OperationModeGet *****************
  5520 ;; Defined at:
  5521 ;;		line 295 in file "mcc_generated_files/can1.c"
  5522 ;; Parameters:    Size  Location     Type
  5523 ;;		None
  5524 ;; Auto vars:     Size  Location     Type
  5525 ;;		None
  5526 ;; Return value:  Size  Location     Type
  5527 ;;                  1    wreg      enum E22346
  5528 ;; Registers used:
  5529 ;;		wreg, status,2, status,0
  5530 ;; Tracked objects:
  5531 ;;		On entry : 0/0
  5532 ;;		On exit  : 0/0
  5533 ;;		Unchanged: 0/0
  5534 ;; Data sizes:     COMRAM   BANK5   BANK6   BANK7   BANK8   BANK9  BANK10  BANK11  BANK12  BANK13  BANK14  BANK15  BANK1
      +6  BANK17  BANK18  BANK19  BANK20  BANK21  BANK22  BANK23  BANK24  BANK25  BANK26  BANK27  BANK28  BANK29  BANK30  BANK3
      +1  BANK32  BANK33  BANK34  BANK35  BANK36  BANK37
  5535 ;;      Params:         0       0       0       0       0       0       0       0       0       0       0       0       
      +0       0       0       0       0       0       0       0       0       0       0       0       0       0       0       
      +0       0       0       0       0       0       0
  5536 ;;      Locals:         0       0       0       0       0       0       0       0       0       0       0       0       
      +0       0       0       0       0       0       0       0       0       0       0       0       0       0       0       
      +0       0       0       0       0       0       0
  5537 ;;      Temps:          0       0       0       0       0       0       0       0       0       0       0       0       
      +0       0       0       0       0       0       0       0       0       0       0       0       0       0       0       
      +0       0       0       0       0       0       0
  5538 ;;      Totals:         0       0       0       0       0       0       0       0       0       0       0       0       
      +0       0       0       0       0       0       0       0       0       0       0       0       0       0       0       
      +0       0       0       0       0       0       0
  5539 ;;Total ram usage:        0 bytes
  5540 ;; Hardware stack levels used:    1
  5541 ;; This function calls:
  5542 ;;		Nothing
  5543 ;; This function is called by:
  5544 ;;		_ValidateTransmission
  5545 ;;		_CANWriteMessage
  5546 ;;		i2_CAN1_OperationModeSet
  5547 ;; This function uses a non-reentrant model
  5548 ;;
  5549                           
  5550                           	psect	text53
  5551  003814                     __ptext53:
  5552                           	callstack 0
  5553  003814                     i2_CAN1_OperationModeGet:
  5554                           	callstack 117
  5555  003814                     
  5556                           ;mcc_generated_files/can1.c: 297:     return C1CONUbits.OPMOD;
  5557  003814  0101               	movlb	1	; () banked
  5558  003816  3902               	swapf	2,w,b	;volatile
  5559  003818  32E8               	rrcf	wreg,f,c
  5560  00381A  0B07               	andlw	7
  5561  00381C                     
  5562                           ; BSR set to: 1
  5563  00381C  0012               	return		;funcret
  5564  00381E                     __end_ofi2_CAN1_OperationModeGet:
  5565                           	callstack 0
  5566                           
  5567 ;; *************** function _GetTxFifoStatus *****************
  5568 ;; Defined at:
  5569 ;;		line 431 in file "mcc_generated_files/can1.c"
  5570 ;; Parameters:    Size  Location     Type
  5571 ;;  validChannel    1    wreg     unsigned char 
  5572 ;; Auto vars:     Size  Location     Type
  5573 ;;  validChannel    1    0[COMRAM] unsigned char 
  5574 ;; Return value:  Size  Location     Type
  5575 ;;                  1    wreg      enum E22361
  5576 ;; Registers used:
  5577 ;;		wreg, fsr2l, fsr2h, status,2, status,0, prodl, prodh
  5578 ;; Tracked objects:
  5579 ;;		On entry : 0/0
  5580 ;;		On exit  : 0/0
  5581 ;;		Unchanged: 0/0
  5582 ;; Data sizes:     COMRAM   BANK5   BANK6   BANK7   BANK8   BANK9  BANK10  BANK11  BANK12  BANK13  BANK14  BANK15  BANK1
      +6  BANK17  BANK18  BANK19  BANK20  BANK21  BANK22  BANK23  BANK24  BANK25  BANK26  BANK27  BANK28  BANK29  BANK30  BANK3
      +1  BANK32  BANK33  BANK34  BANK35  BANK36  BANK37
  5583 ;;      Params:         0       0       0       0       0       0       0       0       0       0       0       0       
      +0       0       0       0       0       0       0       0       0       0       0       0       0       0       0       
      +0       0       0       0       0       0       0
  5584 ;;      Locals:         1       0       0       0       0       0       0       0       0       0       0       0       
      +0       0       0       0       0       0       0       0       0       0       0       0       0       0       0       
      +0       0       0       0       0       0       0
  5585 ;;      Temps:          0       0       0       0       0       0       0       0       0       0       0       0       
      +0       0       0       0       0       0       0       0       0       0       0       0       0       0       0       
      +0       0       0       0       0       0       0
  5586 ;;      Totals:         1       0       0       0       0       0       0       0       0       0       0       0       
      +0       0       0       0       0       0       0       0       0       0       0       0       0       0       0       
      +0       0       0       0       0       0       0
  5587 ;;Total ram usage:        1 bytes
  5588 ;; Hardware stack levels used:    1
  5589 ;; This function calls:
  5590 ;;		Nothing
  5591 ;; This function is called by:
  5592 ;;		_ValidateTransmission
  5593 ;;		_CAN1_TransmitFIFOStatusGet
  5594 ;; This function uses a non-reentrant model
  5595 ;;
  5596                           
  5597                           	psect	text54
  5598  003710                     __ptext54:
  5599                           	callstack 0
  5600  003710                     _GetTxFifoStatus:
  5601                           	callstack 117
  5602                           
  5603                           ; BSR set to: 1
  5604                           ;incstack = 0
  5605                           ;GetTxFifoStatus@validChannel stored from wreg
  5606  003710  6E01               	movwf	GetTxFifoStatus@validChannel^(0+1280),c
  5607  003712                     
  5608                           ;mcc_generated_files/can1.c: 431: static CAN_TX_FIFO_STATUS GetTxFifoStatus(uint8_t vali
      +                          dChannel);mcc_generated_files/can1.c: 432: {;mcc_generated_files/can1.c: 433:     return
      +                           (FIFO[validChannel].STAL & 0x1);
  5609  003712  5001               	movf	GetTxFifoStatus@validChannel^(0+1280),w,c
  5610  003714  0D0C               	mullw	12
  5611  003716  0E54               	movlw	84
  5612  003718  24F3               	addwf	243,w,c
  5613  00371A  6ED9               	movwf	fsr2l,c
  5614  00371C  0E01               	movlw	1
  5615  00371E  20F4               	addwfc	prodh,w,c
  5616  003720  6EDA               	movwf	fsr2h,c
  5617  003722  50DF               	movf	indf2,w,c
  5618  003724  0B01               	andlw	1
  5619  003726  0012               	return		;funcret
  5620  003728                     __end_of_GetTxFifoStatus:
  5621                           	callstack 0
  5622                           
  5623 ;; *************** function _TMR0_ISR *****************
  5624 ;; Defined at:
  5625 ;;		line 122 in file "mcc_generated_files/tmr0.c"
  5626 ;; Parameters:    Size  Location     Type
  5627 ;;		None
  5628 ;; Auto vars:     Size  Location     Type
  5629 ;;		None
  5630 ;; Return value:  Size  Location     Type
  5631 ;;                  1    wreg      void 
  5632 ;; Registers used:
  5633 ;;		wreg, status,2, status,0, pclath, tosl, cstack
  5634 ;; Tracked objects:
  5635 ;;		On entry : 0/0
  5636 ;;		On exit  : 0/0
  5637 ;;		Unchanged: 0/0
  5638 ;; Data sizes:     COMRAM   BANK5   BANK6   BANK7   BANK8   BANK9  BANK10  BANK11  BANK12  BANK13  BANK14  BANK15  BANK1
      +6  BANK17  BANK18  BANK19  BANK20  BANK21  BANK22  BANK23  BANK24  BANK25  BANK26  BANK27  BANK28  BANK29  BANK30  BANK3
      +1  BANK32  BANK33  BANK34  BANK35  BANK36  BANK37
  5639 ;;      Params:         0       0       0       0       0       0       0       0       0       0       0       0       
      +0       0       0       0       0       0       0       0       0       0       0       0       0       0       0       
      +0       0       0       0       0       0       0
  5640 ;;      Locals:         0       0       0       0       0       0       0       0       0       0       0       0       
      +0       0       0       0       0       0       0       0       0       0       0       0       0       0       0       
      +0       0       0       0       0       0       0
  5641 ;;      Temps:          0       0       0       0       0       0       0       0       0       0       0       0       
      +0       0       0       0       0       0       0       0       0       0       0       0       0       0       0       
      +0       0       0       0       0       0       0
  5642 ;;      Totals:         0       0       0       0       0       0       0       0       0       0       0       0       
      +0       0       0       0       0       0       0       0       0       0       0       0       0       0       0       
      +0       0       0       0       0       0       0
  5643 ;;Total ram usage:        0 bytes
  5644 ;; Hardware stack levels used:    1
  5645 ;; Hardware stack levels required when called:    2
  5646 ;; This function calls:
  5647 ;;		_TMR0_CallBack
  5648 ;; This function is called by:
  5649 ;;		_INTERRUPT_InterruptManager
  5650 ;; This function uses a non-reentrant model
  5651 ;;
  5652                           
  5653                           	psect	text55
  5654  003610                     __ptext55:
  5655                           	callstack 0
  5656  003610                     _TMR0_ISR:
  5657                           	callstack 119
  5658  003610                     
  5659                           ;mcc_generated_files/tmr0.c: 124:     static volatile uint16_t CountCallBack = 0;;mcc_ge
      +                          nerated_files/tmr0.c: 127:     PIR3bits.TMR0IF = 0;
  5660  003610  9EB1               	bcf	177,7,c	;volatile
  5661  003612                     
  5662                           ;mcc_generated_files/tmr0.c: 133:     if (++CountCallBack >= 5)
  5663  003612  4A41               	infsnz	TMR0_ISR@CountCallBack^(0+1280),f,c	;volatile
  5664  003614  2A42               	incf	(TMR0_ISR@CountCallBack+1)^(0+1280),f,c	;volatile
  5665  003616  5042               	movf	(TMR0_ISR@CountCallBack+1)^(0+1280),w,c	;volatile
  5666  003618  E109               	bnz	i2u237_40
  5667  00361A  0E05               	movlw	5
  5668  00361C  5C41               	subwf	TMR0_ISR@CountCallBack^(0+1280),w,c	;volatile
  5669  00361E  A0D8               	btfss	status,0,c
  5670  003620  EF14  F01B         	goto	i2u237_41
  5671  003624  EF16  F01B         	goto	i2u237_40
  5672  003628                     i2u237_41:
  5673  003628  EF1C  F01B         	goto	i2l1406
  5674  00362C                     i2u237_40:
  5675  00362C                     
  5676                           ;mcc_generated_files/tmr0.c: 134:     {;mcc_generated_files/tmr0.c: 136:         TMR0_Ca
      +                          llBack();
  5677  00362C  ECB0  F01A         	call	_TMR0_CallBack	;wreg free
  5678  003630                     
  5679                           ;mcc_generated_files/tmr0.c: 139:         CountCallBack = 0;
  5680  003630  0E00               	movlw	0
  5681  003632  6E42               	movwf	(TMR0_ISR@CountCallBack+1)^(0+1280),c	;volatile
  5682  003634  0E00               	movlw	0
  5683  003636  6E41               	movwf	TMR0_ISR@CountCallBack^(0+1280),c	;volatile
  5684  003638                     i2l1406:
  5685  003638  0012               	return		;funcret
  5686  00363A                     __end_of_TMR0_ISR:
  5687                           	callstack 0
  5688                           
  5689 ;; *************** function _TMR0_CallBack *****************
  5690 ;; Defined at:
  5691 ;;		line 145 in file "mcc_generated_files/tmr0.c"
  5692 ;; Parameters:    Size  Location     Type
  5693 ;;		None
  5694 ;; Auto vars:     Size  Location     Type
  5695 ;;		None
  5696 ;; Return value:  Size  Location     Type
  5697 ;;                  1    wreg      void 
  5698 ;; Registers used:
  5699 ;;		wreg, status,2, status,0, pclath, tosl, cstack
  5700 ;; Tracked objects:
  5701 ;;		On entry : 0/0
  5702 ;;		On exit  : 0/0
  5703 ;;		Unchanged: 0/0
  5704 ;; Data sizes:     COMRAM   BANK5   BANK6   BANK7   BANK8   BANK9  BANK10  BANK11  BANK12  BANK13  BANK14  BANK15  BANK1
      +6  BANK17  BANK18  BANK19  BANK20  BANK21  BANK22  BANK23  BANK24  BANK25  BANK26  BANK27  BANK28  BANK29  BANK30  BANK3
      +1  BANK32  BANK33  BANK34  BANK35  BANK36  BANK37
  5705 ;;      Params:         0       0       0       0       0       0       0       0       0       0       0       0       
      +0       0       0       0       0       0       0       0       0       0       0       0       0       0       0       
      +0       0       0       0       0       0       0
  5706 ;;      Locals:         0       0       0       0       0       0       0       0       0       0       0       0       
      +0       0       0       0       0       0       0       0       0       0       0       0       0       0       0       
      +0       0       0       0       0       0       0
  5707 ;;      Temps:          0       0       0       0       0       0       0       0       0       0       0       0       
      +0       0       0       0       0       0       0       0       0       0       0       0       0       0       0       
      +0       0       0       0       0       0       0
  5708 ;;      Totals:         0       0       0       0       0       0       0       0       0       0       0       0       
      +0       0       0       0       0       0       0       0       0       0       0       0       0       0       0       
      +0       0       0       0       0       0       0
  5709 ;;Total ram usage:        0 bytes
  5710 ;; Hardware stack levels used:    1
  5711 ;; Hardware stack levels required when called:    1
  5712 ;; This function calls:
  5713 ;;		Absolute function
  5714 ;;		_TMR0_DefaultInterruptHandler
  5715 ;; This function is called by:
  5716 ;;		_TMR0_ISR
  5717 ;; This function uses a non-reentrant model
  5718 ;;
  5719                           
  5720                           	psect	text56
  5721  003560                     __ptext56:
  5722                           	callstack 0
  5723  003560                     _TMR0_CallBack:
  5724                           	callstack 119
  5725  003560                     
  5726                           ;mcc_generated_files/tmr0.c: 149:     if(TMR0_InterruptHandler)
  5727  003560  0105               	movlb	5	; () banked
  5728  003562  51BC               	movf	_TMR0_InterruptHandler& (0+255),w,b
  5729  003564  11BD               	iorwf	(_TMR0_InterruptHandler+1)& (0+255),w,b
  5730  003566  B4D8               	btfsc	status,2,c
  5731  003568  EFB8  F01A         	goto	i2u234_41
  5732  00356C  EFBA  F01A         	goto	i2u234_40
  5733  003570                     i2u234_41:
  5734  003570  EFC6  F01A         	goto	i2l1410
  5735  003574                     i2u234_40:
  5736  003574                     
  5737                           ; BSR set to: 5
  5738                           ;mcc_generated_files/tmr0.c: 150:     {;mcc_generated_files/tmr0.c: 151:         TMR0_In
      +                          terruptHandler();
  5739  003574  D802               	call	i2u235_48
  5740  003576  EFC6  F01A         	goto	i2u235_49
  5741  00357A                     i2u235_48:
  5742  00357A  0005               	push	
  5743  00357C  6EFA               	movwf	pclath,c
  5744  00357E  51BC               	movf	_TMR0_InterruptHandler& (0+255),w,b
  5745  003580  6EFD               	movwf	tosl,c
  5746  003582  51BD               	movf	(_TMR0_InterruptHandler+1)& (0+255),w,b
  5747  003584  6EFE               	movwf	tosh,c
  5748  003586  6AFF               	clrf	tosu,c
  5749  003588  50FA               	movf	pclath,w,c
  5750  00358A  0012               	return		;indir
  5751  00358C                     i2u235_49:
  5752  00358C                     i2l1410:
  5753  00358C  0012               	return		;funcret
  5754  00358E                     __end_of_TMR0_CallBack:
  5755                           	callstack 0
  5756                           
  5757 ;; *************** function _TMR0_DefaultInterruptHandler *****************
  5758 ;; Defined at:
  5759 ;;		line 159 in file "mcc_generated_files/tmr0.c"
  5760 ;; Parameters:    Size  Location     Type
  5761 ;;		None
  5762 ;; Auto vars:     Size  Location     Type
  5763 ;;		None
  5764 ;; Return value:  Size  Location     Type
  5765 ;;                  1    wreg      void 
  5766 ;; Registers used:
  5767 ;;		None
  5768 ;; Tracked objects:
  5769 ;;		On entry : 0/0
  5770 ;;		On exit  : 0/0
  5771 ;;		Unchanged: 0/0
  5772 ;; Data sizes:     COMRAM   BANK5   BANK6   BANK7   BANK8   BANK9  BANK10  BANK11  BANK12  BANK13  BANK14  BANK15  BANK1
      +6  BANK17  BANK18  BANK19  BANK20  BANK21  BANK22  BANK23  BANK24  BANK25  BANK26  BANK27  BANK28  BANK29  BANK30  BANK3
      +1  BANK32  BANK33  BANK34  BANK35  BANK36  BANK37
  5773 ;;      Params:         0       0       0       0       0       0       0       0       0       0       0       0       
      +0       0       0       0       0       0       0       0       0       0       0       0       0       0       0       
      +0       0       0       0       0       0       0
  5774 ;;      Locals:         0       0       0       0       0       0       0       0       0       0       0       0       
      +0       0       0       0       0       0       0       0       0       0       0       0       0       0       0       
      +0       0       0       0       0       0       0
  5775 ;;      Temps:          0       0       0       0       0       0       0       0       0       0       0       0       
      +0       0       0       0       0       0       0       0       0       0       0       0       0       0       0       
      +0       0       0       0       0       0       0
  5776 ;;      Totals:         0       0       0       0       0       0       0       0       0       0       0       0       
      +0       0       0       0       0       0       0       0       0       0       0       0       0       0       0       
      +0       0       0       0       0       0       0
  5777 ;;Total ram usage:        0 bytes
  5778 ;; Hardware stack levels used:    1
  5779 ;; This function calls:
  5780 ;;		Nothing
  5781 ;; This function is called by:
  5782 ;;		_TMR0_Initialize
  5783 ;;		_TMR0_CallBack
  5784 ;; This function uses a non-reentrant model
  5785 ;;
  5786                           
  5787                           	psect	text57
  5788  003832                     __ptext57:
  5789                           	callstack 0
  5790  003832                     _TMR0_DefaultInterruptHandler:
  5791                           	callstack 119
  5792  003832  0012               	return		;funcret
  5793  003834                     __end_of_TMR0_DefaultInterruptHandler:
  5794                           	callstack 0
  5795                           
  5796 ;; *************** function _INT0_ISR *****************
  5797 ;; Defined at:
  5798 ;;		line 36 in file "mcc_generated_files/ext_int.c"
  5799 ;; Parameters:    Size  Location     Type
  5800 ;;		None
  5801 ;; Auto vars:     Size  Location     Type
  5802 ;;		None
  5803 ;; Return value:  Size  Location     Type
  5804 ;;                  1    wreg      void 
  5805 ;; Registers used:
  5806 ;;		wreg, status,2, status,0, pclath, tosl, cstack
  5807 ;; Tracked objects:
  5808 ;;		On entry : 0/0
  5809 ;;		On exit  : 0/0
  5810 ;;		Unchanged: 0/0
  5811 ;; Data sizes:     COMRAM   BANK5   BANK6   BANK7   BANK8   BANK9  BANK10  BANK11  BANK12  BANK13  BANK14  BANK15  BANK1
      +6  BANK17  BANK18  BANK19  BANK20  BANK21  BANK22  BANK23  BANK24  BANK25  BANK26  BANK27  BANK28  BANK29  BANK30  BANK3
      +1  BANK32  BANK33  BANK34  BANK35  BANK36  BANK37
  5812 ;;      Params:         0       0       0       0       0       0       0       0       0       0       0       0       
      +0       0       0       0       0       0       0       0       0       0       0       0       0       0       0       
      +0       0       0       0       0       0       0
  5813 ;;      Locals:         0       0       0       0       0       0       0       0       0       0       0       0       
      +0       0       0       0       0       0       0       0       0       0       0       0       0       0       0       
      +0       0       0       0       0       0       0
  5814 ;;      Temps:          0       0       0       0       0       0       0       0       0       0       0       0       
      +0       0       0       0       0       0       0       0       0       0       0       0       0       0       0       
      +0       0       0       0       0       0       0
  5815 ;;      Totals:         0       0       0       0       0       0       0       0       0       0       0       0       
      +0       0       0       0       0       0       0       0       0       0       0       0       0       0       0       
      +0       0       0       0       0       0       0
  5816 ;;Total ram usage:        0 bytes
  5817 ;; Hardware stack levels used:    1
  5818 ;; Hardware stack levels required when called:    2
  5819 ;; This function calls:
  5820 ;;		_INT0_CallBack
  5821 ;; This function is called by:
  5822 ;;		_INTERRUPT_InterruptManager
  5823 ;; This function uses a non-reentrant model
  5824 ;;
  5825                           
  5826                           	psect	text58
  5827  00381E                     __ptext58:
  5828                           	callstack 0
  5829  00381E                     _INT0_ISR:
  5830                           	callstack 119
  5831  00381E                     
  5832                           ;mcc_generated_files/ext_int.c: 38:     (PIR1bits.INT0IF = 0);
  5833  00381E  90AF               	bcf	175,0,c	;volatile
  5834  003820                     
  5835                           ;mcc_generated_files/ext_int.c: 41:     INT0_CallBack();
  5836  003820  EC36  F01A         	call	_INT0_CallBack	;wreg free
  5837  003824  0012               	return		;funcret
  5838  003826                     __end_of_INT0_ISR:
  5839                           	callstack 0
  5840                           
  5841 ;; *************** function _INT0_CallBack *****************
  5842 ;; Defined at:
  5843 ;;		line 45 in file "mcc_generated_files/ext_int.c"
  5844 ;; Parameters:    Size  Location     Type
  5845 ;;		None
  5846 ;; Auto vars:     Size  Location     Type
  5847 ;;		None
  5848 ;; Return value:  Size  Location     Type
  5849 ;;                  1    wreg      void 
  5850 ;; Registers used:
  5851 ;;		wreg, status,2, status,0, pclath, tosl, cstack
  5852 ;; Tracked objects:
  5853 ;;		On entry : 0/0
  5854 ;;		On exit  : 0/0
  5855 ;;		Unchanged: 0/0
  5856 ;; Data sizes:     COMRAM   BANK5   BANK6   BANK7   BANK8   BANK9  BANK10  BANK11  BANK12  BANK13  BANK14  BANK15  BANK1
      +6  BANK17  BANK18  BANK19  BANK20  BANK21  BANK22  BANK23  BANK24  BANK25  BANK26  BANK27  BANK28  BANK29  BANK30  BANK3
      +1  BANK32  BANK33  BANK34  BANK35  BANK36  BANK37
  5857 ;;      Params:         0       0       0       0       0       0       0       0       0       0       0       0       
      +0       0       0       0       0       0       0       0       0       0       0       0       0       0       0       
      +0       0       0       0       0       0       0
  5858 ;;      Locals:         0       0       0       0       0       0       0       0       0       0       0       0       
      +0       0       0       0       0       0       0       0       0       0       0       0       0       0       0       
      +0       0       0       0       0       0       0
  5859 ;;      Temps:          0       0       0       0       0       0       0       0       0       0       0       0       
      +0       0       0       0       0       0       0       0       0       0       0       0       0       0       0       
      +0       0       0       0       0       0       0
  5860 ;;      Totals:         0       0       0       0       0       0       0       0       0       0       0       0       
      +0       0       0       0       0       0       0       0       0       0       0       0       0       0       0       
      +0       0       0       0       0       0       0
  5861 ;;Total ram usage:        0 bytes
  5862 ;; Hardware stack levels used:    1
  5863 ;; Hardware stack levels required when called:    1
  5864 ;; This function calls:
  5865 ;;		Absolute function
  5866 ;;		_INT0_DefaultInterruptHandler
  5867 ;;		_ReluctorCountTeeth
  5868 ;;		_ReluctorPosCount
  5869 ;; This function is called by:
  5870 ;;		_INT0_ISR
  5871 ;; This function uses a non-reentrant model
  5872 ;;
  5873                           
  5874                           	psect	text59
  5875  00346C                     __ptext59:
  5876                           	callstack 0
  5877  00346C                     _INT0_CallBack:
  5878                           	callstack 119
  5879  00346C                     
  5880                           ;mcc_generated_files/ext_int.c: 49:     ReluctorCountTeeth();
  5881  00346C  EC15  F01C         	call	_ReluctorCountTeeth	;wreg free
  5882  003470                     
  5883                           ;mcc_generated_files/ext_int.c: 50:     ReluctorPosCount();
  5884  003470  EC59  F01B         	call	_ReluctorPosCount	;wreg free
  5885  003474                     
  5886                           ;mcc_generated_files/ext_int.c: 52:     if(INT0_InterruptHandler)
  5887  003474  0105               	movlb	5	; () banked
  5888  003476  51C0               	movf	_INT0_InterruptHandler& (0+255),w,b
  5889  003478  11C1               	iorwf	(_INT0_InterruptHandler+1)& (0+255),w,b
  5890  00347A  B4D8               	btfsc	status,2,c
  5891  00347C  EF42  F01A         	goto	i2u226_41
  5892  003480  EF44  F01A         	goto	i2u226_40
  5893  003484                     i2u226_41:
  5894  003484  EF50  F01A         	goto	i2l1193
  5895  003488                     i2u226_40:
  5896  003488                     
  5897                           ; BSR set to: 5
  5898                           ;mcc_generated_files/ext_int.c: 53:     {;mcc_generated_files/ext_int.c: 54:         INT
      +                          0_InterruptHandler();
  5899  003488  D802               	call	i2u227_48
  5900  00348A  EF50  F01A         	goto	i2u227_49
  5901  00348E                     i2u227_48:
  5902  00348E  0005               	push	
  5903  003490  6EFA               	movwf	pclath,c
  5904  003492  51C0               	movf	_INT0_InterruptHandler& (0+255),w,b
  5905  003494  6EFD               	movwf	tosl,c
  5906  003496  51C1               	movf	(_INT0_InterruptHandler+1)& (0+255),w,b
  5907  003498  6EFE               	movwf	tosh,c
  5908  00349A  6AFF               	clrf	tosu,c
  5909  00349C  50FA               	movf	pclath,w,c
  5910  00349E  0012               	return		;indir
  5911  0034A0                     i2u227_49:
  5912  0034A0                     i2l1193:
  5913  0034A0  0012               	return		;funcret
  5914  0034A2                     __end_of_INT0_CallBack:
  5915                           	callstack 0
  5916                           
  5917 ;; *************** function _ReluctorPosCount *****************
  5918 ;; Defined at:
  5919 ;;		line 53 in file "reluctor.c"
  5920 ;; Parameters:    Size  Location     Type
  5921 ;;		None
  5922 ;; Auto vars:     Size  Location     Type
  5923 ;;		None
  5924 ;; Return value:  Size  Location     Type
  5925 ;;                  1    wreg      void 
  5926 ;; Registers used:
  5927 ;;		wreg, status,2, status,0
  5928 ;; Tracked objects:
  5929 ;;		On entry : 0/0
  5930 ;;		On exit  : 0/0
  5931 ;;		Unchanged: 0/0
  5932 ;; Data sizes:     COMRAM   BANK5   BANK6   BANK7   BANK8   BANK9  BANK10  BANK11  BANK12  BANK13  BANK14  BANK15  BANK1
      +6  BANK17  BANK18  BANK19  BANK20  BANK21  BANK22  BANK23  BANK24  BANK25  BANK26  BANK27  BANK28  BANK29  BANK30  BANK3
      +1  BANK32  BANK33  BANK34  BANK35  BANK36  BANK37
  5933 ;;      Params:         0       0       0       0       0       0       0       0       0       0       0       0       
      +0       0       0       0       0       0       0       0       0       0       0       0       0       0       0       
      +0       0       0       0       0       0       0
  5934 ;;      Locals:         0       0       0       0       0       0       0       0       0       0       0       0       
      +0       0       0       0       0       0       0       0       0       0       0       0       0       0       0       
      +0       0       0       0       0       0       0
  5935 ;;      Temps:          0       0       0       0       0       0       0       0       0       0       0       0       
      +0       0       0       0       0       0       0       0       0       0       0       0       0       0       0       
      +0       0       0       0       0       0       0
  5936 ;;      Totals:         0       0       0       0       0       0       0       0       0       0       0       0       
      +0       0       0       0       0       0       0       0       0       0       0       0       0       0       0       
      +0       0       0       0       0       0       0
  5937 ;;Total ram usage:        0 bytes
  5938 ;; Hardware stack levels used:    1
  5939 ;; This function calls:
  5940 ;;		Nothing
  5941 ;; This function is called by:
  5942 ;;		_INT0_CallBack
  5943 ;; This function uses a non-reentrant model
  5944 ;;
  5945                           
  5946                           	psect	text60
  5947  0036B2                     __ptext60:
  5948                           	callstack 0
  5949  0036B2                     _ReluctorPosCount:
  5950                           	callstack 119
  5951  0036B2                     
  5952                           ;reluctor.c: 55:     ucCountPos++;
  5953  0036B2  2A4C               	incf	_ucCountPos^(0+1280),f,c
  5954  0036B4                     
  5955                           ;reluctor.c: 56:     if(ucCountPos >= 32){
  5956  0036B4  0E1F               	movlw	31
  5957  0036B6  644C               	cpfsgt	_ucCountPos^(0+1280),c
  5958  0036B8  EF60  F01B         	goto	i2u214_41
  5959  0036BC  EF62  F01B         	goto	i2u214_40
  5960  0036C0                     i2u214_41:
  5961  0036C0  EF6A  F01B         	goto	i2l1484
  5962  0036C4                     i2u214_40:
  5963  0036C4                     
  5964                           ;reluctor.c: 57:         ucCountPos = 0;
  5965  0036C4  0E00               	movlw	0
  5966  0036C6  6E4C               	movwf	_ucCountPos^(0+1280),c
  5967  0036C8                     
  5968                           ;reluctor.c: 58:         uiCountVueltaRueda++;
  5969  0036C8  4A3F               	infsnz	_uiCountVueltaRueda^(0+1280),f,c
  5970  0036CA  2A40               	incf	(_uiCountVueltaRueda+1)^(0+1280),f,c
  5971  0036CC                     
  5972                           ;reluctor.c: 59:         ucCountVueltaRueda1 = uiCountVueltaRueda & 0x00FF;
  5973  0036CC  C53F  F54B         	movff	_uiCountVueltaRueda,_ucCountVueltaRueda1
  5974  0036D0                     
  5975                           ;reluctor.c: 60:         ucCountVueltaRueda2 = ( uiCountVueltaRueda >> 0x08 ) & 0x00FF;
  5976  0036D0  5040               	movf	(_uiCountVueltaRueda+1)^(0+1280),w,c
  5977  0036D2  6E4A               	movwf	_ucCountVueltaRueda2^(0+1280),c
  5978  0036D4                     i2l1484:
  5979  0036D4  0012               	return		;funcret
  5980  0036D6                     __end_of_ReluctorPosCount:
  5981                           	callstack 0
  5982                           
  5983 ;; *************** function _ReluctorCountTeeth *****************
  5984 ;; Defined at:
  5985 ;;		line 28 in file "reluctor.c"
  5986 ;; Parameters:    Size  Location     Type
  5987 ;;		None
  5988 ;; Auto vars:     Size  Location     Type
  5989 ;;		None
  5990 ;; Return value:  Size  Location     Type
  5991 ;;                  1    wreg      void 
  5992 ;; Registers used:
  5993 ;;		status,2, status,0
  5994 ;; Tracked objects:
  5995 ;;		On entry : 0/0
  5996 ;;		On exit  : 0/0
  5997 ;;		Unchanged: 0/0
  5998 ;; Data sizes:     COMRAM   BANK5   BANK6   BANK7   BANK8   BANK9  BANK10  BANK11  BANK12  BANK13  BANK14  BANK15  BANK1
      +6  BANK17  BANK18  BANK19  BANK20  BANK21  BANK22  BANK23  BANK24  BANK25  BANK26  BANK27  BANK28  BANK29  BANK30  BANK3
      +1  BANK32  BANK33  BANK34  BANK35  BANK36  BANK37
  5999 ;;      Params:         0       0       0       0       0       0       0       0       0       0       0       0       
      +0       0       0       0       0       0       0       0       0       0       0       0       0       0       0       
      +0       0       0       0       0       0       0
  6000 ;;      Locals:         0       0       0       0       0       0       0       0       0       0       0       0       
      +0       0       0       0       0       0       0       0       0       0       0       0       0       0       0       
      +0       0       0       0       0       0       0
  6001 ;;      Temps:          0       0       0       0       0       0       0       0       0       0       0       0       
      +0       0       0       0       0       0       0       0       0       0       0       0       0       0       0       
      +0       0       0       0       0       0       0
  6002 ;;      Totals:         0       0       0       0       0       0       0       0       0       0       0       0       
      +0       0       0       0       0       0       0       0       0       0       0       0       0       0       0       
      +0       0       0       0       0       0       0
  6003 ;;Total ram usage:        0 bytes
  6004 ;; Hardware stack levels used:    1
  6005 ;; This function calls:
  6006 ;;		Nothing
  6007 ;; This function is called by:
  6008 ;;		_INT0_CallBack
  6009 ;; This function uses a non-reentrant model
  6010 ;;
  6011                           
  6012                           	psect	text61
  6013  00382A                     __ptext61:
  6014                           	callstack 0
  6015  00382A                     _ReluctorCountTeeth:
  6016                           	callstack 119
  6017  00382A                     
  6018                           ;reluctor.c: 30:     ucCountTeeth++;
  6019  00382A  2A4D               	incf	_ucCountTeeth^(0+1280),f,c
  6020  00382C  0012               	return		;funcret
  6021  00382E                     __end_of_ReluctorCountTeeth:
  6022                           	callstack 0
  6023                           
  6024 ;; *************** function _INT0_DefaultInterruptHandler *****************
  6025 ;; Defined at:
  6026 ;;		line 62 in file "mcc_generated_files/ext_int.c"
  6027 ;; Parameters:    Size  Location     Type
  6028 ;;		None
  6029 ;; Auto vars:     Size  Location     Type
  6030 ;;		None
  6031 ;; Return value:  Size  Location     Type
  6032 ;;                  1    wreg      void 
  6033 ;; Registers used:
  6034 ;;		None
  6035 ;; Tracked objects:
  6036 ;;		On entry : 0/0
  6037 ;;		On exit  : 0/0
  6038 ;;		Unchanged: 0/0
  6039 ;; Data sizes:     COMRAM   BANK5   BANK6   BANK7   BANK8   BANK9  BANK10  BANK11  BANK12  BANK13  BANK14  BANK15  BANK1
      +6  BANK17  BANK18  BANK19  BANK20  BANK21  BANK22  BANK23  BANK24  BANK25  BANK26  BANK27  BANK28  BANK29  BANK30  BANK3
      +1  BANK32  BANK33  BANK34  BANK35  BANK36  BANK37
  6040 ;;      Params:         0       0       0       0       0       0       0       0       0       0       0       0       
      +0       0       0       0       0       0       0       0       0       0       0       0       0       0       0       
      +0       0       0       0       0       0       0
  6041 ;;      Locals:         0       0       0       0       0       0       0       0       0       0       0       0       
      +0       0       0       0       0       0       0       0       0       0       0       0       0       0       0       
      +0       0       0       0       0       0       0
  6042 ;;      Temps:          0       0       0       0       0       0       0       0       0       0       0       0       
      +0       0       0       0       0       0       0       0       0       0       0       0       0       0       0       
      +0       0       0       0       0       0       0
  6043 ;;      Totals:         0       0       0       0       0       0       0       0       0       0       0       0       
      +0       0       0       0       0       0       0       0       0       0       0       0       0       0       0       
      +0       0       0       0       0       0       0
  6044 ;;Total ram usage:        0 bytes
  6045 ;; Hardware stack levels used:    1
  6046 ;; This function calls:
  6047 ;;		Nothing
  6048 ;; This function is called by:
  6049 ;;		_EXT_INT_Initialize
  6050 ;;		_INT0_CallBack
  6051 ;; This function uses a non-reentrant model
  6052 ;;
  6053                           
  6054                           	psect	text62
  6055  003834                     __ptext62:
  6056                           	callstack 0
  6057  003834                     _INT0_DefaultInterruptHandler:
  6058                           	callstack 119
  6059  003834  0012               	return		;funcret
  6060  003836                     __end_of_INT0_DefaultInterruptHandler:
  6061                           	callstack 0
  6062                           
  6063 ;; *************** function _CAN1_ISR *****************
  6064 ;; Defined at:
  6065 ;;		line 618 in file "mcc_generated_files/can1.c"
  6066 ;; Parameters:    Size  Location     Type
  6067 ;;		None
  6068 ;; Auto vars:     Size  Location     Type
  6069 ;;		None
  6070 ;; Return value:  Size  Location     Type
  6071 ;;                  1    wreg      void 
  6072 ;; Registers used:
  6073 ;;		wreg, pclath, tosl, cstack
  6074 ;; Tracked objects:
  6075 ;;		On entry : 0/0
  6076 ;;		On exit  : 0/0
  6077 ;;		Unchanged: 0/0
  6078 ;; Data sizes:     COMRAM   BANK5   BANK6   BANK7   BANK8   BANK9  BANK10  BANK11  BANK12  BANK13  BANK14  BANK15  BANK1
      +6  BANK17  BANK18  BANK19  BANK20  BANK21  BANK22  BANK23  BANK24  BANK25  BANK26  BANK27  BANK28  BANK29  BANK30  BANK3
      +1  BANK32  BANK33  BANK34  BANK35  BANK36  BANK37
  6079 ;;      Params:         0       0       0       0       0       0       0       0       0       0       0       0       
      +0       0       0       0       0       0       0       0       0       0       0       0       0       0       0       
      +0       0       0       0       0       0       0
  6080 ;;      Locals:         0       0       0       0       0       0       0       0       0       0       0       0       
      +0       0       0       0       0       0       0       0       0       0       0       0       0       0       0       
      +0       0       0       0       0       0       0
  6081 ;;      Temps:          0       0       0       0       0       0       0       0       0       0       0       0       
      +0       0       0       0       0       0       0       0       0       0       0       0       0       0       0       
      +0       0       0       0       0       0       0
  6082 ;;      Totals:         0       0       0       0       0       0       0       0       0       0       0       0       
      +0       0       0       0       0       0       0       0       0       0       0       0       0       0       0       
      +0       0       0       0       0       0       0
  6083 ;;Total ram usage:        0 bytes
  6084 ;; Hardware stack levels used:    1
  6085 ;; Hardware stack levels required when called:    1
  6086 ;; This function calls:
  6087 ;;		Absolute function
  6088 ;;		_DefaultBusErrorHandler
  6089 ;;		_DefaultBusWakeUpActivityHandler
  6090 ;;		_DefaultInvalidMessageHandler
  6091 ;;		_DefaultModeChangeHandler
  6092 ;;		_DefaultRxBufferOverflowHandler
  6093 ;;		_DefaultSystemErrorHandler
  6094 ;;		_DefaultTxAttemptHandler
  6095 ;; This function is called by:
  6096 ;;		_INTERRUPT_InterruptManager
  6097 ;; This function uses a non-reentrant model
  6098 ;;
  6099                           
  6100                           	psect	text63
  6101  00287A                     __ptext63:
  6102                           	callstack 0
  6103  00287A                     _CAN1_ISR:
  6104                           	callstack 120
  6105  00287A                     
  6106                           ;mcc_generated_files/can1.c: 620:     if (1 == C1INTHbits.IVMIF)
  6107  00287A  0101               	movlb	1	; () banked
  6108  00287C  AF1D               	btfss	29,7,b	;volatile
  6109  00287E  EF43  F014         	goto	i2u238_41
  6110  002882  EF45  F014         	goto	i2u238_40
  6111  002886                     i2u238_41:
  6112  002886  EF54  F014         	goto	i2l4497
  6113  00288A                     i2u238_40:
  6114  00288A                     
  6115                           ; BSR set to: 1
  6116                           ;mcc_generated_files/can1.c: 621:     {;mcc_generated_files/can1.c: 622:         CAN1_In
      +                          validMessageHandler();
  6117  00288A  D802               	call	i2u239_48
  6118  00288C  EF52  F014         	goto	i2u239_49
  6119  002890                     i2u239_48:
  6120  002890  0005               	push	
  6121  002892  6EFA               	movwf	pclath,c
  6122  002894  0105               	movlb	5	; () banked
  6123  002896  5190               	movf	_CAN1_InvalidMessageHandler& (0+255),w,b
  6124  002898  6EFD               	movwf	tosl,c
  6125  00289A  5191               	movf	(_CAN1_InvalidMessageHandler+1)& (0+255),w,b
  6126  00289C  6EFE               	movwf	tosh,c
  6127  00289E  6AFF               	clrf	tosu,c
  6128  0028A0  50FA               	movf	pclath,w,c
  6129  0028A2  0012               	return		;indir
  6130  0028A4                     i2u239_49:
  6131  0028A4                     
  6132                           ;mcc_generated_files/can1.c: 623:         C1INTHbits.IVMIF = 0;
  6133  0028A4  0101               	movlb	1	; () banked
  6134  0028A6  9F1D               	bcf	29,7,b	;volatile
  6135  0028A8                     i2l4497:
  6136                           
  6137                           ; BSR set to: 1
  6138                           ;mcc_generated_files/can1.c: 626:     if (1 == C1INTHbits.WAKIF)
  6139  0028A8  AD1D               	btfss	29,6,b	;volatile
  6140  0028AA  EF59  F014         	goto	i2u240_41
  6141  0028AE  EF5B  F014         	goto	i2u240_40
  6142  0028B2                     i2u240_41:
  6143  0028B2  EF6A  F014         	goto	i2l4503
  6144  0028B6                     i2u240_40:
  6145  0028B6                     
  6146                           ; BSR set to: 1
  6147                           ;mcc_generated_files/can1.c: 627:     {;mcc_generated_files/can1.c: 628:         CAN1_Bu
      +                          sWakeUpActivityHandler();
  6148  0028B6  D802               	call	i2u241_48
  6149  0028B8  EF68  F014         	goto	i2u241_49
  6150  0028BC                     i2u241_48:
  6151  0028BC  0005               	push	
  6152  0028BE  6EFA               	movwf	pclath,c
  6153  0028C0  0105               	movlb	5	; () banked
  6154  0028C2  518E               	movf	_CAN1_BusWakeUpActivityHandler& (0+255),w,b
  6155  0028C4  6EFD               	movwf	tosl,c
  6156  0028C6  518F               	movf	(_CAN1_BusWakeUpActivityHandler+1)& (0+255),w,b
  6157  0028C8  6EFE               	movwf	tosh,c
  6158  0028CA  6AFF               	clrf	tosu,c
  6159  0028CC  50FA               	movf	pclath,w,c
  6160  0028CE  0012               	return		;indir
  6161  0028D0                     i2u241_49:
  6162  0028D0                     
  6163                           ;mcc_generated_files/can1.c: 629:         C1INTHbits.WAKIF = 0;
  6164  0028D0  0101               	movlb	1	; () banked
  6165  0028D2  9D1D               	bcf	29,6,b	;volatile
  6166  0028D4                     i2l4503:
  6167                           
  6168                           ; BSR set to: 1
  6169                           ;mcc_generated_files/can1.c: 632:     if (1 == C1INTHbits.CERRIF)
  6170  0028D4  AB1D               	btfss	29,5,b	;volatile
  6171  0028D6  EF6F  F014         	goto	i2u242_41
  6172  0028DA  EF71  F014         	goto	i2u242_40
  6173  0028DE                     i2u242_41:
  6174  0028DE  EF80  F014         	goto	i2l4509
  6175  0028E2                     i2u242_40:
  6176  0028E2                     
  6177                           ; BSR set to: 1
  6178                           ;mcc_generated_files/can1.c: 633:     {;mcc_generated_files/can1.c: 634:         CAN1_Bu
      +                          sErrorHandler();
  6179  0028E2  D802               	call	i2u243_48
  6180  0028E4  EF7E  F014         	goto	i2u243_49
  6181  0028E8                     i2u243_48:
  6182  0028E8  0005               	push	
  6183  0028EA  6EFA               	movwf	pclath,c
  6184  0028EC  0105               	movlb	5	; () banked
  6185  0028EE  518C               	movf	_CAN1_BusErrorHandler& (0+255),w,b
  6186  0028F0  6EFD               	movwf	tosl,c
  6187  0028F2  518D               	movf	(_CAN1_BusErrorHandler+1)& (0+255),w,b
  6188  0028F4  6EFE               	movwf	tosh,c
  6189  0028F6  6AFF               	clrf	tosu,c
  6190  0028F8  50FA               	movf	pclath,w,c
  6191  0028FA  0012               	return		;indir
  6192  0028FC                     i2u243_49:
  6193  0028FC                     
  6194                           ;mcc_generated_files/can1.c: 635:         C1INTHbits.CERRIF = 0;
  6195  0028FC  0101               	movlb	1	; () banked
  6196  0028FE  9B1D               	bcf	29,5,b	;volatile
  6197  002900                     i2l4509:
  6198                           
  6199                           ; BSR set to: 1
  6200                           ;mcc_generated_files/can1.c: 638:     if (1 == C1INTLbits.MODIF)
  6201  002900  A71C               	btfss	28,3,b	;volatile
  6202  002902  EF85  F014         	goto	i2u244_41
  6203  002906  EF87  F014         	goto	i2u244_40
  6204  00290A                     i2u244_41:
  6205  00290A  EF96  F014         	goto	i2l4515
  6206  00290E                     i2u244_40:
  6207  00290E                     
  6208                           ; BSR set to: 1
  6209                           ;mcc_generated_files/can1.c: 639:     {;mcc_generated_files/can1.c: 640:         CAN1_Mo
      +                          deChangeHandler();
  6210  00290E  D802               	call	i2u245_48
  6211  002910  EF94  F014         	goto	i2u245_49
  6212  002914                     i2u245_48:
  6213  002914  0005               	push	
  6214  002916  6EFA               	movwf	pclath,c
  6215  002918  0105               	movlb	5	; () banked
  6216  00291A  518A               	movf	_CAN1_ModeChangeHandler& (0+255),w,b
  6217  00291C  6EFD               	movwf	tosl,c
  6218  00291E  518B               	movf	(_CAN1_ModeChangeHandler+1)& (0+255),w,b
  6219  002920  6EFE               	movwf	tosh,c
  6220  002922  6AFF               	clrf	tosu,c
  6221  002924  50FA               	movf	pclath,w,c
  6222  002926  0012               	return		;indir
  6223  002928                     i2u245_49:
  6224  002928                     
  6225                           ;mcc_generated_files/can1.c: 641:         C1INTLbits.MODIF = 0;
  6226  002928  0101               	movlb	1	; () banked
  6227  00292A  971C               	bcf	28,3,b	;volatile
  6228  00292C                     i2l4515:
  6229                           
  6230                           ; BSR set to: 1
  6231                           ;mcc_generated_files/can1.c: 644:     if (1 == C1INTHbits.SERRIF)
  6232  00292C  A91D               	btfss	29,4,b	;volatile
  6233  00292E  EF9B  F014         	goto	i2u246_41
  6234  002932  EF9D  F014         	goto	i2u246_40
  6235  002936                     i2u246_41:
  6236  002936  EFAC  F014         	goto	i2l4521
  6237  00293A                     i2u246_40:
  6238  00293A                     
  6239                           ; BSR set to: 1
  6240                           ;mcc_generated_files/can1.c: 645:     {;mcc_generated_files/can1.c: 646:         CAN1_Sy
      +                          stemErrorHandler();
  6241  00293A  D802               	call	i2u247_48
  6242  00293C  EFAA  F014         	goto	i2u247_49
  6243  002940                     i2u247_48:
  6244  002940  0005               	push	
  6245  002942  6EFA               	movwf	pclath,c
  6246  002944  0105               	movlb	5	; () banked
  6247  002946  5188               	movf	_CAN1_SystemErrorHandler& (0+255),w,b
  6248  002948  6EFD               	movwf	tosl,c
  6249  00294A  5189               	movf	(_CAN1_SystemErrorHandler+1)& (0+255),w,b
  6250  00294C  6EFE               	movwf	tosh,c
  6251  00294E  6AFF               	clrf	tosu,c
  6252  002950  50FA               	movf	pclath,w,c
  6253  002952  0012               	return		;indir
  6254  002954                     i2u247_49:
  6255  002954                     
  6256                           ;mcc_generated_files/can1.c: 647:         C1INTHbits.SERRIF = 0;
  6257  002954  0101               	movlb	1	; () banked
  6258  002956  991D               	bcf	29,4,b	;volatile
  6259  002958                     i2l4521:
  6260                           
  6261                           ; BSR set to: 1
  6262                           ;mcc_generated_files/can1.c: 650:     if (1 == C1INTHbits.TXATIF)
  6263  002958  A51D               	btfss	29,2,b	;volatile
  6264  00295A  EFB1  F014         	goto	i2u248_41
  6265  00295E  EFB3  F014         	goto	i2u248_40
  6266  002962                     i2u248_41:
  6267  002962  EFC9  F014         	goto	i2l420
  6268  002966                     i2u248_40:
  6269  002966                     
  6270                           ; BSR set to: 1
  6271                           ;mcc_generated_files/can1.c: 651:     {;mcc_generated_files/can1.c: 652:         CAN1_Tx
      +                          AttemptHandler();
  6272  002966  D802               	call	i2u249_48
  6273  002968  EFC0  F014         	goto	i2u249_49
  6274  00296C                     i2u249_48:
  6275  00296C  0005               	push	
  6276  00296E  6EFA               	movwf	pclath,c
  6277  002970  0105               	movlb	5	; () banked
  6278  002972  5186               	movf	_CAN1_TxAttemptHandler& (0+255),w,b
  6279  002974  6EFD               	movwf	tosl,c
  6280  002976  5187               	movf	(_CAN1_TxAttemptHandler+1)& (0+255),w,b
  6281  002978  6EFE               	movwf	tosh,c
  6282  00297A  6AFF               	clrf	tosu,c
  6283  00297C  50FA               	movf	pclath,w,c
  6284  00297E  0012               	return		;indir
  6285  002980                     i2u249_49:
  6286  002980                     
  6287                           ;mcc_generated_files/can1.c: 653:         if (1 == C1TXQSTALbits.TXATIF)
  6288  002980  0101               	movlb	1	; () banked
  6289  002982  A954               	btfss	84,4,b	;volatile
  6290  002984  EFC6  F014         	goto	i2u250_41
  6291  002988  EFC8  F014         	goto	i2u250_40
  6292  00298C                     i2u250_41:
  6293  00298C  EFC9  F014         	goto	i2l420
  6294  002990                     i2u250_40:
  6295  002990                     
  6296                           ; BSR set to: 1
  6297                           ;mcc_generated_files/can1.c: 654:         {;mcc_generated_files/can1.c: 655:            
      +                           C1TXQSTALbits.TXATIF = 0;
  6298  002990  9954               	bcf	84,4,b	;volatile
  6299  002992                     i2l420:
  6300                           
  6301                           ; BSR set to: 1
  6302                           ;mcc_generated_files/can1.c: 659:     if (1 == C1INTHbits.RXOVIF)
  6303  002992  A71D               	btfss	29,3,b	;volatile
  6304  002994  EFCE  F014         	goto	i2u251_41
  6305  002998  EFD0  F014         	goto	i2u251_40
  6306  00299C                     i2u251_41:
  6307  00299C  EFE6  F014         	goto	i2l422
  6308  0029A0                     i2u251_40:
  6309  0029A0                     
  6310                           ; BSR set to: 1
  6311                           ;mcc_generated_files/can1.c: 660:     {;mcc_generated_files/can1.c: 661:         CAN1_Rx
      +                          BufferOverflowHandler();
  6312  0029A0  D802               	call	i2u252_48
  6313  0029A2  EFDD  F014         	goto	i2u252_49
  6314  0029A6                     i2u252_48:
  6315  0029A6  0005               	push	
  6316  0029A8  6EFA               	movwf	pclath,c
  6317  0029AA  0105               	movlb	5	; () banked
  6318  0029AC  5184               	movf	_CAN1_RxBufferOverflowHandler& (0+255),w,b
  6319  0029AE  6EFD               	movwf	tosl,c
  6320  0029B0  5185               	movf	(_CAN1_RxBufferOverflowHandler+1)& (0+255),w,b
  6321  0029B2  6EFE               	movwf	tosh,c
  6322  0029B4  6AFF               	clrf	tosu,c
  6323  0029B6  50FA               	movf	pclath,w,c
  6324  0029B8  0012               	return		;indir
  6325  0029BA                     i2u252_49:
  6326  0029BA                     
  6327                           ;mcc_generated_files/can1.c: 662:         if (1 == C1FIFOSTA1Lbits.RXOVIF)
  6328  0029BA  0101               	movlb	1	; () banked
  6329  0029BC  A760               	btfss	96,3,b	;volatile
  6330  0029BE  EFE3  F014         	goto	i2u253_41
  6331  0029C2  EFE5  F014         	goto	i2u253_40
  6332  0029C6                     i2u253_41:
  6333  0029C6  EFE6  F014         	goto	i2l422
  6334  0029CA                     i2u253_40:
  6335  0029CA                     
  6336                           ; BSR set to: 1
  6337                           ;mcc_generated_files/can1.c: 663:         {;mcc_generated_files/can1.c: 664:            
      +                           C1FIFOSTA1Lbits.RXOVIF = 0;
  6338  0029CA  9760               	bcf	96,3,b	;volatile
  6339  0029CC                     i2l422:
  6340                           
  6341                           ; BSR set to: 1
  6342                           ;mcc_generated_files/can1.c: 668:     PIR0bits.CANIF = 0;
  6343  0029CC  9CAE               	bcf	174,6,c	;volatile
  6344  0029CE                     
  6345                           ; BSR set to: 1
  6346  0029CE  0012               	return		;funcret
  6347  0029D0                     __end_of_CAN1_ISR:
  6348                           	callstack 0
  6349                           
  6350 ;; *************** function _DefaultTxAttemptHandler *****************
  6351 ;; Defined at:
  6352 ;;		line 141 in file "mcc_generated_files/can1.c"
  6353 ;; Parameters:    Size  Location     Type
  6354 ;;		None
  6355 ;; Auto vars:     Size  Location     Type
  6356 ;;		None
  6357 ;; Return value:  Size  Location     Type
  6358 ;;                  1    wreg      void 
  6359 ;; Registers used:
  6360 ;;		None
  6361 ;; Tracked objects:
  6362 ;;		On entry : 0/0
  6363 ;;		On exit  : 0/0
  6364 ;;		Unchanged: 0/0
  6365 ;; Data sizes:     COMRAM   BANK5   BANK6   BANK7   BANK8   BANK9  BANK10  BANK11  BANK12  BANK13  BANK14  BANK15  BANK1
      +6  BANK17  BANK18  BANK19  BANK20  BANK21  BANK22  BANK23  BANK24  BANK25  BANK26  BANK27  BANK28  BANK29  BANK30  BANK3
      +1  BANK32  BANK33  BANK34  BANK35  BANK36  BANK37
  6366 ;;      Params:         0       0       0       0       0       0       0       0       0       0       0       0       
      +0       0       0       0       0       0       0       0       0       0       0       0       0       0       0       
      +0       0       0       0       0       0       0
  6367 ;;      Locals:         0       0       0       0       0       0       0       0       0       0       0       0       
      +0       0       0       0       0       0       0       0       0       0       0       0       0       0       0       
      +0       0       0       0       0       0       0
  6368 ;;      Temps:          0       0       0       0       0       0       0       0       0       0       0       0       
      +0       0       0       0       0       0       0       0       0       0       0       0       0       0       0       
      +0       0       0       0       0       0       0
  6369 ;;      Totals:         0       0       0       0       0       0       0       0       0       0       0       0       
      +0       0       0       0       0       0       0       0       0       0       0       0       0       0       0       
      +0       0       0       0       0       0       0
  6370 ;;Total ram usage:        0 bytes
  6371 ;; Hardware stack levels used:    1
  6372 ;; This function calls:
  6373 ;;		Nothing
  6374 ;; This function is called by:
  6375 ;;		_CAN1_ErrorNotificationInterruptEnable
  6376 ;;		_CAN1_ISR
  6377 ;; This function uses a non-reentrant model
  6378 ;;
  6379                           
  6380                           	psect	text64
  6381  003836                     __ptext64:
  6382                           	callstack 0
  6383  003836                     _DefaultTxAttemptHandler:
  6384                           	callstack 120
  6385  003836  0012               	return		;funcret
  6386  003838                     __end_of_DefaultTxAttemptHandler:
  6387                           	callstack 0
  6388                           
  6389 ;; *************** function _DefaultSystemErrorHandler *****************
  6390 ;; Defined at:
  6391 ;;		line 137 in file "mcc_generated_files/can1.c"
  6392 ;; Parameters:    Size  Location     Type
  6393 ;;		None
  6394 ;; Auto vars:     Size  Location     Type
  6395 ;;		None
  6396 ;; Return value:  Size  Location     Type
  6397 ;;                  1    wreg      void 
  6398 ;; Registers used:
  6399 ;;		None
  6400 ;; Tracked objects:
  6401 ;;		On entry : 0/0
  6402 ;;		On exit  : 0/0
  6403 ;;		Unchanged: 0/0
  6404 ;; Data sizes:     COMRAM   BANK5   BANK6   BANK7   BANK8   BANK9  BANK10  BANK11  BANK12  BANK13  BANK14  BANK15  BANK1
      +6  BANK17  BANK18  BANK19  BANK20  BANK21  BANK22  BANK23  BANK24  BANK25  BANK26  BANK27  BANK28  BANK29  BANK30  BANK3
      +1  BANK32  BANK33  BANK34  BANK35  BANK36  BANK37
  6405 ;;      Params:         0       0       0       0       0       0       0       0       0       0       0       0       
      +0       0       0       0       0       0       0       0       0       0       0       0       0       0       0       
      +0       0       0       0       0       0       0
  6406 ;;      Locals:         0       0       0       0       0       0       0       0       0       0       0       0       
      +0       0       0       0       0       0       0       0       0       0       0       0       0       0       0       
      +0       0       0       0       0       0       0
  6407 ;;      Temps:          0       0       0       0       0       0       0       0       0       0       0       0       
      +0       0       0       0       0       0       0       0       0       0       0       0       0       0       0       
      +0       0       0       0       0       0       0
  6408 ;;      Totals:         0       0       0       0       0       0       0       0       0       0       0       0       
      +0       0       0       0       0       0       0       0       0       0       0       0       0       0       0       
      +0       0       0       0       0       0       0
  6409 ;;Total ram usage:        0 bytes
  6410 ;; Hardware stack levels used:    1
  6411 ;; This function calls:
  6412 ;;		Nothing
  6413 ;; This function is called by:
  6414 ;;		_CAN1_ErrorNotificationInterruptEnable
  6415 ;;		_CAN1_ISR
  6416 ;; This function uses a non-reentrant model
  6417 ;;
  6418                           
  6419                           	psect	text65
  6420  003838                     __ptext65:
  6421                           	callstack 0
  6422  003838                     _DefaultSystemErrorHandler:
  6423                           	callstack 120
  6424  003838  0012               	return		;funcret
  6425  00383A                     __end_of_DefaultSystemErrorHandler:
  6426                           	callstack 0
  6427                           
  6428 ;; *************** function _DefaultRxBufferOverflowHandler *****************
  6429 ;; Defined at:
  6430 ;;		line 145 in file "mcc_generated_files/can1.c"
  6431 ;; Parameters:    Size  Location     Type
  6432 ;;		None
  6433 ;; Auto vars:     Size  Location     Type
  6434 ;;		None
  6435 ;; Return value:  Size  Location     Type
  6436 ;;                  1    wreg      void 
  6437 ;; Registers used:
  6438 ;;		None
  6439 ;; Tracked objects:
  6440 ;;		On entry : 0/0
  6441 ;;		On exit  : 0/0
  6442 ;;		Unchanged: 0/0
  6443 ;; Data sizes:     COMRAM   BANK5   BANK6   BANK7   BANK8   BANK9  BANK10  BANK11  BANK12  BANK13  BANK14  BANK15  BANK1
      +6  BANK17  BANK18  BANK19  BANK20  BANK21  BANK22  BANK23  BANK24  BANK25  BANK26  BANK27  BANK28  BANK29  BANK30  BANK3
      +1  BANK32  BANK33  BANK34  BANK35  BANK36  BANK37
  6444 ;;      Params:         0       0       0       0       0       0       0       0       0       0       0       0       
      +0       0       0       0       0       0       0       0       0       0       0       0       0       0       0       
      +0       0       0       0       0       0       0
  6445 ;;      Locals:         0       0       0       0       0       0       0       0       0       0       0       0       
      +0       0       0       0       0       0       0       0       0       0       0       0       0       0       0       
      +0       0       0       0       0       0       0
  6446 ;;      Temps:          0       0       0       0       0       0       0       0       0       0       0       0       
      +0       0       0       0       0       0       0       0       0       0       0       0       0       0       0       
      +0       0       0       0       0       0       0
  6447 ;;      Totals:         0       0       0       0       0       0       0       0       0       0       0       0       
      +0       0       0       0       0       0       0       0       0       0       0       0       0       0       0       
      +0       0       0       0       0       0       0
  6448 ;;Total ram usage:        0 bytes
  6449 ;; Hardware stack levels used:    1
  6450 ;; This function calls:
  6451 ;;		Nothing
  6452 ;; This function is called by:
  6453 ;;		_CAN1_ErrorNotificationInterruptEnable
  6454 ;;		_CAN1_ISR
  6455 ;; This function uses a non-reentrant model
  6456 ;;
  6457                           
  6458                           	psect	text66
  6459  00383A                     __ptext66:
  6460                           	callstack 0
  6461  00383A                     _DefaultRxBufferOverflowHandler:
  6462                           	callstack 120
  6463  00383A  0012               	return		;funcret
  6464  00383C                     __end_of_DefaultRxBufferOverflowHandler:
  6465                           	callstack 0
  6466                           
  6467 ;; *************** function _DefaultModeChangeHandler *****************
  6468 ;; Defined at:
  6469 ;;		line 133 in file "mcc_generated_files/can1.c"
  6470 ;; Parameters:    Size  Location     Type
  6471 ;;		None
  6472 ;; Auto vars:     Size  Location     Type
  6473 ;;		None
  6474 ;; Return value:  Size  Location     Type
  6475 ;;                  1    wreg      void 
  6476 ;; Registers used:
  6477 ;;		None
  6478 ;; Tracked objects:
  6479 ;;		On entry : 0/0
  6480 ;;		On exit  : 0/0
  6481 ;;		Unchanged: 0/0
  6482 ;; Data sizes:     COMRAM   BANK5   BANK6   BANK7   BANK8   BANK9  BANK10  BANK11  BANK12  BANK13  BANK14  BANK15  BANK1
      +6  BANK17  BANK18  BANK19  BANK20  BANK21  BANK22  BANK23  BANK24  BANK25  BANK26  BANK27  BANK28  BANK29  BANK30  BANK3
      +1  BANK32  BANK33  BANK34  BANK35  BANK36  BANK37
  6483 ;;      Params:         0       0       0       0       0       0       0       0       0       0       0       0       
      +0       0       0       0       0       0       0       0       0       0       0       0       0       0       0       
      +0       0       0       0       0       0       0
  6484 ;;      Locals:         0       0       0       0       0       0       0       0       0       0       0       0       
      +0       0       0       0       0       0       0       0       0       0       0       0       0       0       0       
      +0       0       0       0       0       0       0
  6485 ;;      Temps:          0       0       0       0       0       0       0       0       0       0       0       0       
      +0       0       0       0       0       0       0       0       0       0       0       0       0       0       0       
      +0       0       0       0       0       0       0
  6486 ;;      Totals:         0       0       0       0       0       0       0       0       0       0       0       0       
      +0       0       0       0       0       0       0       0       0       0       0       0       0       0       0       
      +0       0       0       0       0       0       0
  6487 ;;Total ram usage:        0 bytes
  6488 ;; Hardware stack levels used:    1
  6489 ;; This function calls:
  6490 ;;		Nothing
  6491 ;; This function is called by:
  6492 ;;		_CAN1_ErrorNotificationInterruptEnable
  6493 ;;		_CAN1_ISR
  6494 ;; This function uses a non-reentrant model
  6495 ;;
  6496                           
  6497                           	psect	text67
  6498  00383C                     __ptext67:
  6499                           	callstack 0
  6500  00383C                     _DefaultModeChangeHandler:
  6501                           	callstack 120
  6502  00383C  0012               	return		;funcret
  6503  00383E                     __end_of_DefaultModeChangeHandler:
  6504                           	callstack 0
  6505                           
  6506 ;; *************** function _DefaultInvalidMessageHandler *****************
  6507 ;; Defined at:
  6508 ;;		line 121 in file "mcc_generated_files/can1.c"
  6509 ;; Parameters:    Size  Location     Type
  6510 ;;		None
  6511 ;; Auto vars:     Size  Location     Type
  6512 ;;		None
  6513 ;; Return value:  Size  Location     Type
  6514 ;;                  1    wreg      void 
  6515 ;; Registers used:
  6516 ;;		None
  6517 ;; Tracked objects:
  6518 ;;		On entry : 0/0
  6519 ;;		On exit  : 0/0
  6520 ;;		Unchanged: 0/0
  6521 ;; Data sizes:     COMRAM   BANK5   BANK6   BANK7   BANK8   BANK9  BANK10  BANK11  BANK12  BANK13  BANK14  BANK15  BANK1
      +6  BANK17  BANK18  BANK19  BANK20  BANK21  BANK22  BANK23  BANK24  BANK25  BANK26  BANK27  BANK28  BANK29  BANK30  BANK3
      +1  BANK32  BANK33  BANK34  BANK35  BANK36  BANK37
  6522 ;;      Params:         0       0       0       0       0       0       0       0       0       0       0       0       
      +0       0       0       0       0       0       0       0       0       0       0       0       0       0       0       
      +0       0       0       0       0       0       0
  6523 ;;      Locals:         0       0       0       0       0       0       0       0       0       0       0       0       
      +0       0       0       0       0       0       0       0       0       0       0       0       0       0       0       
      +0       0       0       0       0       0       0
  6524 ;;      Temps:          0       0       0       0       0       0       0       0       0       0       0       0       
      +0       0       0       0       0       0       0       0       0       0       0       0       0       0       0       
      +0       0       0       0       0       0       0
  6525 ;;      Totals:         0       0       0       0       0       0       0       0       0       0       0       0       
      +0       0       0       0       0       0       0       0       0       0       0       0       0       0       0       
      +0       0       0       0       0       0       0
  6526 ;;Total ram usage:        0 bytes
  6527 ;; Hardware stack levels used:    1
  6528 ;; This function calls:
  6529 ;;		Nothing
  6530 ;; This function is called by:
  6531 ;;		_CAN1_ErrorNotificationInterruptEnable
  6532 ;;		_CAN1_ISR
  6533 ;; This function uses a non-reentrant model
  6534 ;;
  6535                           
  6536                           	psect	text68
  6537  00383E                     __ptext68:
  6538                           	callstack 0
  6539  00383E                     _DefaultInvalidMessageHandler:
  6540                           	callstack 120
  6541  00383E  0012               	return		;funcret
  6542  003840                     __end_of_DefaultInvalidMessageHandler:
  6543                           	callstack 0
  6544                           
  6545 ;; *************** function _DefaultBusWakeUpActivityHandler *****************
  6546 ;; Defined at:
  6547 ;;		line 125 in file "mcc_generated_files/can1.c"
  6548 ;; Parameters:    Size  Location     Type
  6549 ;;		None
  6550 ;; Auto vars:     Size  Location     Type
  6551 ;;		None
  6552 ;; Return value:  Size  Location     Type
  6553 ;;                  1    wreg      void 
  6554 ;; Registers used:
  6555 ;;		None
  6556 ;; Tracked objects:
  6557 ;;		On entry : 0/0
  6558 ;;		On exit  : 0/0
  6559 ;;		Unchanged: 0/0
  6560 ;; Data sizes:     COMRAM   BANK5   BANK6   BANK7   BANK8   BANK9  BANK10  BANK11  BANK12  BANK13  BANK14  BANK15  BANK1
      +6  BANK17  BANK18  BANK19  BANK20  BANK21  BANK22  BANK23  BANK24  BANK25  BANK26  BANK27  BANK28  BANK29  BANK30  BANK3
      +1  BANK32  BANK33  BANK34  BANK35  BANK36  BANK37
  6561 ;;      Params:         0       0       0       0       0       0       0       0       0       0       0       0       
      +0       0       0       0       0       0       0       0       0       0       0       0       0       0       0       
      +0       0       0       0       0       0       0
  6562 ;;      Locals:         0       0       0       0       0       0       0       0       0       0       0       0       
      +0       0       0       0       0       0       0       0       0       0       0       0       0       0       0       
      +0       0       0       0       0       0       0
  6563 ;;      Temps:          0       0       0       0       0       0       0       0       0       0       0       0       
      +0       0       0       0       0       0       0       0       0       0       0       0       0       0       0       
      +0       0       0       0       0       0       0
  6564 ;;      Totals:         0       0       0       0       0       0       0       0       0       0       0       0       
      +0       0       0       0       0       0       0       0       0       0       0       0       0       0       0       
      +0       0       0       0       0       0       0
  6565 ;;Total ram usage:        0 bytes
  6566 ;; Hardware stack levels used:    1
  6567 ;; This function calls:
  6568 ;;		Nothing
  6569 ;; This function is called by:
  6570 ;;		_CAN1_ErrorNotificationInterruptEnable
  6571 ;;		_CAN1_ISR
  6572 ;; This function uses a non-reentrant model
  6573 ;;
  6574                           
  6575                           	psect	text69
  6576  003840                     __ptext69:
  6577                           	callstack 0
  6578  003840                     _DefaultBusWakeUpActivityHandler:
  6579                           	callstack 120
  6580  003840  0012               	return		;funcret
  6581  003842                     __end_of_DefaultBusWakeUpActivityHandler:
  6582                           	callstack 0
  6583                           
  6584 ;; *************** function _DefaultBusErrorHandler *****************
  6585 ;; Defined at:
  6586 ;;		line 129 in file "mcc_generated_files/can1.c"
  6587 ;; Parameters:    Size  Location     Type
  6588 ;;		None
  6589 ;; Auto vars:     Size  Location     Type
  6590 ;;		None
  6591 ;; Return value:  Size  Location     Type
  6592 ;;                  1    wreg      void 
  6593 ;; Registers used:
  6594 ;;		None
  6595 ;; Tracked objects:
  6596 ;;		On entry : 0/0
  6597 ;;		On exit  : 0/0
  6598 ;;		Unchanged: 0/0
  6599 ;; Data sizes:     COMRAM   BANK5   BANK6   BANK7   BANK8   BANK9  BANK10  BANK11  BANK12  BANK13  BANK14  BANK15  BANK1
      +6  BANK17  BANK18  BANK19  BANK20  BANK21  BANK22  BANK23  BANK24  BANK25  BANK26  BANK27  BANK28  BANK29  BANK30  BANK3
      +1  BANK32  BANK33  BANK34  BANK35  BANK36  BANK37
  6600 ;;      Params:         0       0       0       0       0       0       0       0       0       0       0       0       
      +0       0       0       0       0       0       0       0       0       0       0       0       0       0       0       
      +0       0       0       0       0       0       0
  6601 ;;      Locals:         0       0       0       0       0       0       0       0       0       0       0       0       
      +0       0       0       0       0       0       0       0       0       0       0       0       0       0       0       
      +0       0       0       0       0       0       0
  6602 ;;      Temps:          0       0       0       0       0       0       0       0       0       0       0       0       
      +0       0       0       0       0       0       0       0       0       0       0       0       0       0       0       
      +0       0       0       0       0       0       0
  6603 ;;      Totals:         0       0       0       0       0       0       0       0       0       0       0       0       
      +0       0       0       0       0       0       0       0       0       0       0       0       0       0       0       
      +0       0       0       0       0       0       0
  6604 ;;Total ram usage:        0 bytes
  6605 ;; Hardware stack levels used:    1
  6606 ;; This function calls:
  6607 ;;		Nothing
  6608 ;; This function is called by:
  6609 ;;		_CAN1_ErrorNotificationInterruptEnable
  6610 ;;		_CAN1_ISR
  6611 ;; This function uses a non-reentrant model
  6612 ;;
  6613                           
  6614                           	psect	text70
  6615  003842                     __ptext70:
  6616                           	callstack 0
  6617  003842                     _DefaultBusErrorHandler:
  6618                           	callstack 120
  6619  003842  0012               	return		;funcret
  6620  003844                     __end_of_DefaultBusErrorHandler:
  6621                           	callstack 0
  6622                           
  6623                           ;
  6624                           ; Interrupt Vector Table @ 0x8
  6625                           ;
  6626                           
  6627                           	psect	ivt0x8
  6628  000008                     __pivt0x8:
  6629                           	callstack 0
  6630  000008                     ivt0x8_base:
  6631                           	callstack 0
  6632                           
  6633                           ; high-priority vector
  6634  000008  EF77  F016         	goto	_INTERRUPT_InterruptManager
  6635  000018                     	org	16
  6636                           
  6637                           ; low-priority vector
  6638  000018  00FF               	reset	
  6639                           
  6640                           	psect	text71
  6641  000000                     __ptext71:
  6642                           	callstack 0
  6643  000000                     
  6644                           	psect	rparam
  6645  0000                     
  6646                           	psect	idloc
  6647                           
  6648                           ;Config register IDLOC0 @ 0x200000
  6649                           ;	unspecified, using default values
  6650  200000                     	org	2097152
  6651  200000  0FFF               	dw	4095
  6652                           
  6653                           ;Config register IDLOC1 @ 0x200002
  6654                           ;	unspecified, using default values
  6655  200002                     	org	2097154
  6656  200002  0FFF               	dw	4095
  6657                           
  6658                           ;Config register IDLOC2 @ 0x200004
  6659                           ;	unspecified, using default values
  6660  200004                     	org	2097156
  6661  200004  0FFF               	dw	4095
  6662                           
  6663                           ;Config register IDLOC3 @ 0x200006
  6664                           ;	unspecified, using default values
  6665  200006                     	org	2097158
  6666  200006  0FFF               	dw	4095
  6667                           
  6668                           ;Config register IDLOC4 @ 0x200008
  6669                           ;	unspecified, using default values
  6670  200008                     	org	2097160
  6671  200008  0FFF               	dw	4095
  6672                           
  6673                           ;Config register IDLOC5 @ 0x20000A
  6674                           ;	unspecified, using default values
  6675  20000A                     	org	2097162
  6676  20000A  0FFF               	dw	4095
  6677                           
  6678                           ;Config register IDLOC6 @ 0x20000C
  6679                           ;	unspecified, using default values
  6680  20000C                     	org	2097164
  6681  20000C  0FFF               	dw	4095
  6682                           
  6683                           ;Config register IDLOC7 @ 0x20000E
  6684                           ;	unspecified, using default values
  6685  20000E                     	org	2097166
  6686  20000E  0FFF               	dw	4095
  6687                           
  6688                           ;Config register IDLOC8 @ 0x200010
  6689                           ;	unspecified, using default values
  6690  200010                     	org	2097168
  6691  200010  0FFF               	dw	4095
  6692                           
  6693                           ;Config register IDLOC9 @ 0x200012
  6694                           ;	unspecified, using default values
  6695  200012                     	org	2097170
  6696  200012  0FFF               	dw	4095
  6697                           
  6698                           ;Config register IDLOC10 @ 0x200014
  6699                           ;	unspecified, using default values
  6700  200014                     	org	2097172
  6701  200014  0FFF               	dw	4095
  6702                           
  6703                           ;Config register IDLOC11 @ 0x200016
  6704                           ;	unspecified, using default values
  6705  200016                     	org	2097174
  6706  200016  0FFF               	dw	4095
  6707                           
  6708                           ;Config register IDLOC12 @ 0x200018
  6709                           ;	unspecified, using default values
  6710  200018                     	org	2097176
  6711  200018  0FFF               	dw	4095
  6712                           
  6713                           ;Config register IDLOC13 @ 0x20001A
  6714                           ;	unspecified, using default values
  6715  20001A                     	org	2097178
  6716  20001A  0FFF               	dw	4095
  6717                           
  6718                           ;Config register IDLOC14 @ 0x20001C
  6719                           ;	unspecified, using default values
  6720  20001C                     	org	2097180
  6721  20001C  0FFF               	dw	4095
  6722                           
  6723                           ;Config register IDLOC15 @ 0x20001E
  6724                           ;	unspecified, using default values
  6725  20001E                     	org	2097182
  6726  20001E  0FFF               	dw	4095
  6727                           
  6728                           	psect	config
  6729                           
  6730                           ;Config register CONFIG1 @ 0x300000
  6731                           ;	External Oscillator Selection
  6732                           ;	FEXTOSC = HS, HS (crystal oscillator) above 8 MHz
  6733                           ;	Reset Oscillator Selection
  6734                           ;	RSTOSC = EXTOSC, EXTOSC operating per FEXTOSC bits (device manufacturing default)
  6735  300000                     	org	3145728
  6736  300000  FA                 	db	250
  6737                           
  6738                           ;Config register CONFIG2 @ 0x300001
  6739                           ;	Clock out Enable bit
  6740                           ;	CLKOUTEN = OFF, CLKOUT function is disabled
  6741                           ;	PRLOCKED One-Way Set Enable bit
  6742                           ;	PR1WAY = ON, PRLOCKED bit can be cleared and set only once
  6743                           ;	Clock Switch Enable bit
  6744                           ;	CSWEN = ON, Writing to NOSC and NDIV is allowed
  6745                           ;	JTAG Enable bit
  6746                           ;	JTAGEN = OFF, Disable JTAG Boundary Scan mode, JTAG pins revert to user functions
  6747                           ;	Fail-Safe Clock Monitor Enable bit
  6748                           ;	FCMEN = ON, Fail-Safe Clock Monitor enabled
  6749                           ;	Fail-Safe Clock Monitor -Primary XTAL Enable bit
  6750                           ;	FCMENP = ON, FSCM timer will set FSCMP bit and OSFIF interrupt on Primary XTAL failure
  6751                           ;	Fail-Safe Clock Monitor -Secondary XTAL Enable bit
  6752                           ;	FCMENS = ON, FSCM timer will set FSCMS bit and OSFIF interrupt on Secondary XTAL failu
      +                          re
  6753  300001                     	org	3145729
  6754  300001  EF                 	db	239
  6755                           
  6756                           ;Config register CONFIG3 @ 0x300002
  6757                           ;	MCLR Enable bit
  6758                           ;	MCLRE = EXTMCLR, If LVP = 0, MCLR pin is MCLR; If LVP = 1, RE3 pin function is MCLR
  6759                           ;	Power-up timer selection bits
  6760                           ;	PWRTS = PWRT_OFF, PWRT is disabled
  6761                           ;	Multi-vector enable bit
  6762                           ;	MVECEN = OFF, Interrupt contoller does not use vector table to prioritze interrupts
  6763                           ;	IVTLOCK bit One-way set enable bit
  6764                           ;	IVT1WAY = ON, IVTLOCKED bit can be cleared and set only once
  6765                           ;	Low Power BOR Enable bit
  6766                           ;	LPBOREN = OFF, Low-Power BOR disabled
  6767                           ;	Brown-out Reset Enable bits
  6768                           ;	BOREN = SBORDIS, Brown-out Reset enabled , SBOREN bit is ignored
  6769  300002                     	org	3145730
  6770  300002  F7                 	db	247
  6771                           
  6772                           ;Config register CONFIG4 @ 0x300003
  6773                           ;	Brown-out Reset Voltage Selection bits
  6774                           ;	BORV = VBOR_1P9, Brown-out Reset Voltage (VBOR) set to 1.9V
  6775                           ;	ZCD Disable bit
  6776                           ;	ZCD = OFF, ZCD module is disabled. ZCD can be enabled by setting the ZCDSEN bit of ZCD
      +                          CON
  6777                           ;	PPSLOCK bit One-Way Set Enable bit
  6778                           ;	PPS1WAY = ON, PPSLOCKED bit can be cleared and set only once; PPS registers remain loc
      +                          ked after one clear/set cycle
  6779                           ;	Stack Full/Underflow Reset Enable bit
  6780                           ;	STVREN = ON, Stack full/underflow will cause Reset
  6781                           ;	Low Voltage Programming Enable bit
  6782                           ;	LVP = OFF, HV on MCLR/VPP must be used for programming
  6783                           ;	Extended Instruction Set Enable bit
  6784                           ;	XINST = OFF, Extended Instruction Set and Indexed Addressing Mode disabled
  6785  300003                     	org	3145731
  6786  300003  DF                 	db	223
  6787                           
  6788                           ;Config register CONFIG5 @ 0x300004
  6789                           ;	WDT Period selection bits
  6790                           ;	WDTCPS = WDTCPS_31, Divider ratio 1:65536; software control of WDTPS
  6791                           ;	WDT operating mode
  6792                           ;	WDTE = OFF, WDT Disabled; SWDTEN is ignored
  6793  300004                     	org	3145732
  6794  300004  9F                 	db	159
  6795                           
  6796                           ;Config register CONFIG6 @ 0x300005
  6797                           ;	WDT Window Select bits
  6798                           ;	WDTCWS = WDTCWS_7, window always open (100%); software control; keyed access not requi
      +                          red
  6799                           ;	WDT input clock selector
  6800                           ;	WDTCCS = SC, Software Control
  6801  300005                     	org	3145733
  6802  300005  FF                 	db	255
  6803                           
  6804                           ;Config register CONFIG7 @ 0x300006
  6805                           ;	Boot Block Size selection bits
  6806                           ;	BBSIZE = BBSIZE_512, Boot Block size is 512 words
  6807                           ;	Boot Block enable bit
  6808                           ;	BBEN = OFF, Boot block disabled
  6809                           ;	Storage Area Flash enable bit
  6810                           ;	SAFEN = OFF, SAF disabled
  6811  300006                     	org	3145734
  6812  300006  FF                 	db	255
  6813                           
  6814                           ;Config register CONFIG8 @ 0x300007
  6815                           ;	Boot Block Write Protection bit
  6816                           ;	WRTB = OFF, Boot Block not Write protected
  6817                           ;	Configuration Register Write Protection bit
  6818                           ;	WRTC = OFF, Configuration registers not Write protected
  6819                           ;	Data EEPROM Write Protection bit
  6820                           ;	WRTD = OFF, Data EEPROM not Write protected
  6821                           ;	SAF Write protection bit
  6822                           ;	WRTSAF = OFF, SAF not Write Protected
  6823                           ;	Application Block write protection bit
  6824                           ;	WRTAPP = OFF, Application Block not write protected
  6825  300007                     	org	3145735
  6826  300007  FF                 	db	255
  6827                           
  6828                           ;Config register CONFIG9 @ 0x300008
  6829                           ;	CRC on boot output pin selection
  6830                           ;	BOOTPINSEL = RC5, CRC on boot output pin is RC5
  6831                           ;	CRC on boot output pin enable bit
  6832                           ;	BPEN = OFF, CRC on boot output pin disabled
  6833                           ;	CRC on boot output pin open drain bit
  6834                           ;	ODCON = OFF, Pin drives both high-going and low-going signals
  6835  300008                     	org	3145736
  6836  300008  FF                 	db	255
  6837                           
  6838                           ;Config register CONFIG10 @ 0x300009
  6839                           ;	PFM and Data EEPROM Code Protection bit
  6840                           ;	CP = OFF, PFM and Data EEPROM code protection disabled
  6841  300009                     	org	3145737
  6842  300009  FF                 	db	255
  6843                           
  6844                           ;Config register CONFIG11 @ 0x30000A
  6845                           ;	CRC on boot scan enable for boot area
  6846                           ;	BOOTSCEN = OFF, CRC on boot will not include the boot area of program memory in its ca
      +                          lculation
  6847                           ;	CRC on boot Continue on Error for boot areas bit
  6848                           ;	BOOTCOE = HALT, CRC on boot will stop device if error is detected in boot areas
  6849                           ;	CRC on boot application code scan enable
  6850                           ;	APPSCEN = OFF, CRC on boot will not include the application area of program memory in 
      +                          its calculation
  6851                           ;	CRC on boot SAF area scan enable
  6852                           ;	SAFSCEN = OFF, CRC on boot will not include the SAF area of program memory in its calc
      +                          ulation
  6853                           ;	CRC on boot Data EEPROM scan enable
  6854                           ;	DATASCEN = OFF, CRC on boot will not include data EEPROM in its calculation
  6855                           ;	CRC on boot Config fuses scan enable
  6856                           ;	CFGSCEN = OFF, CRC on boot will not include the configuration fuses in its calculation
  6857                           ;	CRC on boot Continue on Error for non-boot areas bit
  6858                           ;	COE = HALT, CRC on boot will stop device if error is detected in non-boot areas
  6859                           ;	Boot on CRC Enable bit
  6860                           ;	BOOTPOR = OFF, CRC on boot will not run
  6861  30000A                     	org	3145738
  6862  30000A  FF                 	db	255
  6863                           
  6864                           ;Config register CONFIG12 @ 0x30000B
  6865                           ;	Boot Sector Polynomial for CRC on boot bits 31-24
  6866                           ;	BCRCPOLT = hFF, Bits 31:24 of BCRCPOL are 0xFF
  6867  30000B                     	org	3145739
  6868  30000B  FF                 	db	255
  6869                           
  6870                           ;Config register CONFIG13 @ 0x30000C
  6871                           ;	Boot Sector Polynomial for CRC on boot bits 23-16
  6872                           ;	BCRCPOLU = hFF, Bits 23:16 of BCRCPOL are 0xFF
  6873  30000C                     	org	3145740
  6874  30000C  FF                 	db	255
  6875                           
  6876                           ;Config register CONFIG14 @ 0x30000D
  6877                           ;	Boot Sector Polynomial for CRC on boot bits 15-8
  6878                           ;	BCRCPOLH = hFF, Bits 15:8 of BCRCPOL are 0xFF
  6879  30000D                     	org	3145741
  6880  30000D  FF                 	db	255
  6881                           
  6882                           ;Config register CONFIG15 @ 0x30000E
  6883                           ;	Boot Sector Polynomial for CRC on boot bits 7-0
  6884                           ;	BCRCPOLL = hFF, Bits 7:0 of BCRCPOL are 0xFF
  6885  30000E                     	org	3145742
  6886  30000E  FF                 	db	255
  6887                           
  6888                           ;Config register CONFIG16 @ 0x30000F
  6889                           ;	Boot Sector Seed for CRC on boot bits 31-24
  6890                           ;	BCRCSEEDT = hFF, Bits 31:24 of BCRCSEED are 0xFF
  6891  30000F                     	org	3145743
  6892  30000F  FF                 	db	255
  6893                           
  6894                           ;Config register CONFIG17 @ 0x300010
  6895                           ;	Boot Sector Seed for CRC on boot bits 23-16
  6896                           ;	BCRCSEEDU = hFF, Bits 23:16 of BCRCSEED are 0xFF
  6897  300010                     	org	3145744
  6898  300010  FF                 	db	255
  6899                           
  6900                           ;Config register CONFIG18 @ 0x300011
  6901                           ;	Boot Sector Seed for CRC on boot bits 15-8
  6902                           ;	BCRCSEEDH = hFF, Bits 15:8 of BCRCSEED are 0xFF
  6903  300011                     	org	3145745
  6904  300011  FF                 	db	255
  6905                           
  6906                           ;Config register CONFIG19 @ 0x300012
  6907                           ;	Boot Sector Seed for CRC on boot bits 7-0
  6908                           ;	BCRCSEEDL = hFF, Bits 7:0 of BCRCSEED are 0xFF
  6909  300012                     	org	3145746
  6910  300012  FF                 	db	255
  6911                           
  6912                           ;Config register CONFIG20 @ 0x300013
  6913                           ;	unspecified, using default values
  6914                           ;	Boot Sector Expected Result for CRC on boot bits 31-24
  6915                           ;	BCRCEREST = 0xFF, unprogrammed default
  6916  300013                     	org	3145747
  6917  300013  FF                 	db	255
  6918                           
  6919                           ;Config register CONFIG21 @ 0x300014
  6920                           ;	unspecified, using default values
  6921                           ;	Boot Sector Expected Result for CRC on boot bits 23-16
  6922                           ;	BCRCERESU = 0xFF, unprogrammed default
  6923  300014                     	org	3145748
  6924  300014  FF                 	db	255
  6925                           
  6926                           ;Config register CONFIG22 @ 0x300015
  6927                           ;	unspecified, using default values
  6928                           ;	Boot Sector Expected Result for CRC on boot bits 15-8
  6929                           ;	BCRCERESH = 0xFF, unprogrammed default
  6930  300015                     	org	3145749
  6931  300015  FF                 	db	255
  6932                           
  6933                           ;Config register CONFIG23 @ 0x300016
  6934                           ;	unspecified, using default values
  6935                           ;	Boot Sector Expected Result for CRC on boot bits 7-0
  6936                           ;	BCRCERESL = 0xFF, unprogrammed default
  6937  300016                     	org	3145750
  6938  300016  FF                 	db	255
  6939                           
  6940                           ;Config register CONFIG24 @ 0x300017
  6941                           ;	Non-Boot Sector Polynomial for CRC on boot bits 31-24
  6942                           ;	CRCPOLT = hFF, Bits 31:24 of CRCPOL are 0xFF
  6943  300017                     	org	3145751
  6944  300017  FF                 	db	255
  6945                           
  6946                           ;Config register CONFIG25 @ 0x300018
  6947                           ;	Non-Boot Sector Polynomial for CRC on boot bits 23-16
  6948                           ;	CRCPOLU = hFF, Bits 23:16 of CRCPOL are 0xFF
  6949  300018                     	org	3145752
  6950  300018  FF                 	db	255
  6951                           
  6952                           ;Config register CONFIG26 @ 0x300019
  6953                           ;	Non-Boot Sector Polynomial for CRC on boot bits 15-8
  6954                           ;	CRCPOLH = hFF, Bits 15:8 of CRCPOL are 0xFF
  6955  300019                     	org	3145753
  6956  300019  FF                 	db	255
  6957                           
  6958                           ;Config register CONFIG27 @ 0x30001A
  6959                           ;	Non-Boot Sector Polynomial for CRC on boot bits 7-0
  6960                           ;	CRCPOLL = hFF, Bits 7:0 of CRCPOL are 0xFF
  6961  30001A                     	org	3145754
  6962  30001A  FF                 	db	255
  6963                           
  6964                           ;Config register CONFIG28 @ 0x30001B
  6965                           ;	Non-Boot Sector Seed for CRC on boot bits 31-24
  6966                           ;	CRCSEEDT = hFF, Bits 31:24 of CRCSEED are 0xFF
  6967  30001B                     	org	3145755
  6968  30001B  FF                 	db	255
  6969                           
  6970                           ;Config register CONFIG29 @ 0x30001C
  6971                           ;	Non-Boot Sector Seed for CRC on boot bits 23-16
  6972                           ;	CRCSEEDU = hFF, Bits 23:16 of CRCSEED are 0xFF
  6973  30001C                     	org	3145756
  6974  30001C  FF                 	db	255
  6975                           
  6976                           ;Config register CONFIG30 @ 0x30001D
  6977                           ;	Non-Boot Sector Seed for CRC on boot bits 15-8
  6978                           ;	CRCSEEDH = hFF, Bits 15:8 of CRCSEED are 0xFF
  6979  30001D                     	org	3145757
  6980  30001D  FF                 	db	255
  6981                           
  6982                           ;Config register CONFIG31 @ 0x30001E
  6983                           ;	Non-Boot Sector Seed for CRC on boot bits 7-0
  6984                           ;	CRCSEEDL = hFF, Bits 7:0 of CRCSEED are 0xFF
  6985  30001E                     	org	3145758
  6986  30001E  FF                 	db	255
  6987                           
  6988                           ;Config register CONFIG32 @ 0x30001F
  6989                           ;	unspecified, using default values
  6990                           ;	Non-Boot Sector Expected Result for CRC on boot bits 31-24
  6991                           ;	CRCEREST = 0xFF, unprogrammed default
  6992  30001F                     	org	3145759
  6993  30001F  FF                 	db	255
  6994                           
  6995                           ;Config register CONFIG33 @ 0x300020
  6996                           ;	unspecified, using default values
  6997                           ;	Non-Boot Sector Expected Result for CRC on boot bits 23-16
  6998                           ;	CRCERESU = 0xFF, unprogrammed default
  6999  300020                     	org	3145760
  7000  300020  FF                 	db	255
  7001                           
  7002                           ;Config register CONFIG34 @ 0x300021
  7003                           ;	unspecified, using default values
  7004                           ;	Non-Boot Sector Expected Result for CRC on boot bits 15-8
  7005                           ;	CRCERESH = 0xFF, unprogrammed default
  7006  300021                     	org	3145761
  7007  300021  FF                 	db	255
  7008                           
  7009                           ;Config register CONFIG35 @ 0x300022
  7010                           ;	unspecified, using default values
  7011                           ;	Non-Boot Sector Expected Result for CRC on boot bits 7-0
  7012                           ;	CRCERESL = 0xFF, unprogrammed default
  7013  300022                     	org	3145762
  7014  300022  FF                 	db	255
  7015                           
  7016                           ; Padding undefined space
  7017  300023                     	org	3145763
  7018  300023  FF                 	db	255
  7019                           tosu	equ	0x4FF
  7020                           tosh	equ	0x4FE
  7021                           tosl	equ	0x4FD
  7022                           stkptr	equ	0x4FC
  7023                           pclatu	equ	0x4FB
  7024                           pclath	equ	0x4FA
  7025                           pcl	equ	0x4F9
  7026                           tblptru	equ	0x4F8
  7027                           tblptrh	equ	0x4F7
  7028                           tblptrl	equ	0x4F6
  7029                           tablat	equ	0x4F5
  7030                           prodh	equ	0x4F4
  7031                           prodl	equ	0x4F3
  7032                           indf0	equ	0x4EF
  7033                           postinc0	equ	0x4EE
  7034                           postdec0	equ	0x4ED
  7035                           preinc0	equ	0x4EC
  7036                           plusw0	equ	0x4EB
  7037                           fsr0h	equ	0x4EA
  7038                           fsr0l	equ	0x4E9
  7039                           wreg	equ	0x4E8
  7040                           indf1	equ	0x4E7
  7041                           postinc1	equ	0x4E6
  7042                           postdec1	equ	0x4E5
  7043                           preinc1	equ	0x4E4
  7044                           plusw1	equ	0x4E3
  7045                           fsr1h	equ	0x4E2
  7046                           fsr1l	equ	0x4E1
  7047                           bsr	equ	0x4E0
  7048                           indf2	equ	0x4DF
  7049                           postinc2	equ	0x4DE
  7050                           postdec2	equ	0x4DD
  7051                           preinc2	equ	0x4DC
  7052                           plusw2	equ	0x4DB
  7053                           fsr2h	equ	0x4DA
  7054                           fsr2l	equ	0x4D9
  7055                           status	equ	0x4D8

Data Sizes:
    Strings     0
    Constant    49
    Data        34
    BSS         86
    Persistent  14
    Stack       0

Auto Spaces:
    Space          Size  Autos    Used
    COMRAM           95     58      88
    BANK5           160      4     108
    BANK6           256      0       0
    BANK7           256      0       0
    BANK8           256      0       0
    BANK9           256      0       0
    BANK10          256      0       0
    BANK11          256      0       0
    BANK12          256      0       0
    BANK13          256      0       0
    BANK14          256      0       0
    BANK15          256      0       0
    BANK16          256      0       0
    BANK17          256      0       0
    BANK18          256      0       0
    BANK19          256      0       0
    BANK20          256      0       0
    BANK21          256      0       0
    BANK22          256      0       0
    BANK23          256      0       0
    BANK24          256      0       0
    BANK25          256      0       0
    BANK26          256      0       0
    BANK27          256      0       0
    BANK28          256      0       0
    BANK29          256      0       0
    BANK30          256      0       0
    BANK31          256      0       0
    BANK32          256      0       0
    BANK33          256      0       0
    BANK34          256      0       0
    BANK35          256      0       0
    BANK36          256      0       0
    BANK37          256      0       0

Pointer List with Targets:

    I2C1_Read1ByteRegister@returnValue.data	PTR unsigned char  size(2) Largest target is 0

    I2C1_Read2ByteRegister@returnValue.data	PTR unsigned char  size(2) Largest target is 0

    I2C1_Write1ByteRegister@data.data	PTR unsigned char  size(2) Largest target is 0

    I2C1_Write2ByteRegister@data.data	PTR unsigned char  size(2) Largest target is 0

    I2C1_DO_TX$4019$0	PTR void  size(2) Largest target is 5
		 -> I2C1_ReadDataBlock@bufferBlock(COMRAM[4]), I2C1_Write2ByteRegister@data(COMRAM[2]), I2C1_Write1ByteRegister@data(COMRAM[1]), I2C1_Read2ByteRegister@returnValue(COMRAM[2]), 
		 -> NULL(NULL[0]), I2C1_Read1ByteRegister@returnValue(COMRAM[1]), 

    I2C1_DO_TX_EMPTY$4025$0	PTR void  size(2) Largest target is 5
		 -> I2C1_ReadDataBlock@bufferBlock(COMRAM[4]), I2C1_Write2ByteRegister@data(COMRAM[2]), I2C1_Write1ByteRegister@data(COMRAM[1]), I2C1_Read2ByteRegister@returnValue(COMRAM[2]), 
		 -> NULL(NULL[0]), I2C1_Read1ByteRegister@returnValue(COMRAM[1]), 

    I2C1_DO_RX_EMPTY$4031$0	PTR void  size(2) Largest target is 5
		 -> I2C1_ReadDataBlock@bufferBlock(COMRAM[4]), I2C1_Write2ByteRegister@data(COMRAM[2]), I2C1_Write1ByteRegister@data(COMRAM[1]), I2C1_Read2ByteRegister@returnValue(COMRAM[2]), 
		 -> NULL(NULL[0]), I2C1_Read1ByteRegister@returnValue(COMRAM[1]), 

    cb$0	PTR void  size(2) Largest target is 5
		 -> I2C1_ReadDataBlock@bufferBlock(COMRAM[4]), I2C1_Write2ByteRegister@data(COMRAM[2]), I2C1_Write1ByteRegister@data(COMRAM[1]), I2C1_Read2ByteRegister@returnValue(COMRAM[2]), 
		 -> NULL(NULL[0]), I2C1_Read1ByteRegister@returnValue(COMRAM[1]), 

    Absolute function$0	PTR void  size(2) Largest target is 5
		 -> I2C1_ReadDataBlock@bufferBlock(COMRAM[4]), I2C1_Write2ByteRegister@data(COMRAM[2]), I2C1_Write1ByteRegister@data(COMRAM[1]), I2C1_Read2ByteRegister@returnValue(COMRAM[2]), 
		 -> NULL(NULL[0]), I2C1_Read1ByteRegister@returnValue(COMRAM[1]), 

    cb$0	PTR void  size(2) Largest target is 5
		 -> I2C1_ReadDataBlock@bufferBlock(COMRAM[4]), I2C1_Write2ByteRegister@data(COMRAM[2]), I2C1_Write1ByteRegister@data(COMRAM[1]), I2C1_Read2ByteRegister@returnValue(COMRAM[2]), 
		 -> NULL(NULL[0]), I2C1_Read1ByteRegister@returnValue(COMRAM[1]), 

    S1732$0$0	PTR void  size(2) Largest target is 5
		 -> I2C1_ReadDataBlock@bufferBlock(COMRAM[4]), I2C1_Write2ByteRegister@data(COMRAM[2]), I2C1_Write1ByteRegister@data(COMRAM[1]), I2C1_Read2ByteRegister@returnValue(COMRAM[2]), 
		 -> NULL(NULL[0]), I2C1_Read1ByteRegister@returnValue(COMRAM[1]), 

    memcpy@d1	PTR void  size(2) Largest target is 9727
		 -> RAM(DATA[9727]), rxMsgData(BANK5[8]), 

    memcpy@d	PTR unsigned char  size(2) Largest target is 9727
		 -> RAM(DATA[9727]), rxMsgData(BANK5[8]), 

    memcpy@s1	PTR const void  size(2) Largest target is 9727
		 -> CANDATAdata(BANK5[32]), RAM(DATA[9727]), rxMsgData(BANK5[8]), 

    memcpy@s	PTR const unsigned char  size(2) Largest target is 9727
		 -> CANDATAdata(BANK5[32]), RAM(DATA[9727]), rxMsgData(BANK5[8]), 

    TMR0_SetInterruptHandler@InterruptHandler	PTR FTN()void  size(2) Largest target is 1
		 -> TMR0_DefaultInterruptHandler(), 

    TMR0_InterruptHandler	PTR FTN()void  size(2) Largest target is 1
		 -> TMR0_DefaultInterruptHandler(), Absolute function(), 

    TMR1_SetInterruptHandler@InterruptHandler	PTR FTN()void  size(2) Largest target is 1
		 -> TMR1_DefaultInterruptHandler(), 

    TMR1_InterruptHandler	PTR FTN()void  size(2) Largest target is 1
		 -> TMR1_DefaultInterruptHandler(), Absolute function(), 

    msg.data	PTR unsigned char  size(2) Largest target is 32
		 -> CANDATAdata(BANK5[32]), rxMsgData(BANK5[8]), 

    INT0_SetInterruptHandler@InterruptHandler	PTR FTN()void  size(2) Largest target is 1
		 -> INT0_DefaultInterruptHandler(), 

    INT0_InterruptHandler	PTR FTN()void  size(2) Largest target is 1
		 -> INT0_DefaultInterruptHandler(), Absolute function(), 

    S1732$data_ptr	PTR unsigned char  size(2) Largest target is 5
		 -> I2C1_ReadDataBlock@reg(COMRAM[1]), I2C1_ReadDataBlock@bufferBlock(COMRAM[4]), I2C1_Write2ByteRegister@reg(COMRAM[1]), I2C1_Write2ByteRegister@data(COMRAM[2]), 
		 -> I2C1_Write1ByteRegister@reg(COMRAM[1]), I2C1_Write1ByteRegister@data(COMRAM[1]), I2C1_Read2ByteRegister@reg(COMRAM[1]), I2C1_Read2ByteRegister@returnValue(COMRAM[2]), 
		 -> NULL(NULL[0]), I2C1_Read1ByteRegister@reg(COMRAM[1]), I2C1_Read1ByteRegister@returnValue(COMRAM[1]), 

    I2C1_Status.data_ptr	PTR unsigned char  size(2) Largest target is 5
		 -> I2C1_ReadDataBlock@reg(COMRAM[1]), I2C1_ReadDataBlock@bufferBlock(COMRAM[4]), I2C1_Write2ByteRegister@reg(COMRAM[1]), I2C1_Write2ByteRegister@data(COMRAM[2]), 
		 -> I2C1_Write1ByteRegister@reg(COMRAM[1]), I2C1_Write1ByteRegister@data(COMRAM[1]), I2C1_Read2ByteRegister@reg(COMRAM[1]), I2C1_Read2ByteRegister@returnValue(COMRAM[2]), 
		 -> NULL(NULL[0]), I2C1_Read1ByteRegister@reg(COMRAM[1]), I2C1_Read1ByteRegister@returnValue(COMRAM[1]), 

    S1732$callbackPayload	PTR void [6] size(2) Largest target is 5
		 -> I2C1_ReadDataBlock@bufferBlock(COMRAM[4]), I2C1_Write2ByteRegister@data(COMRAM[2]), I2C1_Write1ByteRegister@data(COMRAM[1]), I2C1_Read2ByteRegister@returnValue(COMRAM[2]), 
		 -> NULL(NULL[0]), I2C1_Read1ByteRegister@returnValue(COMRAM[1]), 

    I2C1_Status.callbackPayload	PTR void [6] size(2) Largest target is 5
		 -> I2C1_ReadDataBlock@bufferBlock(COMRAM[4]), I2C1_Write2ByteRegister@data(COMRAM[2]), I2C1_Write1ByteRegister@data(COMRAM[1]), I2C1_Read2ByteRegister@returnValue(COMRAM[2]), 
		 -> NULL(NULL[0]), I2C1_Read1ByteRegister@returnValue(COMRAM[1]), 

    S1732$callbackTable	PTR FTN(PTR void ,)enum E360[6] size(2) Largest target is 1
		 -> I2C1_CallbackReturnReset(), I2C1_CallbackReturnStop(), Absolute function(), rdBlkRegCompleteHandler(), 
		 -> wr2RegCompleteHandler(), wr1RegCompleteHandler(), rd2RegCompleteHandler(), rd1RegCompleteHandler(), 

    I2C1_Status.callbackTable	PTR FTN(PTR void ,)enum E360[6] size(2) Largest target is 1
		 -> I2C1_CallbackReturnReset(), I2C1_CallbackReturnStop(), Absolute function(), rdBlkRegCompleteHandler(), 
		 -> wr2RegCompleteHandler(), wr1RegCompleteHandler(), rd2RegCompleteHandler(), rd1RegCompleteHandler(), 

    i2c1_fsmStateTable	const PTR FTN()enum E22532[19] size(2) Largest target is 1
		 -> I2C1_DO_BUS_ERROR(), I2C1_DO_BUS_COLLISION(), I2C1_DO_ADDRESS_NACK(), I2C1_DO_RESET(), 
		 -> I2C1_DO_RX_NACK_RESTART(), I2C1_DO_RX_NACK_STOP(), I2C1_DO_TX_ACK(), I2C1_DO_RX_ACK(), 
		 -> I2C1_DO_SEND_STOP(), I2C1_DO_SEND_RESTART(), I2C1_DO_SEND_RESTART_WRITE(), I2C1_DO_SEND_RESTART_READ(), 
		 -> I2C1_DO_RX_EMPTY(), I2C1_DO_TX_EMPTY(), I2C1_DO_RX(), I2C1_DO_TX(), 
		 -> I2C1_DO_SEND_ADR_WRITE(), I2C1_DO_SEND_ADR_READ(), I2C1_DO_IDLE(), 

    ADC_SetActiveClockTuningInterruptHandler@InterruptHandler	PTR FTN()void  size(2) Largest target is 1
		 -> ADC_DefaultActiveClockTuning_ISR(), 

    ADC_SetContext1ThresholdInterruptHandler@InterruptHandler	PTR FTN()void  size(2) Largest target is 1
		 -> ADC_DefaultContext1Threshold_ISR(), 

    ADC_SetADIInterruptHandler@InterruptHandler	PTR FTN()void  size(2) Largest target is 1
		 -> ADC_DefaultADI_ISR(), 

    ADC_Context1Thereshld_ISR	PTR FTN()void  size(2) Largest target is 1
		 -> Absolute function(), ADC_DefaultContext1Threshold_ISR(), 

    ADC_ActiveClockTuning_ISR	PTR FTN()void  size(2) Largest target is 1
		 -> Absolute function(), ADC_DefaultActiveClockTuning_ISR(), 

    ADC_ConversionComplete_ISR	PTR FTN()void  size(2) Largest target is 1
		 -> Absolute function(), ADC_DefaultADI_ISR(), 

    CAN1_SetRxBufferOverFlowInterruptHandler@handler	PTR FTN()void  size(2) Largest target is 1
		 -> DefaultRxBufferOverflowHandler(), 

    CAN1_RxBufferOverflowHandler	PTR FTN()void  size(2) Largest target is 1
		 -> Absolute function(), DefaultRxBufferOverflowHandler(), 

    CAN1_SetTxAttemptInterruptHandler@handler	PTR FTN()void  size(2) Largest target is 1
		 -> DefaultTxAttemptHandler(), 

    CAN1_TxAttemptHandler	PTR FTN()void  size(2) Largest target is 1
		 -> Absolute function(), DefaultTxAttemptHandler(), 

    CAN1_SetSystemErrorInterruptHandler@handler	PTR FTN()void  size(2) Largest target is 1
		 -> DefaultSystemErrorHandler(), 

    CAN1_SystemErrorHandler	PTR FTN()void  size(2) Largest target is 1
		 -> Absolute function(), DefaultSystemErrorHandler(), 

    CAN1_SetModeChangeInterruptHandler@handler	PTR FTN()void  size(2) Largest target is 1
		 -> DefaultModeChangeHandler(), 

    CAN1_ModeChangeHandler	PTR FTN()void  size(2) Largest target is 1
		 -> Absolute function(), DefaultModeChangeHandler(), 

    CAN1_SetBusErrorInterruptHandler@handler	PTR FTN()void  size(2) Largest target is 1
		 -> DefaultBusErrorHandler(), 

    CAN1_BusErrorHandler	PTR FTN()void  size(2) Largest target is 1
		 -> Absolute function(), DefaultBusErrorHandler(), 

    CAN1_SetBusWakeUpActivityInterruptHandler@handler	PTR FTN()void  size(2) Largest target is 1
		 -> DefaultBusWakeUpActivityHandler(), 

    CAN1_BusWakeUpActivityHandler	PTR FTN()void  size(2) Largest target is 1
		 -> Absolute function(), DefaultBusWakeUpActivityHandler(), 

    CAN1_SetInvalidMessageInterruptHandler@handler	PTR FTN()void  size(2) Largest target is 1
		 -> DefaultInvalidMessageHandler(), 

    CAN1_InvalidMessageHandler	PTR FTN()void  size(2) Largest target is 1
		 -> Absolute function(), DefaultInvalidMessageHandler(), 

    CAN1_Transmit@txFifoObj	PTR unsigned char  size(2) Largest target is 9727
		 -> RAM(DATA[9727]), 

    CAN1_Transmit@txCanMsg	PTR struct . size(2) Largest target is 8
		 -> msg(COMRAM[7]), 

    ValidateTransmission@txCanMsg.data	PTR unsigned char  size(2) Largest target is 32
		 -> CANDATAdata(BANK5[32]), rxMsgData(BANK5[8]), 

    ValidateTransmission@txCanMsg	PTR struct . size(2) Largest target is 8
		 -> msg(COMRAM[7]), 

    WriteMessageToFifo@txFifoObj	PTR unsigned char  size(2) Largest target is 9727
		 -> RAM(DATA[9727]), 

    WriteMessageToFifo@txCanMsg.data	PTR unsigned char  size(2) Largest target is 32
		 -> CANDATAdata(BANK5[32]), rxMsgData(BANK5[8]), 

    WriteMessageToFifo@txCanMsg	PTR struct . size(2) Largest target is 8
		 -> msg(COMRAM[7]), 

    sp__memcpy	PTR void  size(2) Largest target is 9727
		 -> RAM(DATA[9727]), rxMsgData(BANK5[8]), 

    S632$data	PTR unsigned char  size(2) Largest target is 32
		 -> CANDATAdata(BANK5[32]), rxMsgData(BANK5[8]), 

    ReadMessageFromFifo@rxCanMsg.data	PTR unsigned char  size(2) Largest target is 32
		 -> CANDATAdata(BANK5[32]), rxMsgData(BANK5[8]), 

    FIFO	const PTR volatile struct CAN_FIFOREG size(2) Largest target is 1
		 -> C1TXQCONL(SFR_1[1]), 

    rdBlkRegCompleteHandler@ptr.data	PTR unsigned char  size(2) Largest target is 0

    S96$data	PTR unsigned char  size(2) Largest target is 0

    bufferBlock.data	PTR unsigned char  size(2) Largest target is 0


Critical Paths under _main in COMRAM

    None.

Critical Paths under _INTERRUPT_InterruptManager in COMRAM

    _TMR1_ISR->_MESSAGESSendEvery100ms
    _ReluctorFreqRead->___lwdiv
    ___lwdiv->___wmul
    _MESSAGESSendEvery100ms->_CANWriteMessage
    _CANWriteMessage->_CAN1_Transmit
    _CAN1_TransmitFIFOStatusGet->_isTxChannel
    _CAN1_Transmit->_WriteMessageToFifo
    _WriteMessageToFifo->_memcpy
    _ValidateTransmission->_GetTxFifoStatus

Critical Paths under _main in BANK5

    _SYSTEM_Initialize->_TMR1_Initialize
    _TMR1_Initialize->_TMR1_SetInterruptHandler
    _TMR0_Initialize->_TMR0_SetInterruptHandler
    _EXT_INT_Initialize->_INT0_SetInterruptHandler
    _CAN1_Initialize->_CAN1_OperationModeSet
    _CAN1_ErrorNotificationInterruptEnable->_CAN1_SetBusErrorInterruptHandler
    _CAN1_ErrorNotificationInterruptEnable->_CAN1_SetBusWakeUpActivityInterruptHandler
    _CAN1_ErrorNotificationInterruptEnable->_CAN1_SetInvalidMessageInterruptHandler
    _CAN1_ErrorNotificationInterruptEnable->_CAN1_SetModeChangeInterruptHandler
    _CAN1_ErrorNotificationInterruptEnable->_CAN1_SetRxBufferOverFlowInterruptHandler
    _CAN1_ErrorNotificationInterruptEnable->_CAN1_SetSystemErrorInterruptHandler
    _CAN1_ErrorNotificationInterruptEnable->_CAN1_SetTxAttemptInterruptHandler
    _ADC_Initialize->_ADC_SetADIInterruptHandler
    _ADC_Initialize->_ADC_SetActiveClockTuningInterruptHandler
    _ADC_Initialize->_ADC_SetContext1ThresholdInterruptHandler

Critical Paths under _INTERRUPT_InterruptManager in BANK5

    None.

Critical Paths under _main in BANK6

    None.

Critical Paths under _INTERRUPT_InterruptManager in BANK6

    None.

Critical Paths under _main in BANK7

    None.

Critical Paths under _INTERRUPT_InterruptManager in BANK7

    None.

Critical Paths under _main in BANK8

    None.

Critical Paths under _INTERRUPT_InterruptManager in BANK8

    None.

Critical Paths under _main in BANK9

    None.

Critical Paths under _INTERRUPT_InterruptManager in BANK9

    None.

Critical Paths under _main in BANK10

    None.

Critical Paths under _INTERRUPT_InterruptManager in BANK10

    None.

Critical Paths under _main in BANK11

    None.

Critical Paths under _INTERRUPT_InterruptManager in BANK11

    None.

Critical Paths under _main in BANK12

    None.

Critical Paths under _INTERRUPT_InterruptManager in BANK12

    None.

Critical Paths under _main in BANK13

    None.

Critical Paths under _INTERRUPT_InterruptManager in BANK13

    None.

Critical Paths under _main in BANK14

    None.

Critical Paths under _INTERRUPT_InterruptManager in BANK14

    None.

Critical Paths under _main in BANK15

    None.

Critical Paths under _INTERRUPT_InterruptManager in BANK15

    None.

Critical Paths under _main in BANK16

    None.

Critical Paths under _INTERRUPT_InterruptManager in BANK16

    None.

Critical Paths under _main in BANK17

    None.

Critical Paths under _INTERRUPT_InterruptManager in BANK17

    None.

Critical Paths under _main in BANK18

    None.

Critical Paths under _INTERRUPT_InterruptManager in BANK18

    None.

Critical Paths under _main in BANK19

    None.

Critical Paths under _INTERRUPT_InterruptManager in BANK19

    None.

Critical Paths under _main in BANK20

    None.

Critical Paths under _INTERRUPT_InterruptManager in BANK20

    None.

Critical Paths under _main in BANK21

    None.

Critical Paths under _INTERRUPT_InterruptManager in BANK21

    None.

Critical Paths under _main in BANK22

    None.

Critical Paths under _INTERRUPT_InterruptManager in BANK22

    None.

Critical Paths under _main in BANK23

    None.

Critical Paths under _INTERRUPT_InterruptManager in BANK23

    None.

Critical Paths under _main in BANK24

    None.

Critical Paths under _INTERRUPT_InterruptManager in BANK24

    None.

Critical Paths under _main in BANK25

    None.

Critical Paths under _INTERRUPT_InterruptManager in BANK25

    None.

Critical Paths under _main in BANK26

    None.

Critical Paths under _INTERRUPT_InterruptManager in BANK26

    None.

Critical Paths under _main in BANK27

    None.

Critical Paths under _INTERRUPT_InterruptManager in BANK27

    None.

Critical Paths under _main in BANK28

    None.

Critical Paths under _INTERRUPT_InterruptManager in BANK28

    None.

Critical Paths under _main in BANK29

    None.

Critical Paths under _INTERRUPT_InterruptManager in BANK29

    None.

Critical Paths under _main in BANK30

    None.

Critical Paths under _INTERRUPT_InterruptManager in BANK30

    None.

Critical Paths under _main in BANK31

    None.

Critical Paths under _INTERRUPT_InterruptManager in BANK31

    None.

Critical Paths under _main in BANK32

    None.

Critical Paths under _INTERRUPT_InterruptManager in BANK32

    None.

Critical Paths under _main in BANK33

    None.

Critical Paths under _INTERRUPT_InterruptManager in BANK33

    None.

Critical Paths under _main in BANK34

    None.

Critical Paths under _INTERRUPT_InterruptManager in BANK34

    None.

Critical Paths under _main in BANK35

    None.

Critical Paths under _INTERRUPT_InterruptManager in BANK35

    None.

Critical Paths under _main in BANK36

    None.

Critical Paths under _INTERRUPT_InterruptManager in BANK36

    None.

Critical Paths under _main in BANK37

    None.

Critical Paths under _INTERRUPT_InterruptManager in BANK37

    None.

Call Graph Tables:

 ---------------------------------------------------------------------------------
 (Depth) Function   	        Calls       Base Space   Used Autos Params    Refs
 ---------------------------------------------------------------------------------
 (0) _main                                                 0     0      0    1652
                 _DELAY_milliseconds
                     _PARAMETERSInit
                  _SYSTEM_Initialize
 ---------------------------------------------------------------------------------
 (1) _SYSTEM_Initialize                                    0     0      0    1478
                     _ADC_Initialize
                    _CAN1_Initialize
                 _EXT_INT_Initialize
                    _I2C1_Initialize
               _INTERRUPT_Initialize
              _OSCILLATOR_Initialize
             _PIN_MANAGER_Initialize
                     _PMD_Initialize
                    _TMR0_Initialize
                    _TMR1_Initialize
 ---------------------------------------------------------------------------------
 (2) _TMR1_Initialize                                      2     2      0      98
                                              2 BANK5      2     2      0
           _TMR1_SetInterruptHandler
 ---------------------------------------------------------------------------------
 (3) _TMR1_SetInterruptHandler                             2     0      2      98
                                              0 BANK5      2     0      2
 ---------------------------------------------------------------------------------
 (2) _TMR0_Initialize                                      0     0      0      98
           _TMR0_SetInterruptHandler
 ---------------------------------------------------------------------------------
 (3) _TMR0_SetInterruptHandler                             2     0      2      98
                                              0 BANK5      2     0      2
 ---------------------------------------------------------------------------------
 (2) _PMD_Initialize                                       0     0      0       0
 ---------------------------------------------------------------------------------
 (2) _PIN_MANAGER_Initialize                               0     0      0       0
 ---------------------------------------------------------------------------------
 (2) _OSCILLATOR_Initialize                                0     0      0       0
 ---------------------------------------------------------------------------------
 (2) _INTERRUPT_Initialize                                 0     0      0       0
 ---------------------------------------------------------------------------------
 (2) _I2C1_Initialize                                      0     0      0       0
 ---------------------------------------------------------------------------------
 (2) _EXT_INT_Initialize                                   0     0      0      98
           _INT0_SetInterruptHandler
 ---------------------------------------------------------------------------------
 (3) _INT0_SetInterruptHandler                             2     0      2      98
                                              0 BANK5      2     0      2
 ---------------------------------------------------------------------------------
 (2) _CAN1_Initialize                                      0     0      0     890
          _CAN1_BitRateConfiguration
_CAN1_ErrorNotificationInterruptEnab
              _CAN1_OperationModeSet
         _CAN1_RX_FIFO_Configuration
_CAN1_RX_FIFO_FilterMaskConfiguratio
             _CAN1_RX_FIFO_ResetInfo
         _CAN1_TX_FIFO_Configuration
 ---------------------------------------------------------------------------------
 (3) _CAN1_TX_FIFO_Configuration                           0     0      0       0
 ---------------------------------------------------------------------------------
 (3) _CAN1_RX_FIFO_ResetInfo                               1     1      0      68
                                              0 BANK5      1     1      0
 ---------------------------------------------------------------------------------
 (3) _CAN1_RX_FIFO_FilterMaskConfiguration                 0     0      0       0
 ---------------------------------------------------------------------------------
 (3) _CAN1_RX_FIFO_Configuration                           0     0      0       0
 ---------------------------------------------------------------------------------
 (3) _CAN1_OperationModeSet                                3     3      0     136
                                              0 BANK5      3     3      0
              _CAN1_OperationModeGet
 ---------------------------------------------------------------------------------
 (4) _CAN1_OperationModeGet                                0     0      0       0
 ---------------------------------------------------------------------------------
 (3) _CAN1_ErrorNotificationInterruptEnable                0     0      0     686
   _CAN1_SetBusErrorInterruptHandler
_CAN1_SetBusWakeUpActivityInterruptH
_CAN1_SetInvalidMessageInterruptHand
 _CAN1_SetModeChangeInterruptHandler
_CAN1_SetRxBufferOverFlowInterruptHa
_CAN1_SetSystemErrorInterruptHandler
  _CAN1_SetTxAttemptInterruptHandler
 ---------------------------------------------------------------------------------
 (4) _CAN1_SetTxAttemptInterruptHandler                    2     0      2      98
                                              0 BANK5      2     0      2
 ---------------------------------------------------------------------------------
 (4) _CAN1_SetSystemErrorInterruptHandler                  2     0      2      98
                                              0 BANK5      2     0      2
 ---------------------------------------------------------------------------------
 (4) _CAN1_SetRxBufferOverFlowInterruptHandler             2     0      2      98
                                              0 BANK5      2     0      2
 ---------------------------------------------------------------------------------
 (4) _CAN1_SetModeChangeInterruptHandler                   2     0      2      98
                                              0 BANK5      2     0      2
 ---------------------------------------------------------------------------------
 (4) _CAN1_SetInvalidMessageInterruptHandler               2     0      2      98
                                              0 BANK5      2     0      2
 ---------------------------------------------------------------------------------
 (4) _CAN1_SetBusWakeUpActivityInterruptHandler            2     0      2      98
                                              0 BANK5      2     0      2
 ---------------------------------------------------------------------------------
 (4) _CAN1_SetBusErrorInterruptHandler                     2     0      2      98
                                              0 BANK5      2     0      2
 ---------------------------------------------------------------------------------
 (3) _CAN1_BitRateConfiguration                            0     0      0       0
 ---------------------------------------------------------------------------------
 (2) _ADC_Initialize                                       0     0      0     294
         _ADC_SetADIInterruptHandler
_ADC_SetActiveClockTuningInterruptHa
_ADC_SetContext1ThresholdInterruptHa
 ---------------------------------------------------------------------------------
 (3) _ADC_SetContext1ThresholdInterruptHandler             2     0      2      98
                                              0 BANK5      2     0      2
 ---------------------------------------------------------------------------------
 (3) _ADC_SetActiveClockTuningInterruptHandler             2     0      2      98
                                              0 BANK5      2     0      2
 ---------------------------------------------------------------------------------
 (3) _ADC_SetADIInterruptHandler                           2     0      2      98
                                              0 BANK5      2     0      2
 ---------------------------------------------------------------------------------
 (1) _PARAMETERSInit                                       0     0      0       0
 ---------------------------------------------------------------------------------
 (1) _DELAY_milliseconds                                   3     1      2     174
                                              0 BANK5      3     1      2
 ---------------------------------------------------------------------------------
 Estimated maximum stack depth 4
 ---------------------------------------------------------------------------------
 (Depth) Function   	        Calls       Base Space   Used Autos Params    Refs
 ---------------------------------------------------------------------------------
 (5) _INTERRUPT_InterruptManager                           4     4      0    8785
                                             54 COMRAM     4     4      0
                           _CAN1_ISR
                           _INT0_ISR
                           _TMR0_ISR
                           _TMR1_ISR
 ---------------------------------------------------------------------------------
 (6) _TMR1_ISR                                             0     0      0    8785
             _MESSAGESSendEvery100ms
                   _ReluctorFreqRead
                      _TMR1_CallBack
                    _TMR1_WriteTimer
 ---------------------------------------------------------------------------------
 (7) _TMR1_WriteTimer                                      2     0      2     240
                                              0 COMRAM     2     0      2
 ---------------------------------------------------------------------------------
 (7) _TMR1_CallBack                                        0     0      0       0
                   Absolute function *
       _TMR1_DefaultInterruptHandler *
 ---------------------------------------------------------------------------------
 (8) _TMR1_DefaultInterruptHandler                         0     0      0       0
 ---------------------------------------------------------------------------------
 (7) _ReluctorFreqRead                                     0     0      0    2819
                            ___lbdiv
                            ___lwdiv
                             ___wmul
 ---------------------------------------------------------------------------------
 (8) ___wmul                                               6     2      4    2115
                                              0 COMRAM     6     2      4
 ---------------------------------------------------------------------------------
 (8) ___lwdiv                                              7     3      4     466
                                              6 COMRAM     7     3      4
                             ___wmul (ARG)
 ---------------------------------------------------------------------------------
 (8) ___lbdiv                                              4     3      1     238
                                              0 COMRAM     4     3      1
 ---------------------------------------------------------------------------------
 (7) _MESSAGESSendEvery100ms                               2     2      0    5726
                                             52 COMRAM     2     2      0
                    _CANWriteMessage
 ---------------------------------------------------------------------------------
 (8) _CANWriteMessage                                     23    10     13    5726
                                             29 COMRAM    23    10     13
                      _CAN1_Transmit
         _CAN1_TransmitFIFOStatusGet
            i2_CAN1_OperationModeGet
            i2_CAN1_OperationModeSet
 ---------------------------------------------------------------------------------
 (9) i2_CAN1_OperationModeSet                              3     3      0     136
                                              0 COMRAM     3     3      0
            i2_CAN1_OperationModeGet
 ---------------------------------------------------------------------------------
 (9) _CAN1_TransmitFIFOStatusGet                           2     2      0     158
                                              2 COMRAM     2     2      0
                    _GetTxFifoStatus
                        _isTxChannel
 ---------------------------------------------------------------------------------
 (9) _CAN1_Transmit                                        6     4      2    1988
                                             23 COMRAM     6     4      2
               _ValidateTransmission
                 _WriteMessageToFifo
                        _isTxChannel
 ---------------------------------------------------------------------------------
 (10) _isTxChannel                                         2     2      0      68
                                              0 COMRAM     2     2      0
 ---------------------------------------------------------------------------------
 (10) _WriteMessageToFifo                                 12     8      4    1356
                                             11 COMRAM    12     8      4
                             _memcpy
 ---------------------------------------------------------------------------------
 (11) _memcpy                                             11     5      6     599
                                              0 COMRAM    11     5      6
 ---------------------------------------------------------------------------------
 (10) _ValidateTransmission                                9     7      2     281
                                              1 COMRAM     9     7      2
                    _GetTxFifoStatus
            i2_CAN1_OperationModeGet
 ---------------------------------------------------------------------------------
 (10) i2_CAN1_OperationModeGet                             0     0      0       0
 ---------------------------------------------------------------------------------
 (10) _GetTxFifoStatus                                     1     1      0      22
                                              0 COMRAM     1     1      0
 ---------------------------------------------------------------------------------
 (6) _TMR0_ISR                                             0     0      0       0
                      _TMR0_CallBack
 ---------------------------------------------------------------------------------
 (7) _TMR0_CallBack                                        0     0      0       0
                   Absolute function *
       _TMR0_DefaultInterruptHandler *
 ---------------------------------------------------------------------------------
 (8) _TMR0_DefaultInterruptHandler                         0     0      0       0
 ---------------------------------------------------------------------------------
 (6) _INT0_ISR                                             0     0      0       0
                      _INT0_CallBack
 ---------------------------------------------------------------------------------
 (7) _INT0_CallBack                                        0     0      0       0
                   Absolute function *
       _INT0_DefaultInterruptHandler *
                 _ReluctorCountTeeth
                   _ReluctorPosCount
 ---------------------------------------------------------------------------------
 (8) _ReluctorPosCount                                     0     0      0       0
 ---------------------------------------------------------------------------------
 (8) _ReluctorCountTeeth                                   0     0      0       0
 ---------------------------------------------------------------------------------
 (8) _INT0_DefaultInterruptHandler                         0     0      0       0
 ---------------------------------------------------------------------------------
 (6) _CAN1_ISR                                             0     0      0       0
                   Absolute function *
             _DefaultBusErrorHandler *
    _DefaultBusWakeUpActivityHandler *
       _DefaultInvalidMessageHandler *
           _DefaultModeChangeHandler *
     _DefaultRxBufferOverflowHandler *
          _DefaultSystemErrorHandler *
            _DefaultTxAttemptHandler *
 ---------------------------------------------------------------------------------
 (7) _DefaultTxAttemptHandler                              0     0      0       0
 ---------------------------------------------------------------------------------
 (7) _DefaultSystemErrorHandler                            0     0      0       0
 ---------------------------------------------------------------------------------
 (7) _DefaultRxBufferOverflowHandler                       0     0      0       0
 ---------------------------------------------------------------------------------
 (7) _DefaultModeChangeHandler                             0     0      0       0
 ---------------------------------------------------------------------------------
 (7) _DefaultInvalidMessageHandler                         0     0      0       0
 ---------------------------------------------------------------------------------
 (7) _DefaultBusWakeUpActivityHandler                      0     0      0       0
 ---------------------------------------------------------------------------------
 (7) _DefaultBusErrorHandler                               0     0      0       0
 ---------------------------------------------------------------------------------
 (8) Absolute function(Fake)                               2     0      2       0
 ---------------------------------------------------------------------------------
 Estimated maximum stack depth 11
 ---------------------------------------------------------------------------------

 Call Graph Graphs:

 _main (ROOT)
   _DELAY_milliseconds
   _PARAMETERSInit
   _SYSTEM_Initialize
     _ADC_Initialize
       _ADC_SetADIInterruptHandler
       _ADC_SetActiveClockTuningInterruptHandler
       _ADC_SetContext1ThresholdInterruptHandler
     _CAN1_Initialize
       _CAN1_BitRateConfiguration
       _CAN1_ErrorNotificationInterruptEnable
         _CAN1_SetBusErrorInterruptHandler
         _CAN1_SetBusWakeUpActivityInterruptHandler
         _CAN1_SetInvalidMessageInterruptHandler
         _CAN1_SetModeChangeInterruptHandler
         _CAN1_SetRxBufferOverFlowInterruptHandler
         _CAN1_SetSystemErrorInterruptHandler
         _CAN1_SetTxAttemptInterruptHandler
       _CAN1_OperationModeSet
         _CAN1_OperationModeGet
       _CAN1_RX_FIFO_Configuration
       _CAN1_RX_FIFO_FilterMaskConfiguration
       _CAN1_RX_FIFO_ResetInfo
       _CAN1_TX_FIFO_Configuration
     _EXT_INT_Initialize
       _INT0_SetInterruptHandler
     _I2C1_Initialize
     _INTERRUPT_Initialize
     _OSCILLATOR_Initialize
     _PIN_MANAGER_Initialize
     _PMD_Initialize
     _TMR0_Initialize
       _TMR0_SetInterruptHandler
     _TMR1_Initialize
       _TMR1_SetInterruptHandler

 _INTERRUPT_InterruptManager (ROOT)
   _CAN1_ISR
     Absolute function(Fake) *
     _DefaultBusErrorHandler *
     _DefaultBusWakeUpActivityHandler *
     _DefaultInvalidMessageHandler *
     _DefaultModeChangeHandler *
     _DefaultRxBufferOverflowHandler *
     _DefaultSystemErrorHandler *
     _DefaultTxAttemptHandler *
   _INT0_ISR
     _INT0_CallBack
       Absolute function(Fake) *
       _INT0_DefaultInterruptHandler *
       _ReluctorCountTeeth *
       _ReluctorPosCount *
   _TMR0_ISR
     _TMR0_CallBack
       Absolute function(Fake) *
       _TMR0_DefaultInterruptHandler *
   _TMR1_ISR
     _MESSAGESSendEvery100ms
       _CANWriteMessage
         _CAN1_Transmit
           _ValidateTransmission
             _GetTxFifoStatus
             i2_CAN1_OperationModeGet
           _WriteMessageToFifo
             _memcpy
           _isTxChannel
         _CAN1_TransmitFIFOStatusGet
           _GetTxFifoStatus
           _isTxChannel
         i2_CAN1_OperationModeGet
         i2_CAN1_OperationModeSet
           i2_CAN1_OperationModeGet
     _ReluctorFreqRead
       ___lbdiv
       ___lwdiv
         ___wmul (ARG)
       ___wmul
     _TMR1_CallBack
       Absolute function(Fake) *
       _TMR1_DefaultInterruptHandler *
     _TMR1_WriteTimer

 Address spaces:
Name               Size   Autos  Total    Cost      Usage
BIGRAM            20FF      0       0      71        0.0%
EEDATA             400      0       0       0        0.0%
BITBANK37          100      0       0      70        0.0%
BANK37             100      0       0      68        0.0%
BITBANK36          100      0       0      66        0.0%
BANK36             100      0       0      67        0.0%
BITBANK35          100      0       0      64        0.0%
BANK35             100      0       0      65        0.0%
BITBANK34          100      0       0      62        0.0%
BANK34             100      0       0      63        0.0%
BITBANK33          100      0       0      60        0.0%
BANK33             100      0       0      61        0.0%
BITBANK32          100      0       0      58        0.0%
BANK32             100      0       0      59        0.0%
BITBANK31          100      0       0      56        0.0%
BANK31             100      0       0      57        0.0%
BITBANK30          100      0       0      54        0.0%
BANK30             100      0       0      55        0.0%
BITBANK29          100      0       0      52        0.0%
BANK29             100      0       0      53        0.0%
BITBANK28          100      0       0      50        0.0%
BANK28             100      0       0      51        0.0%
BITBANK27          100      0       0      48        0.0%
BANK27             100      0       0      49        0.0%
BITBANK26          100      0       0      46        0.0%
BANK26             100      0       0      47        0.0%
BITBANK25          100      0       0      44        0.0%
BANK25             100      0       0      45        0.0%
BITBANK24          100      0       0      42        0.0%
BANK24             100      0       0      43        0.0%
BITBANK23          100      0       0      40        0.0%
BANK23             100      0       0      41        0.0%
BITBANK22          100      0       0      38        0.0%
BANK22             100      0       0      39        0.0%
BITBANK21          100      0       0      36        0.0%
BANK21             100      0       0      37        0.0%
BITBANK20          100      0       0      34        0.0%
BANK20             100      0       0      35        0.0%
BITBANK19          100      0       0      32        0.0%
BANK19             100      0       0      33        0.0%
BITBANK18          100      0       0      30        0.0%
BANK18             100      0       0      31        0.0%
BITBANK17          100      0       0      28        0.0%
BANK17             100      0       0      29        0.0%
BITBANK16          100      0       0      26        0.0%
BANK16             100      0       0      27        0.0%
BITBANK15          100      0       0      24        0.0%
BANK15             100      0       0      25        0.0%
BITBANK14          100      0       0      22        0.0%
BANK14             100      0       0      23        0.0%
BITBANK13          100      0       0      20        0.0%
BANK13             100      0       0      21        0.0%
BITBANK12          100      0       0      18        0.0%
BANK12             100      0       0      19        0.0%
BITBANK11          100      0       0      16        0.0%
BANK11             100      0       0      17        0.0%
BITBANK10          100      0       0      14        0.0%
BANK10             100      0       0      15        0.0%
BITBANK9           100      0       0      12        0.0%
BANK9              100      0       0      13        0.0%
BITBANK8           100      0       0      10        0.0%
BANK8              100      0       0      11        0.0%
BITBANK7           100      0       0       8        0.0%
BANK7              100      0       0       9        0.0%
BITBANK6           100      0       0       6        0.0%
BANK6              100      0       0       7        0.0%
BITBANK5            A0      0       0       4        0.0%
BANK5               A0      4      6C       5       67.5%
BITCOMRAM           5F      0       0       0        0.0%
COMRAM              5F     3A      58       1       92.6%
BITSFR_5             0      0       0     200        0.0%
SFR_5                0      0       0     200        0.0%
BITSFR_4             0      0       0     200        0.0%
SFR_4                0      0       0     200        0.0%
BITSFR_3             0      0       0     200        0.0%
SFR_3                0      0       0     200        0.0%
BITSFR_2             0      0       0     200        0.0%
SFR_2                0      0       0     200        0.0%
BITSFR_1             0      0       0     200        0.0%
SFR_1                0      0       0     200        0.0%
BITSFR               0      0       0     200        0.0%
SFR                  0      0       0     200        0.0%
STACK                0      0       0       2        0.0%
NULL                 0      0       0       0        0.0%
ABS                  0      0      C4      69        0.0%
DATA                 0      0      C4       3        0.0%
CODE                 0      0       0       0        0.0%


Microchip Technology PIC18 Macro Assembler V2.31 build 20201012212115 
Symbol Table                                                                                   Sat Oct 30 14:51:23 2021

                                     ___wmul@multiplicand 0503  
                                                     l300 2F94  
                                                     l303 37AE  
                                                     l127 3828  
                                                     l400 37F4  
                                                     l403 37D6  
                                                     l412 37CC  
                                                     l406 37C2  
                                                     l270 3502  
                                                     l409 37B8  
                                                     l273 3764  
                                                     l282 3778  
                                                     l276 382E  
                                                     l285 312A  
                                                     l535 2E60  
                                                     l279 3750  
                                                     l296 2F58  
                                                     l289 3324  
                                                     l394 37E0  
                                                     l299 2F92  
                                                     l397 37EA  
                                                     l663 3812  
                                                     l745 31A2  
                                                     l666 37FE  
                                                     l669 3808  
                                            ?_isTxChannel 0501  
                                                     l897 35E4  
                              __end_of_DELAY_milliseconds 34D6  
                              ??_INT0_SetInterruptHandler 05CA  
                                         _timer1ReloadVal 0557  
                                ?_DefaultTxAttemptHandler 0501  
                                                     _msg 0550  
                                 __size_of_PMD_Initialize 0028  
                                                     prod 0004F3  
                                                     tosl 0004FD  
                                                     wreg 0004E8  
                                           _INT0_CallBack 346C  
                                    _I2C1_DO_RX_NACK_STOP 000000  
                              _CAN1_InvalidMessageHandler 0590  
                                                    l1202 373C  
                                                    l1321 33B8  
                                                    l1260 370E  
                                                    l1413 379A  
                                                    l1271 34D4  
                                                    l1263 3688  
                                                    l1257 35B8  
                                                    l1196 37A4  
                                                    l4101 34DC  
                                                    l1357 3790  
                                                    l4111 3766  
                                                    l4031 37D8  
                                                    l4103 34F0  
                                                    l4033 37E2  
                                                    l4041 37B0  
                                                    l4121 3120  
                                                    l4113 30B2  
                                                    l4105 34F2  
                                                    l1385 3660  
                                                    l1539 3786  
                                                    l4035 37EC  
                                                    l4043 37C4  
                                                    l4123 3124  
                                                    l4115 3114  
                                                    l4131 2F10  
                                                    l4107 3752  
                                                    l4037 37CE  
                                                    l4125 3128  
                                                    l4117 3116  
                                                    l4045 37A6  
                                                    l4141 2F72  
                                                    l4133 2F22  
                                                    l4109 373E  
                                                    l4301 32E8  
                                                    l4205 379C  
                                                    l4151 3800  
                                                    l4039 37BA  
                                                    l4119 311C  
                                                    l4143 2F8E  
                                                    l4135 2F32  
                                                    l4127 2F02  
                                                    l4311 331A  
                                                    l4303 3306  
                                                    l4207 3788  
                                                    l4321 2E2E  
                                                    l4137 2F44  
                                                    l4129 2F08  
                                                    l4313 331E  
                                                    l4305 330A  
                                                    l4209 3792  
                                                    l4401 365A  
                                                    l4147 380A  
                                                    l4323 2E30  
                                                    l4315 2DB0  
                                                    l4139 2F68  
                                                    l4307 330E  
                                                    l4331 312C  
                                                    l4149 37F6  
                                                    l4325 2E3E  
                                                    l4317 2E2A  
                                                    l4309 3316  
                                                    l4341 3176  
                                                    l4333 3152  
                                                    l5301 3440  
                                                    l4327 2E4C  
                                                    l4319 2E2C  
                                                    l4343 3178  
                                                    l4335 3170  
                                                    l5311 3456  
                                                    l5303 3442  
                                                    l4329 2E5A  
                                                    l4097 34D6  
                                                    l4345 317A  
                                                    l4337 3172  
                                                    l5305 3444  
                                                    l4371 3728  
                                                    l4347 35BA  
                                                    l4339 3174  
                                                    l5307 3446  
                                                    l4373 372C  
                                                    l4381 3372  
                                                    l5309 3454  
                                                    l4375 373A  
                                                    l4295 3826  
                                                    l4391 33B2  
                                                    l4383 3388  
                                                    l4297 32CE  
                                                    l4377 3662  
                                                    l4393 363A  
                                                    l4385 338A  
                                                    l4641 3598  
                                                    l4299 32D2  
                                                    l4379 36F8  
                                                    l4395 3648  
                                                    l4387 33A4  
                                                    l4651 35AC  
                                                    l4643 359C  
                                                    l4635 358E  
                                                    l4661 34B8  
                                                    l4397 364A  
                                                    l4389 33A6  
                                                    l4653 35B0  
                                                    l4645 35A0  
                                                    l4637 3592  
                                                    l4663 377A  
                                                    l4399 364C  
                                                    l4655 35B4  
                                                    l4647 35A4  
                                                    l4639 3594  
                                                    l5295 3436  
                                                    l4657 34A2  
                                                    l4649 35A8  
                                                    l5297 343A  
                                                    l4659 34A6  
                                                    l5299 343E  
                                                    _ADCP 0003D8  
                                                    _FIFO 2630  
                                      _WriteMessageToFifo 2634  
                                                    u2100 2F68  
                                                    u2101 2F64  
                                                    u2110 2F8A  
                                                    u2111 2F86  
                                                    u2060 3502  
                                                    u2061 34FE  
                                                    _LATA 0004BE  
                                                    u2070 2F22  
                                                    _LATB 0004BF  
                                                    u2071 2F1E  
                                                    _LATC 0004C0  
                                                    u2080 2F32  
                                                    u2240 32E8  
                                                    u2081 2F2E  
                                                    u2241 32E4  
                                                    u2090 2F44  
                                                    u2091 2F40  
                                                    u2670 34D4  
                                                    u2671 34D0  
                                                    u3457 34AE  
                                                    _PMD0 000060  
                                                    _PMD1 000061  
                                                    _PMD2 000062  
                                                    _PMD3 000063  
                                                    _PMD4 000064  
                                                    _PMD5 000065  
                                                    _PMD6 000066  
                                                    _PMD7 000067  
                                                    _PMD8 000068  
                                                    _WPUA 000401  
                                                    _WPUB 000409  
                                                    _WPUC 000411  
                                                    _WPUE 000421  
                                  __size_of_CAN1_Transmit 0094  
                                        __end_of_CAN1_ISR 29D0  
               __end_of_CAN1_SetTxAttemptInterruptHandler 37BA  
              __size_of_CAN1_SetTxAttemptInterruptHandler 000A  
                     ??_CAN1_SetTxAttemptInterruptHandler 05CA  
                      ?_CAN1_SetTxAttemptInterruptHandler 05C8  
                       _CAN1_SetTxAttemptInterruptHandler 37B0  
                                  CAN1_Transmit@txFifoObj 051B  
                                                    _main 3436  
                                                    fsr1h 0004E2  
                                                    fsr2h 0004DA  
                                                    indf1 0004E7  
                                                    indf2 0004DF  
                                                    fsr1l 0004E1  
                                                    fsr2l 0004D9  
                                                    prodh 0004F4  
                                                    prodl 0004F3  
                                                    start 001A  
                                     ?_WriteMessageToFifo 050C  
                              ??_TMR1_SetInterruptHandler 05CA  
                                            ___param_bank 000000  
                    __end_of_DefaultInvalidMessageHandler 3840  
                   __size_of_DefaultInvalidMessageHandler 0002  
                            _DefaultInvalidMessageHandler 383E  
              CAN1_SetSystemErrorInterruptHandler@handler 05C8  
                                 __end_of_TMR0_Initialize 3662  
                                        __end_of_INT0_ISR 3826  
                          ??_TMR0_DefaultInterruptHandler 0501  
                          __size_of_OSCILLATOR_Initialize 0018  
                                    CANWriteMessage@data1 0523  
                                    CANWriteMessage@data2 0524  
                                    CANWriteMessage@data3 0525  
                                    CANWriteMessage@data4 0526  
                                    CANWriteMessage@data5 0527  
                                    CANWriteMessage@data6 0528  
                                    CANWriteMessage@data7 0529  
                                    CANWriteMessage@data8 052A  
                           __end_of_OSCILLATOR_Initialize 3710  
                                                   _ADACT 0003F9  
                                                   _ADCAP 0003F0  
                              WriteMessageToFifo@txCanMsg 050E  
                                                   ?_main 0501  
                                                   _ADCLK 0003FA  
                                                   _ADCNT 0003E6  
                                                   _ADCTX 0003FB  
                                                   _ADPCH 0003EC  
                                                   _ADREF 0003F8  
                                         __end_of___lbdiv 3274  
                                                   _ADRPT 0003E7  
                __end_of_CAN1_SetBusErrorInterruptHandler 37F6  
               __size_of_CAN1_SetBusErrorInterruptHandler 000A  
                      ??_CAN1_SetBusErrorInterruptHandler 05CA  
                       ?_CAN1_SetBusErrorInterruptHandler 05C8  
                                                   _T1CLK 000321  
                        _CAN1_SetBusErrorInterruptHandler 37EC  
                                                   _T1CON 00031E  
                                         __end_of___lwdiv 3218  
                                                   i2l300 30B0  
                                                   i2l140 2D96  
                                                   i2l132 2D2A  
                                                   i2l134 2D4E  
                                                   i2l303 381C  
                                                   i2l135 2D96  
                                                   i2l136 2D72  
                                         _isTxChannel$908 0501  
                                                   i2l250 3840  
                                                   i2l420 2992  
                                                   i2l253 3842  
                                                   i2l262 3836  
                                                   i2l422 29CC  
                                                   i2l342 3726  
                                                   i2l247 383E  
                                                   i2l256 383C  
                                                   i2l424 29CE  
                                                   i2l360 3028  
                                                   i2l265 383A  
                                                   i2l338 3432  
                                                   i2l259 3838  
                                                   i2l339 3434  
                                                   i2l363 3028  
                                                   i2l348 2878  
                                                   i2l357 2CEC  
                                                   i2l367 36B0  
                                                   i2l296 307A  
                                                   i2l299 30AE  
                              __end_of_i2c1_fsmStateTable 2627  
                                                   _OSCEN 0000B3  
                                                   _TMR0H 000319  
                                                   _TMR1H 00031D  
                                                   _TMR0L 000318  
                                                   _TMR1L 00031C  
                                    ??_WriteMessageToFifo 0510  
                                                   _TRISA 0004C6  
                                                   _TRISB 0004C7  
                                          ?_INT0_CallBack 0501  
                                                   _TRISC 0004C8  
                                                   _TRISE 0004CA  
                                ??_DefaultBusErrorHandler 0501  
                       __size_of_TMR0_SetInterruptHandler 000A  
                               ?_TMR0_SetInterruptHandler 05C8  
                                       ??_I2C1_Initialize 05C8  
                                __size_of_CAN1_Initialize 0058  
                                        __end_of_TMR0_ISR 363A  
                                        __end_of_TMR1_ISR 33F8  
                                       ??_CANWriteMessage 052B  
                                 __end_of_TMR1_Initialize 33BA  
                                                   pclath 0004FA  
                                                   tablat 0004F5  
                               ??i2_CAN1_OperationModeGet 0501  
                               ??i2_CAN1_OperationModeSet 0501  
                                                   status 0004D8  
                CAN1_SetTxAttemptInterruptHandler@handler 05C8  
                                         ___lbdiv@divisor 0501  
                                         _TMR1_WriteTimer 3504  
                                          _PARAMETERSInit 377A  
                                         ___lbdiv@counter 0503  
                              __end_of_ReluctorCountTeeth 382E  
                            ??_CAN1_TX_FIFO_Configuration 05C8  
                                            __end_of_FIFO 2632  
                                         __initialization 3326  
                                       __end_of_DLC_BYTES 2630  
                                     CAN1_Transmit@status 051A  
                                       CANWriteMessage@id 051E  
                                            __end_of_main 346C  
                             CAN1_RX_FIFO_ResetInfo@index 05C8  
                         __end_of_DefaultTxAttemptHandler 3838  
                             ?_INTERRUPT_InterruptManager 0501  
                                           _CAN1_Transmit 2F96  
                         fp__DefaultInvalidMessageHandler 0000  
                           ?_DefaultInvalidMessageHandler 0501  
                                                  ??_main 05CC  
                               __size_of_ReluctorFreqRead 009C  
                                           __activetblptr 000003  
          __end_of_CAN1_SetInvalidMessageInterruptHandler 37E2  
         __size_of_CAN1_SetInvalidMessageInterruptHandler 000A  
                ??_CAN1_SetInvalidMessageInterruptHandler 05CA  
                 ?_CAN1_SetInvalidMessageInterruptHandler 05C8  
                  _CAN1_SetInvalidMessageInterruptHandler 37D8  
                                                  _C1CONH 000101  
                                                  _C1CONL 000100  
                                                  _C1CONU 000102  
                                                  _C1INTH 00011D  
                                                  _C1INTL 00011C  
                                                  _C1INTT 00011F  
                                                  _C1INTU 00011E  
                       __size_of_DefaultModeChangeHandler 0002  
           CAN1_SetInvalidMessageInterruptHandler@handler 05C8  
                                                  _ADACCH 0003E4  
                                                  _ADACCL 0003E3  
                                                  _ADACCU 0003E5  
                               ?_DefaultModeChangeHandler 0501  
                                                  _ADACQH 0003EF  
                                                  _ADACQL 0003EE  
                                                  _ADCON0 0003F3  
                                                  _ADCON1 0003F4  
                                                  _ADCON2 0003F5  
                                                  _ADCON3 0003F6  
                               __size_of_ReluctorPosCount 0024  
                                                  _ADERRH 0003DE  
                                                  _ADERRL 0003DD  
                                                  _ADLTHH 0003DA  
                                                  _ADLTHL 0003D9  
                                                  _ADRESH 0003EB  
                                                  _ADRESL 0003EA  
                                                  _ADPREH 0003F2  
                                                  _ADPREL 0003F1  
                                __size_of_GetTxFifoStatus 0018  
                                                  _ADSTAT 0003F7  
                                                  _ADUTHH 0003DC  
                                                  _ADUTHL 0003DB  
                     __size_of_CAN1_TX_FIFO_Configuration 0014  
                                                  _ANSELA 000400  
                                                  _ANSELB 000408  
                                                  _ANSELC 000410  
                                                  _T0CON0 00031A  
                                                  _T0CON1 00031B  
                                                  _T1GATE 000320  
                       fp__DefaultRxBufferOverflowHandler 0000  
                        ??_DefaultRxBufferOverflowHandler 0501  
                         ?_DefaultRxBufferOverflowHandler 0501  
                                                  _T1GCON 00031F  
                                                  _RB4PPS 00020D  
                                                  _RC3PPS 000214  
                             WriteMessageToFifo@txFifoObj 050C  
                                 TMR1_WriteTimer@timerVal 0501  
                                                  _RC4PPS 000215  
                                                  _ODCONA 000402  
                                                  _ODCONB 00040A  
                                                  _ODCONC 000412  
                                                  i2l2040 3216  
                                                  i2l2033 320E  
                                                  i2l1410 358C  
                                                  i2l1406 3638  
                                                  i2l1350 33F6  
                                                  i2l1335 3530  
                                                  i2l1416 3832  
                                                  i2l1360 3830  
                                                  i2l1193 34A0  
                                                  i2l1530 2B1A  
                                                  i2l1354 355E  
                                                  i2l2219 32CC  
                                                  i2l1189 3824  
                                                  i2l1542 360E  
                                                  i2l1199 3834  
                                                  i2l1519 2C14  
                                                  i2l1480 2EFC  
                                                  i2l4201 36CC  
                                                  i2l1475 382C  
                                                  i2l4203 36D0  
                                                  i2l4051 2F98  
                                                  i2l4211 2B1C  
                                                  i2l1484 36D4  
                                                  i2l4061 2FFC  
                                                  i2l4053 2FAE  
                                                  i2l4221 2B84  
                                                  i2l4213 2B74  
                                                  i2l4063 3010  
                                                  i2l4055 2FBE  
                                                  i2l4071 36A6  
                                                  i2l4231 2BA8  
                                                  i2l4223 2B88  
                                                  i2l4215 2B78  
                                                  i2l4057 2FCE  
                                                  i2l4049 2F98  
                                                  i2l4073 36AE  
                                                  i2l4081 3036  
                                                  i2l4233 2BBE  
                                                  i2l4225 2B8C  
                                                  i2l4217 2B7C  
                                                  i2l4241 35E6  
                                                  i2l4059 2FEA  
                                                  i2l4067 368C  
                                                  i2l4091 3090  
                                                  i2l4083 3048  
                                                  i2l4235 2BD6  
                                                  i2l4227 2B90  
                                                  i2l4219 2B80  
                                                  i2l4251 322E  
                                                  i2l4243 3606  
                                                  i2l4411 3520  
                                                  i2l4403 3504  
                                                  i2l4501 28D0  
                                                  i2l4069 3690  
                                                  i2l4093 30AA  
                                                  i2l4085 3058  
                                                  i2l4077 302C  
                                                  i2l4237 2BF0  
                                                  i2l4229 2B94  
                                                  i2l4261 3260  
                                                  i2l4253 3236  
                                                  i2l4421 2E84  
                                                  i2l4405 3514  
                                                  i2l4413 3526  
                                                  i2l4511 290E  
                                                  i2l4503 28D4  
                                                  i2l4191 382A  
                                                  i2l4087 306A  
                                                  i2l4079 3030  
                                                  i2l4239 2C06  
                                                  i2l4263 3264  
                                                  i2l4255 323A  
                                                  i2l4247 321A  
                                                  i2l4431 2EEE  
                                                  i2l4423 2EB4  
                                                  i2l4415 352A  
                                                  i2l4407 3516  
                                                  i2l4521 2958  
                                                  i2l4513 2928  
                                                  i2l4505 28E2  
                                                  i2l4193 36B2  
                                                  i2l4089 3088  
                                                  i2l4441 2A1C  
                                                  i2l4265 3266  
                                                  i2l4257 323C  
                                                  i2l4249 321E  
                                                  i2l4281 31CE  
                                                  i2l4273 31A4  
                                                  i2l4433 2EF8  
                                                  i2l4425 2ECA  
                                                  i2l4417 2E62  
                                                  i2l4409 351A  
                                                  i2l4531 29BA  
                                                  i2l4523 2966  
                                                  i2l4515 292C  
                                                  i2l4507 28FC  
                                                  i2l4195 36B4  
                                                  i2l4363 346C  
                                                  i2l4443 2A5A  
                                                  i2l4451 2AE0  
                                                  i2l4435 29D0  
                                                  i2l4267 326A  
                                                  i2l4259 324A  
                                                  i2l4291 3202  
                                                  i2l4283 31DC  
                                                  i2l4275 31AC  
                                                  i2l4427 2ED2  
                                                  i2l4419 2E74  
                                                  i2l1948 3272  
                                                  i2l4533 29CA  
                                                  i2l4525 2980  
                                                  i2l4517 293A  
                                                  i2l4509 2900  
                                                  i2l4197 36C4  
                                                  i2l4365 3470  
                                                  i2l4461 3560  
                                                  i2l4445 2A6A  
                                                  i2l4437 29D4  
                                                  i2l4269 3270  
                                                  i2l4293 3208  
                                                  i2l4285 31E2  
                                                  i2l4277 31BE  
                                                  i2l4429 2ED6  
                                                  i2l4527 2990  
                                                  i2l4519 2954  
                                                  i2l4199 36C8  
                                                  i2l4367 3474  
                                                  i2l4463 3574  
                                                  i2l3911 340E  
                                                  i2l4447 2AA2  
                                                  i2l4439 29E4  
                                                  i2l4287 31F8  
                                                  i2l4279 31C6  
                                                  i2l4471 33CC  
                                                  i2l4529 29A0  
                                                  i2l4369 3488  
                                                  i2l4481 3612  
                                                  i2l3921 2658  
                                                  i2l3913 342E  
                                                  i2l4289 3200  
                                                  i2l4457 3532  
                                                  i2l4473 33D0  
                                                  i2l4465 33BA  
                                                  _INLVLA 000404  
                                                  _INLVLB 00040C  
                                                  i2l4491 287A  
                                                  i2l4483 362C  
                                                  i2l3931 26BC  
                                                  i2l3923 2672  
                                                  i2l3907 33FA  
                                                  i2l4459 3546  
                                                  i2l4475 33EA  
                                                  i2l4467 33BC  
                                                  _INLVLC 000414  
                                                  i2l4493 288A  
                                                  i2l4485 3630  
                                                  i2l3941 2736  
                                                  i2l3933 26CE  
                                                  i2l3925 2688  
                                                  i2l3917 2634  
                                                  i2l3909 33FE  
                                                  i2l4477 33EE  
                                                  i2l4469 33C8  
                                                  _INLVLE 000424  
                                                  i2l4495 28A4  
                                                  i2l4487 381E  
                                                  i2l4479 3610  
                                                  i2l3871 3274  
                                                  i2l3951 27D0  
                                                  i2l3943 274E  
                                                  i2l3927 269C  
                                                  i2l3935 26E6  
                                                  i2l3919 2658  
                                                  i2l5383 2AF4  
                                                  i2l4497 28A8  
                                                  i2l4489 3820  
                                                  i2l3961 2C1C  
                                                  i2l3873 3288  
                                                  i2l3881 32B2  
                                                  i2l3953 27F4  
                                                  i2l3945 2762  
                                                  i2l3937 2716  
                                                  i2l3929 26AE  
                                                  i2l4841 2D46  
                                                  i2l4833 2D06  
                                                  i2l4499 28B6  
                                                  i2l3883 3712  
                                                  i2l3971 2C50  
                                                  i2l3963 2C2C  
                                                  i2l3875 3298  
                                                  i2l3955 2806  
                                                  i2l3947 2788  
                                                  i2l3939 2728  
                                                  i2l4843 2D5C  
                                                  i2l4835 2D14  
                                                  i2l3893 3814  
                                                  i2l3981 2CCE  
                                                  i2l3973 2C68  
                                                  i2l3965 2C2C  
                                                  i2l3877 329C  
                                                  i2l3957 2820  
                                                  i2l3949 27AC  
                                                  i2l4845 2D6A  
                                                  i2l4837 2D22  
                                                  i2l3983 2CD0  
                                                  i2l3975 2C76  
                                                  i2l3967 2C3A  
                                                  i2l3959 2C18  
                                                  i2l3879 32AE  
                                                  i2l4847 2D80  
                                                  i2l4839 2D38  
                                                  i2l3985 2CE6  
                                                  i2l3977 2C8A  
                                                  i2l3969 2C4E  
                                                  i2l4849 2D8E  
                                                  i2l3987 2CEA  
                                                  i2l3979 2C8C  
                                 ??_CAN1_OperationModeGet 05C8  
                                  __end_of_PARAMETERSInit 3788  
                                                  _OSCFRQ 0000B1  
                                 ??_CAN1_OperationModeSet 05C8  
                                        _I2C1_DO_RX_EMPTY 000000  
                                      _ADC_DefaultADI_ISR 000000  
                                        _I2C1_DO_TX_EMPTY 000000  
                             ??_CAN1_BitRateConfiguration 05C8  
                    __end_of_TMR1_DefaultInterruptHandler 3832  
                   __size_of_TMR1_DefaultInterruptHandler 0002  
                            _TMR1_DefaultInterruptHandler 3830  
                                                  ___wmul 35E6  
                                               ??___lbdiv 0502  
                      __size_of_DefaultSystemErrorHandler 0002  
                                               ??___lwdiv 050B  
                                          ?_CAN1_Transmit 0518  
                                 ?_MESSAGESSendEvery100ms 0501  
                                                  _memcpy 3274  
                                        ?_TMR0_Initialize 0501  
                                                  clear_0 334C  
                                                  clear_1 3358  
                                ??_CAN1_RX_FIFO_ResetInfo 05C8  
                                         ??_INT0_CallBack 0501  
               CAN1_SetModeChangeInterruptHandler@handler 05C8  
                                               ?_CAN1_ISR 0501  
                                   _I2C1_DO_SEND_ADR_READ 000000  
                                          _PMD_Initialize 3662  
                           __size_of_ValidateTransmission 00D8  
                                            __mediumconst 0000  
                         __size_of_DefaultBusErrorHandler 0002  
                                    __size_of_isTxChannel 003E  
                                                  tblptrh 0004F7  
                                                  tblptrl 0004F6  
                                                  tblptru 0004F8  
                                   __end_of_TMR0_CallBack 358E  
                                      isTxChannel@channel 0502  
                                         _ucReluctorState 0546  
                TMR0_SetInterruptHandler@InterruptHandler 05C8  
                TMR1_SetInterruptHandler@InterruptHandler 05C8  
                INT0_SetInterruptHandler@InterruptHandler 05C8  
ADC_SetActiveClockTuningInterruptHandler@InterruptHandler 05C8  
ADC_SetContext1ThresholdInterruptHandler@InterruptHandler 05C8  
              ADC_SetADIInterruptHandler@InterruptHandler 05C8  
                                 __end_of_TMR1_WriteTimer 3532  
                                        ___lbdiv@dividend 0502  
                                 _I2C1_DO_RX_NACK_RESTART 000000  
                           __size_of_INTERRUPT_Initialize 0004  
                                   __end_of_TMR1_CallBack 3560  
                                        ?_TMR1_Initialize 0501  
                                       _SYSTEM_Initialize 358E  
                                              __accesstop 0560  
                                         ?_PARAMETERSInit 0501  
                                 __end_of__initialization 336C  
                                       ??_CAN1_Initialize 05CB  
                                               ?_INT0_ISR 0501  
                               CANWriteMessage@dataLength 0522  
                                    _CAN1_BusErrorHandler 058C  
                                      ?_SYSTEM_Initialize 0501  
                                           ___rparam_used 000001  
                                  _CAN1_ModeChangeHandler 058A  
                                 _rdBlkRegCompleteHandler 000000  
                                          __pcstackCOMRAM 0501  
                          __end_of_MESSAGESSendEvery100ms 2B1C  
                                            __pidataBANK5 36D6  
                                     ??_SYSTEM_Initialize 05CC  
                                               ?_TMR0_ISR 0501  
                                               ?_TMR1_ISR 0501  
                         fp__TMR1_DefaultInterruptHandler 0000  
                           ?_TMR1_DefaultInterruptHandler 0501  
        __end_of_CAN1_SetRxBufferOverFlowInterruptHandler 37CE  
       __size_of_CAN1_SetRxBufferOverFlowInterruptHandler 000A  
              ??_CAN1_SetRxBufferOverFlowInterruptHandler 05CA  
               ?_CAN1_SetRxBufferOverFlowInterruptHandler 05C8  
                _CAN1_SetRxBufferOverFlowInterruptHandler 37C4  
                            ??_CAN1_TransmitFIFOStatusGet 0503  
                                        ___lbdiv@quotient 0504  
                                  __end_of_PMD_Initialize 368A  
                                              ??_CAN1_ISR 0501  
                             __size_of_EXT_INT_Initialize 0016  
                                   TMR0_ISR@CountCallBack 0541  
                               _CAN1_BitRateConfiguration 3766  
        __end_of_ADC_SetActiveClockTuningInterruptHandler 380A  
       __size_of_ADC_SetActiveClockTuningInterruptHandler 000A  
              ??_ADC_SetActiveClockTuningInterruptHandler 05CA  
               ?_ADC_SetActiveClockTuningInterruptHandler 05C8  
                _ADC_SetActiveClockTuningInterruptHandler 3800  
                            ??_ADC_SetADIInterruptHandler 05CA  
             __end_of_CAN1_SetSystemErrorInterruptHandler 37C4  
            __size_of_CAN1_SetSystemErrorInterruptHandler 000A  
                   ??_CAN1_SetSystemErrorInterruptHandler 05CA  
                    ?_CAN1_SetSystemErrorInterruptHandler 05C8  
                     _CAN1_SetSystemErrorInterruptHandler 37BA  
                                       _I2C1_DO_BUS_ERROR 000000  
                               __end_of_SYSTEM_Initialize 35BA  
                                              __pbssBANK5 0560  
                            ValidateTransmission@txCanMsg 0502  
                                      _DELAY_milliseconds 34A2  
                                   _INT0_InterruptHandler 05C0  
                                              ??_INT0_ISR 0501  
                                              __pnvCOMRAM 0557  
                        __size_of_DefaultTxAttemptHandler 0002  
                      __end_of_CAN1_TX_FIFO_Configuration 3752  
                              _CAN1_TX_FIFO_Configuration 373E  
                                       ??_GetTxFifoStatus 0501  
                                   _rd1RegCompleteHandler 000000  
                     __size_of_CAN1_TransmitFIFOStatusGet 0028  
                                                 IVTBASEH 00045E  
                                                 IVTBASEL 00045D  
                                                 IVTBASEU 00045F  
                                  _DefaultBusErrorHandler 3842  
                                       _I2C1_DO_SEND_STOP 000000  
                                   _wr1RegCompleteHandler 000000  
                                     ?_DELAY_milliseconds 05C8  
                                         ??_CAN1_Transmit 051A  
                        __end_of_TMR0_SetInterruptHandler 379C  
                                                 _I2C1CLK 00029E  
                                                 _I2C1ERR 000297  
                                                 _I2C1PIE 00029B  
                                                 ?___wmul 0501  
                                                 _I2C1PIR 00029A  
                           _CAN1_BusWakeUpActivityHandler 058E  
                                                 _I2C1RXB 00028A  
                                              ??_TMR0_ISR 0501  
                                                 _I2C1TXB 00028B  
                                              ??_TMR1_ISR 0537  
                                              _ucKPHData1 0548  
                                              _ucKPHData2 0547  
                                  CANWriteMessage@uiData1 052D  
                                  CANWriteMessage@uiData2 052F  
                                  CANWriteMessage@uiData3 0531  
                                  CANWriteMessage@uiData4 0533  
                                         _I2C1_Initialize 35BA  
                                                 _ADCSEL1 0003FC  
                                                 _ADFLTRH 0003E2  
                                                 _ADFLTRL 0003E1  
                                                 ?_memcpy 0501  
                     __size_of_ADC_SetADIInterruptHandler 000A  
                                                 _ADPREVH 0003E9  
                                                 _ADPREVL 0003E8  
                                               _C1NBTCFGH 000105  
                                               _C1NBTCFGL 000104  
                                                 _ADSTPTH 0003E0  
                                                 _ADSTPTL 0003DF  
                                               _C1NBTCFGT 000107  
                                               _C1NBTCFGU 000106  
                                         ?_PMD_Initialize 0501  
                                         _CANWriteMessage 2B1C  
                         __size_of_CAN1_RX_FIFO_ResetInfo 002E  
                                        _ReluctorFreqRead 2E62  
                                 __size_of_ADC_Initialize 00B2  
                                                 _INT0PPS 00023E  
                                    ??_DELAY_milliseconds 05CA  
                                                 _OSCCON1 0000AD  
                                                 _OSCCON3 0000AF  
                                               _C1TXQCONH 000151  
                                               _C1TXQCONL 000150  
                                   _CAN1_TxAttemptHandler 0586  
                                               _C1TXQCONT 000153  
                                               _C1TXQCONU 000152  
                                                 _OSCTUNE 0000B0  
                                             _C1FIFOCON1H 00015D  
                                             _C1FIFOCON1L 00015C  
                                             _C1FIFOCON1T 00015F  
                                             _C1FIFOCON1U 00015E  
                                                 _SLRCONA 000403  
                                                 _SLRCONB 00040B  
                                                 _SLRCONC 000413  
                                        _ReluctorPosCount 36B2  
                                        ?_TMR1_WriteTimer 0501  
                              _ADC_ConversionComplete_ISR 05C6  
                                      _i2c1_fsmStateTable 2601  
                       __size_of_INT0_SetInterruptHandler 000A  
                               ?_INT0_SetInterruptHandler 05C8  
                                              _ucCountPos 054C  
                                                 __Hparam 0000  
                                                 __Lparam 0000  
                            fp__DefaultSystemErrorHandler 0000  
                                                 ___lbdiv 3218  
                                         __size_of___wmul 002A  
                                                 ___lwdiv 31A4  
                                   _ui_MeterPerSecond_E_2 053D  
                                            __psmallconst 2600  
                        __end_of_DefaultModeChangeHandler 383E  
                                 WriteMessageToFifo@msgId 0514  
                                               _DLC_BYTES 2627  
                                                 __pcinit 3326  
                                         __size_of_memcpy 005A  
                                                 __ramtop 2600  
                                                 __ptext0 3436  
                                                 __ptext1 358E  
                                                 __ptext2 3372  
                                                 __ptext3 3788  
                                                 __ptext4 363A  
                                                 __ptext5 3792  
                                                 __ptext6 3662  
                                                 __ptext7 312C  
                                                 __ptext8 36F8  
                                                 __ptext9 3826  
                                      _ReluctorCountTeeth 382A  
                          ??_TMR1_DefaultInterruptHandler 0501  
                                               _T1CONbits 00031E  
                                   _OSCILLATOR_Initialize 36F8  
                                             _I2C1ERRbits 000297  
                             __size_of_WriteMessageToFifo 0246  
                       __size_of_TMR1_SetInterruptHandler 000A  
                                ??_PIN_MANAGER_Initialize 05C8  
                                             _I2C1PIEbits 00029B  
                               ?_TMR1_SetInterruptHandler 05C8  
                                                 _rxFifos 059A  
                                             _I2C1PIRbits 00029A  
                                     ?_ReluctorCountTeeth 0501  
                               ValidateTransmission@field 050A  
        CAN1_SetBusWakeUpActivityInterruptHandler@handler 05C8  
                              __size_of_SYSTEM_Initialize 002C  
       __end_of_CAN1_SetBusWakeUpActivityInterruptHandler 37EC  
      __size_of_CAN1_SetBusWakeUpActivityInterruptHandler 000A  
             ??_CAN1_SetBusWakeUpActivityInterruptHandler 05CA  
              ?_CAN1_SetBusWakeUpActivityInterruptHandler 05C8  
               _CAN1_SetBusWakeUpActivityInterruptHandler 37E2  
                                    end_of_initialization 336C  
                                                 memcpy@d 0507  
                                                 memcpy@n 0505  
                                                 memcpy@s 0509  
                                  _CAN1_RX_FIFO_ResetInfo 34D6  
                                             _C1TRECUbits 000136  
                                  _I2C1_DO_SEND_ADR_WRITE 000000  
                          __size_of_CAN1_OperationModeGet 000A  
                          __size_of_CAN1_OperationModeSet 0098  
                           __end_of_CAN1_OperationModeGet 37B0  
                           __end_of_CAN1_OperationModeSet 2F96  
                            ??_CAN1_RX_FIFO_Configuration 05C8  
                                 __end_of_I2C1_Initialize 35E6  
                                             _I2C1_Status 0560  
                                    ??_ReluctorCountTeeth 0501  
                                 __end_of_CANWriteMessage 2C16  
                                                 postdec1 0004E5  
                                                 postdec2 0004DD  
                  __end_of_DefaultRxBufferOverflowHandler 383C  
                 __size_of_DefaultRxBufferOverflowHandler 0002  
                          _DefaultRxBufferOverflowHandler 383A  
                                                 postinc0 0004EE  
                                                 postinc2 0004DE  
                      __end_of_CAN1_TransmitFIFOStatusGet 36B2  
                              _CAN1_TransmitFIFOStatusGet 368A  
                              _I2C1_DO_SEND_RESTART_WRITE 000000  
                                _TMR0_SetInterruptHandler 3792  
                      fp__DefaultBusWakeUpActivityHandler 0000  
                 __end_of_DefaultBusWakeUpActivityHandler 3842  
                __size_of_DefaultBusWakeUpActivityHandler 0002  
                       ??_DefaultBusWakeUpActivityHandler 0501  
                        ?_DefaultBusWakeUpActivityHandler 0501  
                         _DefaultBusWakeUpActivityHandler 3840  
                        CAN1_TransmitFIFOStatusGet@status 0503  
                      __end_of_ADC_SetADIInterruptHandler 3814  
                              _ADC_SetADIInterruptHandler 380A  
                                         _CAN1_Initialize 32CE  
                                               _TRISBbits 0004C7  
                                       __size_of_CAN1_ISR 0156  
                                        ??_PARAMETERSInit 05C8  
                                             _ADCSEL1bits 0003FC  
                                ?i2_CAN1_OperationModeGet 0501  
                                ?i2_CAN1_OperationModeSet 0501  
                     __size_of_CAN1_RX_FIFO_Configuration 0014  
            __end_of_CAN1_RX_FIFO_FilterMaskConfiguration 3830  
           __size_of_CAN1_RX_FIFO_FilterMaskConfiguration 0002  
                   ?_CAN1_RX_FIFO_FilterMaskConfiguration 0501  
                  ??_CAN1_RX_FIFO_FilterMaskConfiguration 05C8  
                    _CAN1_RX_FIFO_FilterMaskConfiguration 382E  
                        ValidateTransmission@validChannel 0507  
                                 _DefaultTxAttemptHandler 3836  
                              fp__DefaultTxAttemptHandler 0000  
                                   CAN1_Transmit@txCanMsg 0518  
                            __end_of_ValidateTransmission 2CEE  
                         ValidateTransmission@txMsgStatus 0509  
                                       __size_of_INT0_ISR 0008  
                                             _CANDATAdata 059C  
                               fp__DefaultBusErrorHandler 0000  
                            __end_of_INTERRUPT_Initialize 382A  
                    __end_of_INT0_DefaultInterruptHandler 3836  
                   __size_of_INT0_DefaultInterruptHandler 0002  
                            _INT0_DefaultInterruptHandler 3834  
                                          __end_of___wmul 3610  
                                          _I2C1_DO_RX_ACK 000000  
                                          _I2C1_DO_TX_ACK 000000  
                                       __size_of_TMR0_ISR 002A  
                                       __size_of_TMR1_ISR 003E  
                                          _ADC_Initialize 2DB0  
                                          __end_of_memcpy 32CE  
                                  ?_OSCILLATOR_Initialize 0501  
                                           ??_isTxChannel 0501  
           __end_of_CAN1_ErrorNotificationInterruptEnable 312C  
          __size_of_CAN1_ErrorNotificationInterruptEnable 007A  
                  ?_CAN1_ErrorNotificationInterruptEnable 0501  
                 ??_CAN1_ErrorNotificationInterruptEnable 05CA  
                   _CAN1_ErrorNotificationInterruptEnable 30B2  
                                _DefaultModeChangeHandler 383C  
                                   __end_of_INT0_CallBack 34A2  
                             fp__DefaultModeChangeHandler 0000  
                                     start_initialization 3326  
                                __size_of_TMR0_Initialize 0028  
                         __size_of_PIN_MANAGER_Initialize 0078  
                                         _GetTxFifoStatus 3710  
                   CAN1_TransmitFIFOStatusGet@fifoChannel 0504  
                                              ivt0x8_base 0008  
                                            _ucCountTeeth 054D  
                                 ?_DefaultBusErrorHandler 0501  
              __end_of_CAN1_SetModeChangeInterruptHandler 37D8  
             __size_of_CAN1_SetModeChangeInterruptHandler 000A  
                    ??_CAN1_SetModeChangeInterruptHandler 05CA  
                     ?_CAN1_SetModeChangeInterruptHandler 05C8  
                      _CAN1_SetModeChangeInterruptHandler 37CE  
                                __end_of_ReluctorFreqRead 2EFE  
                             ?_CAN1_TX_FIFO_Configuration 0501  
                                        ?_I2C1_Initialize 0501  
                                __size_of_TMR1_Initialize 0048  
                                        ??_PMD_Initialize 05C8  
                                        ?_CANWriteMessage 051E  
                                                ??___wmul 0505  
                                __end_of_ReluctorPosCount 36D6  
        __end_of_ADC_SetContext1ThresholdInterruptHandler 3800  
       __size_of_ADC_SetContext1ThresholdInterruptHandler 000A  
              ??_ADC_SetContext1ThresholdInterruptHandler 05CA  
               ?_ADC_SetContext1ThresholdInterruptHandler 05C8  
                _ADC_SetContext1ThresholdInterruptHandler 37F6  
                                  __size_of_TMR0_CallBack 002E  
                                  __end_of_ADC_Initialize 2E62  
                                             __pdataBANK5 059A  
                                 __end_of_CAN1_Initialize 3326  
                                                ??_memcpy 0507  
                              __end_of_EXT_INT_Initialize 373E  
                         fp__INT0_DefaultInterruptHandler 0000  
                           ?_INT0_DefaultInterruptHandler 0501  
                                  __size_of_TMR1_CallBack 002E  
                              ?_DefaultSystemErrorHandler 0501  
                         __end_ofi2_CAN1_OperationModeGet 381E  
                         __end_ofi2_CAN1_OperationModeSet 30B2  
                                   TMR1_ISR@CountCallBack 0543  
                                             __pbssCOMRAM 053B  
                                    _I2C1_DO_SEND_RESTART 000000  
                        __end_of_INT0_SetInterruptHandler 37A6  
                                           __pcstackBANK5 05C8  
                 CAN1_SetBusErrorInterruptHandler@handler 05C8  
                               ??_DefaultTxAttemptHandler 0501  
                                     __end_of_isTxChannel 3436  
                          __end_of_DefaultBusErrorHandler 3844  
                      __end_of_CAN1_RX_FIFO_Configuration 3766  
                              _CAN1_RX_FIFO_Configuration 3752  
                                   _TMR0_InterruptHandler 05BC  
                                               __pnvBANK5 05BC  
                                   _rd2RegCompleteHandler 000000  
                                        ___lwdiv@dividend 0507  
                                  _PIN_MANAGER_Initialize 312C  
                                   _wr2RegCompleteHandler 000000  
                                                _C1FIFOBA 00014C  
                        __end_of_TMR1_SetInterruptHandler 3792  
                                            _ucWheelTeeth 054E  
                                                ?___lbdiv 0501  
                                                ?___lwdiv 0507  
                                                _I2C1BAUD 00029D  
                                   __end_of_CAN1_Transmit 302A  
                                                _I2C1CON0 000294  
                                                _I2C1CON1 000295  
                                                _I2C1CON2 000296  
                                         ?_ADC_Initialize 0501  
                                                _I2C1CNTH 00028D  
                                                _I2C1CNTL 00028C  
                                     _ucCountVueltaRueda1 054B  
                                     _ucCountVueltaRueda2 054A  
                            ??_INTERRUPT_InterruptManager 0537  
                                               _uiKPH_E_2 053B  
                                                _ADACTPPS 000269  
                                 __end_of_GetTxFifoStatus 3728  
                                                _CAN1_ISR 287A  
                       __end_of_DefaultSystemErrorHandler 383A  
                                             __smallconst 2600  
                           i2CAN1_OperationModeSet@opMode 0501  
                                         _ui_cm_in_period 0549  
                                                _ADCPbits 0003D8  
                                              _C1CONHbits 000101  
                                    _ValidateTransmission 2C16  
                      i2CAN1_OperationModeSet@requestMode 0503  
                        CAN1_OperationModeSet@requestMode 05CA  
                                                _CANRXPPS 00023D  
                           i2CAN1_OperationModeSet@status 0502  
                                              _C1CONTbits 000103  
                                              _C1CONUbits 000102  
                             __size_of_DELAY_milliseconds 0034  
                                        ___lwdiv@quotient 050B  
                          ??_DefaultInvalidMessageHandler 0501  
                                 ?_CAN1_RX_FIFO_ResetInfo 0501  
                                           _TMR0_CallBack 3560  
                                               _ucWheelID 0545  
                                              _C1INTHbits 00011D  
                                              _C1INTLbits 00011C  
                                    _INTERRUPT_Initialize 3826  
                                              _I2C1SDAPPS 000270  
                                              _C1INTTbits 00011F  
                                              _I2C1SCLPPS 000271  
                                           _TMR1_CallBack 3532  
                                       ??_TMR0_Initialize 05CA  
                                                _INT0_ISR 381E  
                                          ___wmul@product 0505  
                                                _LATAbits 0004BE  
                                                _LATBbits 0004BF  
                                              _I2C1_DO_RX 000000  
                                              _I2C1_DO_TX 000000  
                                ??_MESSAGESSendEvery100ms 0535  
                                                _PIE0bits 00049E  
                                                _PIE1bits 00049F  
                                                _PIE3bits 0004A1  
                                                _PIE7bits 0004A5  
                                __size_of_TMR1_WriteTimer 002E  
                                                i2u200_40 36A6  
                                                i2u200_41 36A2  
                                                i2u201_40 3048  
                                                i2u201_41 3044  
                                                i2u202_40 3058  
                                                i2u202_41 3054  
                                                i2u203_40 306A  
                                                i2u203_41 3066  
                                                i2u204_40 3088  
                                                i2u220_40 3260  
                                                i2u204_41 3084  
                                                i2u220_41 325C  
                                                i2u205_40 30A6  
                                                i2u221_40 31BE  
                                                i2u205_41 30A2  
                                                i2u221_41 31BA  
                                                i2u214_40 36C4  
                                                i2u230_40 29E4  
                                                i2u222_40 31DC  
                                                i2u214_41 36C0  
                                                i2u230_41 29E0  
                                                i2u222_41 31D8  
                                                i2u215_40 2BA8  
                                                i2u231_40 2A6A  
                                                i2u223_40 31F8  
                                                i2u215_41 2BA4  
                                                i2u231_41 2A66  
                                                i2u223_41 31F4  
                     __size_of_INTERRUPT_InterruptManager 00C2  
                                                i2u240_40 28B6  
                                                i2u216_40 2BBE  
                                                i2u232_40 3546  
                                                i2u240_41 28B2  
                                                i2u216_41 2BBA  
                                                i2u232_41 3542  
                                                i2u217_40 2C06  
                                                i2u217_41 2C02  
                                                i2u250_40 2990  
                                                i2u242_40 28E2  
                                                i2u241_48 28BC  
                                                i2u226_40 3488  
                                                i2u234_40 3574  
                                                i2u218_40 322E  
                                                i2u233_48 354C  
                                                i2u250_41 298C  
                                                i2u242_41 28DE  
                                                i2u241_49 28D0  
                                                i2u226_41 3484  
                                                i2u234_41 3570  
                                                i2u218_41 322A  
                                                i2u233_49 355E  
                                                i2u251_40 29A0  
                                                i2u219_40 324A  
                                                i2u251_41 299C  
                                                i2u219_41 3246  
                                                i2u244_40 290E  
                                                i2u243_48 28E8  
                                                i2u227_48 348E  
                                                i2u235_48 357A  
                                                i2u228_40 3514  
                                                i2u236_40 33EA  
                                                i2u244_41 290A  
                                                i2u243_49 28FC  
                                                i2u227_49 34A0  
                                                i2u235_49 358C  
                                                i2u228_41 3510  
                                                i2u236_41 33E6  
                                                i2u180_45 268C  
                                                i2u253_40 29CA  
                                                i2u252_48 29A6  
                                                i2u237_40 362C  
                                                i2u229_40 2ECA  
                              ??_TMR0_SetInterruptHandler 05CA  
                                                i2u253_41 29C6  
                                                i2u252_49 29BA  
                                                i2u237_41 3628  
                                                i2u229_41 2EC6  
                                                i2u181_45 26D2  
                                                i2u246_40 293A  
                                                i2u245_48 2914  
                                                i2u238_40 288A  
                                                i2u190_40 2C3A  
                                                i2u174_40 32CC  
                                                i2u182_40 2780  
                                                i2u246_41 2936  
                                                i2u245_49 2928  
                                                i2u238_41 2886  
                                                i2u190_41 2C36  
                                                i2u174_41 32C8  
                                                i2u182_41 2778  
                                                i2u191_40 2C4E  
                                                i2u183_40 27A6  
                                                i2u182_48 2782  
                                                i2u191_41 2C4A  
                                                i2u183_41 279E  
                                           _I2C1STAT1bits 000299  
                                                _PIR0bits 0004AE  
                                                i2u248_40 2966  
                                                i2u247_48 2940  
                                                i2u239_48 2890  
                                                i2u192_40 2C68  
                                                i2u248_41 2962  
                                                i2u247_49 2954  
                                                i2u239_49 28A4  
                                                i2u192_41 2C64  
                                                i2u184_45 27A8  
                                                i2u193_40 2C76  
                                                i2u185_40 27CA  
                                                i2u177_40 340E  
                                                i2u193_41 2C72  
                                                i2u185_41 27C2  
                                                i2u177_41 340A  
                                                _PIR1bits 0004AF  
                                                i2u249_48 296C  
                                                i2u194_40 2C8A  
                                                i2u178_40 342E  
                                                i2u290_40 2D80  
                                                i2u249_49 2980  
                                                i2u194_41 2C86  
                                                i2u178_41 342A  
                                                i2u290_41 2D7C  
                                                i2u186_45 27CC  
                                                i2u195_40 2CCE  
                                                i2u187_40 27EE  
                                                i2u179_40 2672  
                                                i2u291_40 2D8E  
                                                i2u195_41 2CCA  
                                                i2u187_41 27E6  
                                                i2u179_41 266E  
                                                i2u291_41 2D8A  
                                                _PIR2bits 0004B0  
                                               _rxMsgData 0592  
                                                i2u196_40 2CE6  
                                                i2u284_40 2D14  
                                                i2u196_41 2CE2  
                                                i2u284_41 2D10  
                                                i2u188_45 27F0  
                                                i2u189_40 2820  
                                                i2u197_40 2FAE  
                                                i2u285_40 2D22  
                                                i2u189_41 281C  
                                                i2u197_41 2FAA  
                                                i2u285_41 2D1E  
                                                _PIR3bits 0004B1  
                                                i2u198_40 2FCE  
                                                i2u286_40 2D38  
                                                i2u198_41 2FCA  
                                                i2u286_41 2D34  
                                                i2u199_40 2FFC  
                                                i2u287_40 2D46  
                                                i2u199_41 2FF8  
                                                i2u287_41 2D42  
                                                i2u288_40 2D5C  
                                                i2u288_41 2D58  
                                                i2u289_40 2D6A  
                                                i2u289_41 2D66  
                                                _PIR7bits 0004B5  
                               _ADC_ActiveClockTuning_ISR 05C2  
                          DELAY_milliseconds@milliseconds 05C8  
                               _I2C1_DO_SEND_RESTART_READ 000000  
                        _ADC_DefaultActiveClockTuning_ISR 000000  
                                                _TMR0_ISR 3610  
                                                _TMR1_ISR 33BA  
                             ?_CAN1_TransmitFIFOStatusGet 0501  
                                        ?_CAN1_Initialize 0501  
                                       ??_TMR1_Initialize 05CA  
                              __end_of_WriteMessageToFifo 287A  
                                              _ADCON0bits 0003F3  
                                              _ADCON1bits 0003F4  
                                              _ADCON2bits 0003F5  
                                              _ADCON3bits 0003F6  
                                       ___wmul@multiplier 0501  
                                             _isTxChannel 33F8  
                                   ?_ValidateTransmission 0502  
                             ?_ADC_SetADIInterruptHandler 05C8  
                          ??_INT0_DefaultInterruptHandler 0501  
                          __end_of_CAN1_RX_FIFO_ResetInfo 3504  
                                          ?_TMR0_CallBack 0501  
                                           _I2C1_DO_RESET 000000  
                                             _INTCON0bits 0004D6  
                                               copy_data0 333A  
                                   ?_INTERRUPT_Initialize 0501  
                                _INT0_SetInterruptHandler 379C  
                                          ?_TMR1_CallBack 0501  
                                              _ADSTATbits 0003F7  
                                                __Hrparam 0000  
                        __size_ofi2_CAN1_OperationModeGet 000A  
                                               memcpy@tmp 050B  
                                   _CAN1_OperationModeGet 37A6  
                        __size_ofi2_CAN1_OperationModeSet 0088  
                                                __Lrparam 0000  
                                   _CAN1_OperationModeSet 2EFE  
                             GetTxFifoStatus@validChannel 0501  
                             __size_of_ReluctorCountTeeth 0004  
                                 _CAN1_SystemErrorHandler 0588  
                              ??_DefaultModeChangeHandler 0501  
                                 ??_OSCILLATOR_Initialize 05C8  
                                        __size_of___lbdiv 005C  
                                        __size_of___lwdiv 0074  
                                _TMR1_SetInterruptHandler 3788  
                                        ?_GetTxFifoStatus 0501  
                                   _TMR1_InterruptHandler 05BE  
                                              _T0CON0bits 00031A  
                               _ADC_Context1Thereshld_ISR 05C4  
                                            _I2C1CON0bits 000294  
                                            _I2C1CON1bits 000295  
                                WriteMessageToFifo@status 0513  
                                                __pivt0x8 0008  
                                         ___lwdiv@divisor 0509  
                                         ___lwdiv@counter 050D  
                                                __ptext10 35BA  
                                                __ptext11 3728  
                                                __ptext20 30B2  
                                                __ptext12 379C  
                                                __ptext21 37B0  
                                                __ptext13 32CE  
                                              _T1GCONbits 00031F  
                                                __ptext30 37F6  
                                                __ptext22 37BA  
                                                __ptext14 373E  
                                                __ptext31 3800  
                                                __ptext23 37C4  
                                                __ptext15 34D6  
                                                __ptext40 2E62  
                                                __ptext32 380A  
                                                __ptext24 37CE  
                                                __ptext16 382E  
                                                __ptext41 35E6  
                                                __ptext33 377A  
                                                __ptext25 37D8  
                                                __ptext17 3752  
                                                __ptext50 2634  
                                                __ptext42 31A4  
                                                __ptext34 34A2  
                                                __ptext26 37E2  
                                                __ptext18 2EFE  
                                                __ptext51 3274  
                                                __ptext43 3218  
                                                __ptext35 2CEE  
                                                __ptext27 37EC  
                                                __ptext19 37A6  
                                                __ptext60 36B2  
                                                __ptext52 2C16  
                                                __ptext44 29D0  
                                                __ptext36 33BA  
                                                __ptext28 3766  
                                                __ptext61 382A  
                                                __ptext53 3814  
                                                __ptext45 2B1C  
                                                __ptext37 3504  
                                                __ptext29 2DB0  
                                                __ptext70 3842  
                                                __ptext62 3834  
                                                __ptext54 3710  
                                                __ptext46 302A  
                                                __ptext38 3532  
                                                __ptext71 0000  
                                                __ptext63 287A  
                                                __ptext55 3610  
                                                __ptext47 368A  
                                                __ptext39 3830  
                                                __ptext64 3836  
                                                __ptext56 3560  
                                                __ptext48 2F96  
                                                __ptext65 3838  
                                                __ptext57 3832  
                                                __ptext49 33F8  
                                                __ptext66 383A  
                                                __ptext58 381E  
                                                __ptext67 383C  
                                                __ptext59 346C  
                                                __ptext68 383E  
                                                __ptext69 3840  
                             CAN1_OperationModeSet@opMode 05C8  
                                   _I2C1_DO_BUS_COLLISION 000000  
                                      _uiCountVueltaRueda 053F  
                             CAN1_OperationModeSet@status 05C9  
                                _I2C1_CallbackReturnReset 000000  
                                           __size_of_main 0036  
                                       ?_ReluctorFreqRead 0501  
                         __size_of_MESSAGESSendEvery100ms 014C  
                    __end_of_TMR0_DefaultInterruptHandler 3834  
                   __size_of_TMR0_DefaultInterruptHandler 0002  
                            _TMR0_DefaultInterruptHandler 3832  
                                      ??_ReluctorFreqRead 050E  
                                       ?_ReluctorPosCount 0501  
                      __end_of_INTERRUPT_InterruptManager 2DB0  
                              _INTERRUPT_InterruptManager 2CEE  
                                       ??_TMR1_WriteTimer 0503  
                                            _I2C1_DO_IDLE 000000  
                                      ??_ReluctorPosCount 0501  
                             ??_DefaultSystemErrorHandler 0501  
                                  ??_ValidateTransmission 0504  
                                         ??_TMR0_CallBack 0501  
                            _CAN1_RxBufferOverflowHandler 0584  
                                                memcpy@d1 0501  
                                                memcpy@s1 0503  
                                  ??_INTERRUPT_Initialize 05C8  
                                         ??_TMR1_CallBack 0501  
                                      _EXT_INT_Initialize 3728  
                                         _ucTyrePerimeter 054F  
                                                intlevel2 0000  
                                           _C1TXQSTALbits 000154  
                                 ?_PIN_MANAGER_Initialize 0501  
                                     ?_EXT_INT_Initialize 0501  
                             ?_CAN1_RX_FIFO_Configuration 0501  
                      __size_of_CAN1_BitRateConfiguration 0014  
                                 _I2C1_CallbackReturnStop 000000  
                                 __size_of_PARAMETERSInit 000E  
                                  ?_CAN1_OperationModeGet 0501  
                              ?_CAN1_BitRateConfiguration 0501  
                                  ?_CAN1_OperationModeSet 0501  
                                        ??_ADC_Initialize 05CA  
                                  __size_of_INT0_CallBack 0036  
                         fp__TMR0_DefaultInterruptHandler 0000  
                           ?_TMR0_DefaultInterruptHandler 0501  
                                    _I2C1_DO_ADDRESS_NACK 000000  
                                __size_of_I2C1_Initialize 002C  
                                    ??_EXT_INT_Initialize 05CA  
                                  _MESSAGESSendEvery100ms 29D0  
                                __size_of_CANWriteMessage 00FA  
                                CAN1_Transmit@fifoChannel 051D  
                                         _TMR0_Initialize 363A  
         CAN1_SetRxBufferOverFlowInterruptHandler@handler 05C8  
                                         _C1FIFOSTA1Lbits 000160  
                          __end_of_PIN_MANAGER_Initialize 31A4  
                               _DefaultSystemErrorHandler 3838  
                        _ADC_DefaultContext1Threshold_ISR 000000  
                                 i2_CAN1_OperationModeGet 3814  
                                 i2_CAN1_OperationModeSet 302A  
                                         _TMR1_Initialize 3372  
                       __end_of_CAN1_BitRateConfiguration 377A  
